
slaveSdram.elf:     file format elf32-littlenios2
slaveSdram.elf
architecture: nios2:r1, flags 0x00000112:
EXEC_P, HAS_SYMS, D_PAGED
start address 0x010001dc

Program Header:
    LOAD off    0x00001000 vaddr 0x01000000 paddr 0x01000000 align 2**12
         filesz 0x00000020 memsz 0x00000020 flags r-x
    LOAD off    0x00001020 vaddr 0x01000020 paddr 0x01000020 align 2**12
         filesz 0x00003310 memsz 0x00003310 flags r-x
    LOAD off    0x00004330 vaddr 0x01003330 paddr 0x01003354 align 2**12
         filesz 0x00000024 memsz 0x00000024 flags rw-
    LOAD off    0x00004378 vaddr 0x01003378 paddr 0x01003378 align 2**12
         filesz 0x00000000 memsz 0x000021b8 flags rw-

Sections:
Idx Name          Size      VMA       LMA       File off  Algn
  0 .entry        00000020  01000000  01000000  00001000  2**5
                  CONTENTS, ALLOC, LOAD, READONLY, CODE
  1 .exceptions   000001bc  01000020  01000020  00001020  2**2
                  CONTENTS, ALLOC, LOAD, READONLY, CODE
  2 .text         00003080  010001dc  010001dc  000011dc  2**2
                  CONTENTS, ALLOC, LOAD, READONLY, CODE
  3 .rodata       000000d4  0100325c  0100325c  0000425c  2**2
                  CONTENTS, ALLOC, LOAD, READONLY, DATA
  4 .rwdata       00000024  01003330  01003354  00004330  2**2
                  CONTENTS, ALLOC, LOAD, DATA, SMALL_DATA
  5 .bss          000021b8  01003378  01003378  00004378  2**2
                  ALLOC, SMALL_DATA
  6 .memory_buff  00000000  00008000  00008000  00004354  2**0
                  CONTENTS
  7 .sdram        00000000  01005530  01005530  00004354  2**0
                  CONTENTS
  8 .comment      00000023  00000000  00000000  00004354  2**0
                  CONTENTS, READONLY
  9 .debug_aranges 00000488  00000000  00000000  00004378  2**3
                  CONTENTS, READONLY, DEBUGGING
 10 .debug_info   000069cd  00000000  00000000  00004800  2**0
                  CONTENTS, READONLY, DEBUGGING
 11 .debug_abbrev 0000230c  00000000  00000000  0000b1cd  2**0
                  CONTENTS, READONLY, DEBUGGING
 12 .debug_line   00002c29  00000000  00000000  0000d4d9  2**0
                  CONTENTS, READONLY, DEBUGGING
 13 .debug_frame  00001010  00000000  00000000  00010104  2**2
                  CONTENTS, READONLY, DEBUGGING
 14 .debug_str    00001f42  00000000  00000000  00011114  2**0
                  CONTENTS, READONLY, DEBUGGING
 15 .debug_loc    00002f8e  00000000  00000000  00013056  2**0
                  CONTENTS, READONLY, DEBUGGING
 16 .debug_alt_sim_info 00000040  00000000  00000000  00015fe4  2**2
                  CONTENTS, READONLY, DEBUGGING
 17 .debug_ranges 000001f8  00000000  00000000  00016028  2**3
                  CONTENTS, READONLY, DEBUGGING
 18 .thread_model 00000003  00000000  00000000  00018794  2**0
                  CONTENTS, READONLY
 19 .cpu          0000000c  00000000  00000000  00018797  2**0
                  CONTENTS, READONLY
 20 .qsys         00000001  00000000  00000000  000187a3  2**0
                  CONTENTS, READONLY
 21 .simulation_enabled 00000001  00000000  00000000  000187a4  2**0
                  CONTENTS, READONLY
 22 .stderr_dev   0000000b  00000000  00000000  000187a5  2**0
                  CONTENTS, READONLY
 23 .stdin_dev    0000000b  00000000  00000000  000187b0  2**0
                  CONTENTS, READONLY
 24 .stdout_dev   0000000b  00000000  00000000  000187bb  2**0
                  CONTENTS, READONLY
 25 .sopc_system_name 0000000b  00000000  00000000  000187c6  2**0
                  CONTENTS, READONLY
 26 .quartus_project_dir 0000002b  00000000  00000000  000187d1  2**0
                  CONTENTS, READONLY
 27 .jdi          0000a38c  00000000  00000000  000187fc  2**0
                  CONTENTS, READONLY
 28 .sopcinfo     00064b11  00000000  00000000  00022b88  2**0
                  CONTENTS, READONLY
SYMBOL TABLE:
01000000 l    d  .entry	00000000 .entry
01000020 l    d  .exceptions	00000000 .exceptions
010001dc l    d  .text	00000000 .text
0100325c l    d  .rodata	00000000 .rodata
01003330 l    d  .rwdata	00000000 .rwdata
01003378 l    d  .bss	00000000 .bss
00008000 l    d  .memory_buff	00000000 .memory_buff
01005530 l    d  .sdram	00000000 .sdram
00000000 l    d  .comment	00000000 .comment
00000000 l    d  .debug_aranges	00000000 .debug_aranges
00000000 l    d  .debug_info	00000000 .debug_info
00000000 l    d  .debug_abbrev	00000000 .debug_abbrev
00000000 l    d  .debug_line	00000000 .debug_line
00000000 l    d  .debug_frame	00000000 .debug_frame
00000000 l    d  .debug_str	00000000 .debug_str
00000000 l    d  .debug_loc	00000000 .debug_loc
00000000 l    d  .debug_alt_sim_info	00000000 .debug_alt_sim_info
00000000 l    d  .debug_ranges	00000000 .debug_ranges
00000000 l    df *ABS*	00000000 ../slaveSdram_bsp//obj/HAL/src/crt0.o
01000214 l       .text	00000000 alt_after_alt_main
00000000 l    df *ABS*	00000000 obj/default/portable/GCC/NiosII/port_asm.o
01000020 l       .exceptions	00000000 save_context
0100009c l       .exceptions	00000000 save_sp_to_pxCurrentTCB
010000ac l       .exceptions	00000000 hw_irq_test
01000150 l       .exceptions	00000000 soft_exceptions
010000c0 l       .exceptions	00000000 hw_irq_handler
010000d4 l       .exceptions	00000000 restore_context
0100016c l       .exceptions	00000000 call_scheduler
00000000 l    df *ABS*	00000000 alt_irq_handler.c
00000000 l    df *ABS*	00000000 asym.c
01003378 l     O .bss	00000004 mutex
010033d0 l     O .bss	00000040 pxTasks
00000000 l    df *ABS*	00000000 croutine.c
00000000 l    df *ABS*	00000000 list.c
00000000 l    df *ABS*	00000000 port.c
00000000 l    df *ABS*	00000000 heap_1.c
0100337c l     O .bss	00000004 pucAlignedHeap.2415
01003410 l     O .bss	00001f58 ucHeap
01003380 l     O .bss	00000004 xNextFreeByte
00000000 l    df *ABS*	00000000 queue.c
010007b4 l     F .text	000000d8 prvCopyDataToQueue
0100088c l     F .text	00000038 prvCopyDataFromQueue
010008c4 l     F .text	000000ac prvUnlockQueue
00000000 l    df *ABS*	00000000 slaveSdram.c
00000000 l    df *ABS*	00000000 tasks.c
01001408 l     F .text	0000002c prvTaskIsTaskSuspended
01005368 l     O .bss	00000014 xSuspendedTaskList
01005390 l     O .bss	00000014 xPendingReadyList
01001434 l     F .text	0000002c prvResetNextTaskUnblockTime
010033b4 l     O .bss	00000004 pxDelayedTaskList
01003388 l     O .bss	00000004 xNextTaskUnblockTime
01001460 l     F .text	0000005c prvAddCurrentTaskToDelayedList
010033a4 l     O .bss	00000004 xTickCount
010033b0 l     O .bss	00000004 pxOverflowDelayedTaskList
01003384 l     O .bss	00000004 uxSchedulerSuspended
010033a0 l     O .bss	00000004 uxTopReadyPriority
010053cc l     O .bss	00000064 pxReadyTasksLists
0100339c l     O .bss	00000004 xSchedulerRunning
010033a8 l     O .bss	00000004 uxCurrentNumberOfTasks
01003390 l     O .bss	00000004 xNumOfOverflows
01003398 l     O .bss	00000004 uxPendedTicks
01003394 l     O .bss	00000004 xYieldPending
010053b8 l     O .bss	00000014 xDelayedTaskList1
010053a4 l     O .bss	00000014 xDelayedTaskList2
0100537c l     O .bss	00000014 xTasksWaitingTermination
0100338c l     O .bss	00000004 uxTaskNumber
01002478 l     F .text	0000007c prvIdleTask
010033ac l     O .bss	00000004 uxTasksDeleted
00000000 l    df *ABS*	00000000 timers.c
00000000 l    df *ABS*	00000000 lib2-mul.c
00000000 l    df *ABS*	00000000 memcpy.c
00000000 l    df *ABS*	00000000 memset.c
00000000 l    df *ABS*	00000000 alt_irq_vars.c
00000000 l    df *ABS*	00000000 alt_load.c
00000000 l    df *ABS*	00000000 alt_main.c
00000000 l    df *ABS*	00000000 alt_printf.c
00000000 l    df *ABS*	00000000 alt_putchar.c
00000000 l    df *ABS*	00000000 alt_putstr.c
00000000 l    df *ABS*	00000000 alt_usleep.c
00000000 l    df *ABS*	00000000 alt_sys_init.c
01003330 l     O .rwdata	00000010 mutex_0
00000000 l    df *ABS*	00000000 altera_avalon_jtag_uart_write.c
00000000 l    df *ABS*	00000000 altera_avalon_mutex.c
00000000 l    df *ABS*	00000000 alt_busy_sleep.c
00000000 l    df *ABS*	00000000 alt_dcache_flush_all.c
00000000 l    df *ABS*	00000000 alt_dev_llist_insert.c
00000000 l    df *ABS*	00000000 alt_errno.c
00000000 l    df *ABS*	00000000 alt_find_dev.c
00000000 l    df *ABS*	00000000 alt_icache_flush_all.c
00000000 l    df *ABS*	00000000 altera_nios2_qsys_irq.c
00000000 l    df *ABS*	00000000 int_errno.c
00000000 l    df *ABS*	00000000 memcmp.c
00000000 l    df *ABS*	00000000 strlen.c
00000000 l    df *ABS*	00000000 lib2-divmod.c
01003130 l     F .text	0000006c udivmodsi4
01002bdc g     F .text	0000002c alt_main
01005430 g     O .bss	00000100 alt_irq
010000c4 g       .exceptions	00000000 restore_sp_from_pxCurrentTCB
01001840 g     F .text	00000074 vTaskPlaceOnUnorderedEventList
010007a4 g     F .text	00000010 xPortGetFreeHeapSize
01003354 g       *ABS*	00000000 __flash_rwdata_start
01001fc4 g     F .text	00000038 uxTaskPriorityGet
01001bb8 g     F .text	00000030 vTaskEnterCritical
01000d44 g     F .text	00000090 xQueueGenericSendFromISR
01002ee0 g     F .text	00000028 altera_avalon_mutex_trylock
01002dbc g     F .text	00000038 alt_putstr
00000000  w      *UND*	00000000 __errno
01000000 g     F .entry	0000000c __reset
01000ce4 g     F .text	00000060 xQueueGiveMutexRecursive
010033b8 g     O .bss	00000004 pxCurrentTCB
01000258 g     F .text	00000050 xAsymReqQueuInit
01002f28 g     F .text	00000028 altera_avalon_mutex_is_mine
01001230 g     F .text	00000034 xFirstTask
01000020 g       *ABS*	00000000 __flash_exceptions_start
010033cc g     O .bss	00000004 errno
010033c4 g     O .bss	00000004 alt_argv
0100b340 g       *ABS*	00000000 _gp
01002df4 g     F .text	00000004 usleep
01001ffc g     F .text	00000104 vTaskPrioritySet
01000690 g     F .text	0000007c xPortStartScheduler
01001574 g     F .text	00000018 vTaskEndScheduler
01003064 g     F .text	00000074 alt_find_dev
01002a9c g     F .text	00000028 memcpy
010017d8 g     F .text	00000068 vTaskPlaceOnEventList
01001c24 g     F .text	0000027c xTaskGenericCreate
0100111c g     F .text	00000048 xQueuePeekFromISR
01000798 g     F .text	00000004 vPortFree
0100324c g     F .text	00000008 .hidden __udivsi3
01001a04 g     F .text	00000034 uxTaskGetStackHighWaterMark
01001300 g     F .text	00000034 xFifthTask
010004cc g     F .text	00000030 vListInsertEnd
010014cc g     F .text	000000a8 xTaskResumeFromISR
010004c4 g     F .text	00000008 vListInitialiseItem
01000588 g     F .text	0000002c vPortSysTickHandler
010014bc g     F .text	00000010 uxTaskPriorityGetFromISR
010005f8 g     F .text	00000098 alt_irq_register
01001264 g     F .text	00000034 xSecondTask
01002f50 g     F .text	00000010 altera_avalon_mutex_first_lock
01005530 g       *ABS*	00000000 __bss_end
0100070c g     F .text	0000008c pvPortMalloc
010011dc g     F .text	00000004 vQueueDelete
010005f4 g     F .text	00000004 vPortEndScheduler
010004a4 g     F .text	00000020 vListInitialise
010033bc g     O .bss	00000004 alt_irq_active
0100017c g     F .exceptions	00000060 alt_irq_handler
0100034c g     F .text	00000020 xAsymTaskCreate
0100159c g     F .text	00000008 xTaskGetTickCount
01000ae8 g     F .text	0000017c xQueueGenericSend
01002e60 g     F .text	00000058 altera_avalon_mutex_open
01002fe8 g     F .text	00000004 alt_dcache_flush_all
01001b1c g     F .text	0000009c xTaskPriorityDisinherit
01000310 g     F .text	0000003c xAsymReqQueueNotEmpty
01003354 g       *ABS*	00000000 __ram_rwdata_end
010018b4 g     F .text	000000a4 xTaskRemoveFromEventList
01003348 g     O .rwdata	00000008 alt_mutex_list
01003330 g       *ABS*	00000000 __ram_rodata_end
01003254 g     F .text	00000008 .hidden __umodsi3
01005530 g       *ABS*	00000000 end
01001f14 g     F .text	000000b0 vTaskDelete
01002598 g     F .text	00000020 pvTaskIncrementMutexHeldCount
01800000 g       *ABS*	00000000 __alt_stack_pointer
01002e2c g     F .text	00000034 altera_avalon_jtag_uart_write
010024f4 g     F .text	00000080 xTaskCheckForTimeOut
01000450 g     F .text	00000054 vAsymStartScheduler
01002c08 g     F .text	0000016c alt_printf
010025b8 g     F .text	000000c8 ulTaskNotifyTake
010001dc g     F .text	0000003c _start
0100158c g     F .text	00000010 vTaskSuspendAll
010015a4 g     F .text	00000008 xTaskGetTickCountFromISR
01002e18 g     F .text	00000014 alt_sys_init
0100036c g     F .text	000000e4 vAsymServeReq
01000550 g     F .text	00000038 uxListRemove
01002f08 g     F .text	00000020 altera_avalon_mutex_unlock
01001a40 g     F .text	000000dc vTaskPriorityInherit
01002a74 g     F .text	00000028 .hidden __mulsi3
01003330 g       *ABS*	00000000 __ram_rwdata_start
0100325c g       *ABS*	00000000 __ram_rodata_start
010021dc g     F .text	00000098 vTaskResume
01001710 g     F .text	000000c8 vTaskSwitchContext
01001334 g     F .text	00000034 xSixthTask
01002f60 g     F .text	00000088 alt_busy_sleep
01002680 g     F .text	0000010c xTaskNotifyWait
010030e4 g     F .text	00000030 memcmp
01005530 g       *ABS*	00000000 __alt_stack_base
01002100 g     F .text	000000dc vTaskSuspend
010015ac g     F .text	00000008 uxTaskGetNumberOfTasks
00000000         *UND*	00000000 save_context
01002fec g     F .text	00000078 alt_dev_llist_insert
0100100c g     F .text	00000084 xQueueTakeMutexRecursive
010012cc g     F .text	00000034 xFourthTask
0100278c g     F .text	00000110 xTaskGenericNotify
01003378 g       *ABS*	00000000 __bss_start
01002ac4 g     F .text	00000020 memset
01001368 g     F .text	000000a0 main
010002a8 g     F .text	00000068 xAsymGetReq
010033c0 g     O .bss	00000004 alt_envp
010004fc g     F .text	00000054 vListInsert
01002ebc g     F .text	00000024 altera_avalon_mutex_lock
01003350 g     O .rwdata	00000004 alt_errno
01002398 g     F .text	00000088 vTaskDelayUntil
01001090 g     F .text	0000008c xQueueReceiveFromISR
01001a38 g     F .text	00000008 xTaskGetCurrentTaskHandle
0100319c g     F .text	00000054 .hidden __divsi3
01000a28 g     F .text	0000008c xQueueGenericCreate
010011fc g     F .text	00000034 xZerothTask
01000ab4 g     F .text	00000034 xQueueCreateCountingSemaphore
0100325c g       *ABS*	00000000 __flash_rodata_start
0100289c g     F .text	00000118 xTaskGenericNotifyFromISR
01002df8 g     F .text	00000020 alt_irq_init
01001958 g     F .text	0000008c xTaskRemoveFromUnorderedEventList
01002274 g     F .text	00000124 xTaskResumeAll
01001194 g     F .text	00000040 uxQueueSpacesAvailable
01001ea0 g     F .text	00000074 vTaskStartScheduler
010011ec g     F .text	00000010 xQueueIsQueueFullFromISR
010033c8 g     O .bss	00000004 alt_argc
010019f8 g     F .text	0000000c vTaskMissedYield
01001164 g     F .text	00000030 uxQueueMessagesWaiting
01000e64 g     F .text	000001a8 xQueueGenericReceive
010015b4 g     F .text	0000015c xTaskIncrementTick
01000020 g       *ABS*	00000000 __ram_exceptions_start
01000970 g     F .text	000000b8 xQueueGenericReset
01003354 g       *ABS*	00000000 _edata
01005530 g       *ABS*	00000000 _end
010001dc g       *ABS*	00000000 __ram_exceptions_end
01001298 g     F .text	00000034 xThirdTask
0100079c g     F .text	00000008 vPortInitialiseBlocks
010030dc g     F .text	00000008 altera_nios2_qsys_irq_init
01003344 g     O .rwdata	00000004 jtag_uart_1
010031f0 g     F .text	0000005c .hidden __modsi3
01002420 g     F .text	00000058 vTaskDelay
01800000 g       *ABS*	00000000 __alt_data_end
01000000 g       *ABS*	00000000 __alt_mem_sdram
00008000 g       *ABS*	00000000 __alt_mem_memory_buff
0100000c g       .entry	00000000 _exit
01001be8 g     F .text	0000003c vTaskExitCritical
01003114 g     F .text	0000001c strlen
010005b4 g     F .text	00000040 pxPortInitialiseStack
01002d74 g     F .text	00000048 alt_putchar
010030d8 g     F .text	00000004 alt_icache_flush_all
010019e4 g     F .text	00000014 vTaskSetTimeOutState
01003340 g     O .rwdata	00000004 alt_priority_mask
01002eb8 g     F .text	00000004 altera_avalon_mutex_close
010011d4 g     F .text	00000008 uxQueueMessagesWaitingFromISR
010011e0 g     F .text	0000000c xQueueIsQueueEmptyFromISR
01000218 g     F .text	00000040 xAsymMutexInit
01002574 g     F .text	00000024 uxTaskResetEventItemValue
01000c64 g     F .text	00000080 xQueueCreateMutex
010029b4 g     F .text	000000c0 vTaskNotifyGiveFromISR
01002ae4 g     F .text	000000f8 alt_load
01000dd4 g     F .text	00000090 xQueueGiveFromISR



Disassembly of section .entry:

01000000 <__reset>:
 * Jump to the _start entry point in the .text section if reset code
 * is allowed or if optimizing for RTL simulation.
 */
#if defined(ALT_ALLOW_CODE_AT_RESET) || defined(ALT_SIM_OPTIMIZE)
    /* Jump to the _start entry point in the .text section. */
    movhi r1, %hi(_start)
 1000000:	00404034 	movhi	at,256
    ori r1, r1, %lo(_start)
 1000004:	08407714 	ori	at,at,476
    jmp r1
 1000008:	0800683a 	jmp	at

0100000c <_exit>:
	...

Disassembly of section .exceptions:

01000020 <save_context>:
# Entry point for exceptions.
.section .exceptions.entry, "xa"

# Save the entire context of a task.
save_context:
	addi	ea, ea, -4			# Point to the next instruction.
 1000020:	ef7fff04 	addi	ea,ea,-4
	addi	sp,	sp, -116		# Create space on the stack.
 1000024:	deffe304 	addi	sp,sp,-116
	stw		ra, 0(sp)
 1000028:	dfc00015 	stw	ra,0(sp)
								# Leave a gap for muldiv 0
	stw		at, 8(sp)
 100002c:	d8400215 	stw	at,8(sp)
	stw		r2, 12(sp)
 1000030:	d8800315 	stw	r2,12(sp)
	stw		r3, 16(sp)
 1000034:	d8c00415 	stw	r3,16(sp)
	stw		r4, 20(sp)
 1000038:	d9000515 	stw	r4,20(sp)
	stw		r5, 24(sp)
 100003c:	d9400615 	stw	r5,24(sp)
	stw		r6, 28(sp)
 1000040:	d9800715 	stw	r6,28(sp)
	stw		r7, 32(sp)
 1000044:	d9c00815 	stw	r7,32(sp)
	stw		r8, 36(sp)
 1000048:	da000915 	stw	r8,36(sp)
	stw		r9, 40(sp)
 100004c:	da400a15 	stw	r9,40(sp)
	stw		r10, 44(sp)
 1000050:	da800b15 	stw	r10,44(sp)
	stw		r11, 48(sp)
 1000054:	dac00c15 	stw	r11,48(sp)
	stw		r12, 52(sp)
 1000058:	db000d15 	stw	r12,52(sp)
	stw		r13, 56(sp)
 100005c:	db400e15 	stw	r13,56(sp)
	stw		r14, 60(sp)
 1000060:	db800f15 	stw	r14,60(sp)
	stw		r15, 64(sp)
 1000064:	dbc01015 	stw	r15,64(sp)
	rdctl	r5, estatus 		# Save the eStatus
 1000068:	000b307a 	rdctl	r5,estatus
	stw		r5, 68(sp)
 100006c:	d9401115 	stw	r5,68(sp)
	stw		ea, 72(sp)			# Save the PC
 1000070:	df401215 	stw	ea,72(sp)
	stw		r16, 76(sp)			# Save the remaining registers
 1000074:	dc001315 	stw	r16,76(sp)
	stw		r17, 80(sp)
 1000078:	dc401415 	stw	r17,80(sp)
	stw		r18, 84(sp)
 100007c:	dc801515 	stw	r18,84(sp)
	stw		r19, 88(sp)
 1000080:	dcc01615 	stw	r19,88(sp)
	stw		r20, 92(sp)
 1000084:	dd001715 	stw	r20,92(sp)
	stw		r21, 96(sp)
 1000088:	dd401815 	stw	r21,96(sp)
	stw		r22, 100(sp)
 100008c:	dd801915 	stw	r22,100(sp)
	stw		r23, 104(sp)
 1000090:	ddc01a15 	stw	r23,104(sp)
	stw		gp, 108(sp)
 1000094:	de801b15 	stw	gp,108(sp)
	stw		fp, 112(sp)
 1000098:	df001c15 	stw	fp,112(sp)

0100009c <save_sp_to_pxCurrentTCB>:
 100009c:	06004034 	movhi	et,256

save_sp_to_pxCurrentTCB:
	movia	et, pxCurrentTCB	# Load the address of the pxCurrentTCB pointer
 10000a0:	c60cee04 	addi	et,et,13240
	ldw		et, (et)			# Load the value of the pxCurrentTCB pointer
 10000a4:	c6000017 	ldw	et,0(et)
	stw		sp, (et)			# Store the stack pointer into the top of the TCB
 10000a8:	c6c00015 	stw	sp,0(et)

010000ac <hw_irq_test>:
hw_irq_test:
	/*
     * Test to see if the exception was a software exception or caused
     * by an external interrupt, and vector accordingly.
     */
    rdctl	r4, ipending		# Load the Pending Interrupts indication
 10000ac:	0009313a 	rdctl	r4,ipending
	rdctl	r5, estatus 		# Load the eStatus (enabled interrupts).
 10000b0:	000b307a 	rdctl	r5,estatus
    andi	r2, r5, 1			# Are interrupts enabled globally.
 10000b4:	2880004c 	andi	r2,r5,1
    beq		r2, zero, soft_exceptions		# Interrupts are not enabled.
 10000b8:	10002526 	beq	r2,zero,1000150 <soft_exceptions>
    beq		r4, zero, soft_exceptions		# There are no interrupts triggered.
 10000bc:	20002426 	beq	r4,zero,1000150 <soft_exceptions>

010000c0 <hw_irq_handler>:

	.section .exceptions.irqhandler, "xa"
hw_irq_handler:
	call	alt_irq_handler					# Call the alt_irq_handler to deliver to the registered interrupt handler.
 10000c0:	100017c0 	call	100017c <alt_irq_handler>

010000c4 <restore_sp_from_pxCurrentTCB>:
 10000c4:	06004034 	movhi	et,256

    .section .exceptions.irqreturn, "xa"
restore_sp_from_pxCurrentTCB:
	movia	et, pxCurrentTCB		# Load the address of the pxCurrentTCB pointer
 10000c8:	c60cee04 	addi	et,et,13240
	ldw		et, (et)				# Load the value of the pxCurrentTCB pointer
 10000cc:	c6000017 	ldw	et,0(et)
	ldw		sp, (et)				# Load the stack pointer with the top value of the TCB
 10000d0:	c6c00017 	ldw	sp,0(et)

010000d4 <restore_context>:

restore_context:
	ldw		ra, 0(sp)		# Restore the registers.
 10000d4:	dfc00017 	ldw	ra,0(sp)
							# Leave a gap for muldiv 0.
	ldw		at, 8(sp)
 10000d8:	d8400217 	ldw	at,8(sp)
	ldw		r2, 12(sp)
 10000dc:	d8800317 	ldw	r2,12(sp)
	ldw		r3, 16(sp)
 10000e0:	d8c00417 	ldw	r3,16(sp)
	ldw		r4, 20(sp)
 10000e4:	d9000517 	ldw	r4,20(sp)
	ldw		r5, 24(sp)
 10000e8:	d9400617 	ldw	r5,24(sp)
	ldw		r6, 28(sp)
 10000ec:	d9800717 	ldw	r6,28(sp)
	ldw		r7, 32(sp)
 10000f0:	d9c00817 	ldw	r7,32(sp)
	ldw		r8, 36(sp)
 10000f4:	da000917 	ldw	r8,36(sp)
	ldw		r9, 40(sp)
 10000f8:	da400a17 	ldw	r9,40(sp)
	ldw		r10, 44(sp)
 10000fc:	da800b17 	ldw	r10,44(sp)
	ldw		r11, 48(sp)
 1000100:	dac00c17 	ldw	r11,48(sp)
	ldw		r12, 52(sp)
 1000104:	db000d17 	ldw	r12,52(sp)
	ldw		r13, 56(sp)
 1000108:	db400e17 	ldw	r13,56(sp)
	ldw		r14, 60(sp)
 100010c:	db800f17 	ldw	r14,60(sp)
	ldw		r15, 64(sp)
 1000110:	dbc01017 	ldw	r15,64(sp)
	ldw		et, 68(sp)		# Load the eStatus
 1000114:	de001117 	ldw	et,68(sp)
	wrctl	estatus, et 	# Write the eStatus
 1000118:	c001707a 	wrctl	estatus,et
	ldw		ea, 72(sp)		# Load the Program Counter
 100011c:	df401217 	ldw	ea,72(sp)
	ldw		r16, 76(sp)
 1000120:	dc001317 	ldw	r16,76(sp)
	ldw		r17, 80(sp)
 1000124:	dc401417 	ldw	r17,80(sp)
	ldw		r18, 84(sp)
 1000128:	dc801517 	ldw	r18,84(sp)
	ldw		r19, 88(sp)
 100012c:	dcc01617 	ldw	r19,88(sp)
	ldw		r20, 92(sp)
 1000130:	dd001717 	ldw	r20,92(sp)
	ldw		r21, 96(sp)
 1000134:	dd401817 	ldw	r21,96(sp)
	ldw		r22, 100(sp)
 1000138:	dd801917 	ldw	r22,100(sp)
	ldw		r23, 104(sp)
 100013c:	ddc01a17 	ldw	r23,104(sp)
	ldw		gp, 108(sp)
 1000140:	de801b17 	ldw	gp,108(sp)
	ldw		fp, 112(sp)
 1000144:	df001c17 	ldw	fp,112(sp)
	addi	sp,	sp, 116		# Release stack space
 1000148:	dec01d04 	addi	sp,sp,116

    eret					# Return to address ea, loading eStatus into Status.
 100014c:	ef80083a 	eret

01000150 <soft_exceptions>:

	.section .exceptions.soft, "xa"
soft_exceptions:
	ldw		et, 0(ea)				# Load the instruction where the interrupt occured.
 1000150:	ee000017 	ldw	et,0(ea)
	movhi	at, %hi(0x003B683A)		# Load the registers with the trap instruction code
 1000154:	00400ef4 	movhi	at,59
	ori		at, at, %lo(0x003B683A)
 1000158:	085a0e94 	ori	at,at,26682
   	cmpne	et, et, at				# Compare the trap instruction code to the last excuted instruction
 100015c:	c070c03a 	cmpne	et,et,at
  	beq		et, r0, call_scheduler	# its a trap so switchcontext
 1000160:	c0000226 	beq	et,zero,100016c <call_scheduler>
  	break							# This is an un-implemented instruction or muldiv problem.
 1000164:	003da03a 	break	0
  	br		restore_context			# its something else
 1000168:	003fda06 	br	10000d4 <restore_context>

0100016c <call_scheduler>:

call_scheduler:
	addi	ea, ea, 4						# A trap was called, increment the program counter so it is not called again.
 100016c:	ef400104 	addi	ea,ea,4
	stw		ea, 72(sp)						# Save the new program counter to the context.
 1000170:	df401215 	stw	ea,72(sp)
	call	vTaskSwitchContext				# Pick the next context.
 1000174:	10017100 	call	1001710 <vTaskSwitchContext>
	br		restore_sp_from_pxCurrentTCB	# Switch in the task context and restore.
 1000178:	003fd206 	br	10000c4 <restore_sp_from_pxCurrentTCB>

0100017c <alt_irq_handler>:
 * instruction is present if the macro ALT_CI_INTERRUPT_VECTOR defined.
 */

void alt_irq_handler (void) __attribute__ ((section (".exceptions")));
void alt_irq_handler (void)
{
 100017c:	defffe04 	addi	sp,sp,-8
 1000180:	dfc00115 	stw	ra,4(sp)
 1000184:	dc000015 	stw	r16,0(sp)
#ifndef NIOS2_EIC_PRESENT
static ALT_INLINE alt_u32 ALT_ALWAYS_INLINE alt_irq_pending (void)
{
  alt_u32 active;

  NIOS2_READ_IPENDING (active);
 1000188:	0007313a 	rdctl	r3,ipending
      if (active & mask)
      { 
#ifdef ALT_ENHANCED_INTERRUPT_API_PRESENT
        alt_irq[i].handler(alt_irq[i].context); 
#else
        alt_irq[i].handler(alt_irq[i].context, i); 
 100018c:	04004034 	movhi	r16,256
 1000190:	84150c04 	addi	r16,r16,21552

  active = alt_irq_pending ();

  do
  {
    i = 0;
 1000194:	000b883a 	mov	r5,zero
    mask = 1;
 1000198:	00800044 	movi	r2,1
     * called to clear the interrupt condition.
     */

    do
    {
      if (active & mask)
 100019c:	10c8703a 	and	r4,r2,r3
 10001a0:	20000b26 	beq	r4,zero,10001d0 <alt_irq_handler+0x54>
      { 
#ifdef ALT_ENHANCED_INTERRUPT_API_PRESENT
        alt_irq[i].handler(alt_irq[i].context); 
#else
        alt_irq[i].handler(alt_irq[i].context, i); 
 10001a4:	280490fa 	slli	r2,r5,3
 10001a8:	8085883a 	add	r2,r16,r2
 10001ac:	10c00017 	ldw	r3,0(r2)
 10001b0:	11000117 	ldw	r4,4(r2)
 10001b4:	183ee83a 	callr	r3
 10001b8:	0007313a 	rdctl	r3,ipending

    } while (1);

    active = alt_irq_pending ();
    
  } while (active);
 10001bc:	183ff51e 	bne	r3,zero,1000194 <alt_irq_handler+0x18>
  /*
   * Notify the operating system that interrupt processing is complete.
   */ 

  ALT_OS_INT_EXIT();
}
 10001c0:	dfc00117 	ldw	ra,4(sp)
 10001c4:	dc000017 	ldw	r16,0(sp)
 10001c8:	dec00204 	addi	sp,sp,8
 10001cc:	f800283a 	ret
#else
        alt_irq[i].handler(alt_irq[i].context, i); 
#endif
        break;
      }
      mask <<= 1;
 10001d0:	1085883a 	add	r2,r2,r2
      i++;
 10001d4:	29400044 	addi	r5,r5,1

    } while (1);
 10001d8:	003ff006 	br	100019c <alt_irq_handler+0x20>

Disassembly of section .text:

010001dc <_start>:

    /*
     * Now that the caches are initialized, set up the stack pointer and global pointer.
     * The values provided by the linker are assumed to be correctly aligned.
     */
    movhi sp, %hi(__alt_stack_pointer)
 10001dc:	06c06034 	movhi	sp,384
    ori sp, sp, %lo(__alt_stack_pointer)
 10001e0:	dec00014 	ori	sp,sp,0
    movhi gp, %hi(_gp)
 10001e4:	06804034 	movhi	gp,256
    ori gp, gp, %lo(_gp)
 10001e8:	d6acd014 	ori	gp,gp,45888
 */
#ifndef ALT_SIM_OPTIMIZE
    /* Log that the BSS is about to be cleared. */
    ALT_LOG_PUTS(alt_log_msg_bss)

    movhi r2, %hi(__bss_start)
 10001ec:	00804034 	movhi	r2,256
    ori r2, r2, %lo(__bss_start)
 10001f0:	108cde14 	ori	r2,r2,13176

    movhi r3, %hi(__bss_end)
 10001f4:	00c04034 	movhi	r3,256
    ori r3, r3, %lo(__bss_end)
 10001f8:	18d54c14 	ori	r3,r3,21808

    beq r2, r3, 1f
 10001fc:	10c00326 	beq	r2,r3,100020c <_start+0x30>

0:
    stw zero, (r2)
 1000200:	10000015 	stw	zero,0(r2)
    addi r2, r2, 4
 1000204:	10800104 	addi	r2,r2,4
    bltu r2, r3, 0b
 1000208:	10fffd36 	bltu	r2,r3,1000200 <_start+0x24>
     * section aren't defined until alt_load() has been called).
     */
    mov   et, zero
#endif

    call alt_load
 100020c:	1002ae40 	call	1002ae4 <alt_load>

    /* Log that alt_main is about to be called. */
    ALT_LOG_PUTS(alt_log_msg_alt_main)

    /* Call the C entry point. It should never return. */
    call alt_main
 1000210:	1002bdc0 	call	1002bdc <alt_main>

01000214 <alt_after_alt_main>:

    /* Wait in infinite loop in case alt_main does return. */
alt_after_alt_main:
    br alt_after_alt_main
 1000214:	003fff06 	br	1000214 <alt_after_alt_main>

01000218 <xAsymMutexInit>:
#endif

static alt_mutex_dev * mutex;

bool_t xAsymMutexInit(){
	if(!altera_avalon_mutex_open(MUTEX_0_NAME)) {
 1000218:	01004034 	movhi	r4,256
PRIVILEGED_DATA static  void (* pxTasks[ NUMBER_OF_TASKS ] )( void *p );
#endif

static alt_mutex_dev * mutex;

bool_t xAsymMutexInit(){
 100021c:	deffff04 	addi	sp,sp,-4
	if(!altera_avalon_mutex_open(MUTEX_0_NAME)) {
 1000220:	210c9704 	addi	r4,r4,12892
PRIVILEGED_DATA static  void (* pxTasks[ NUMBER_OF_TASKS ] )( void *p );
#endif

static alt_mutex_dev * mutex;

bool_t xAsymMutexInit(){
 1000224:	dfc00015 	stw	ra,0(sp)
	if(!altera_avalon_mutex_open(MUTEX_0_NAME)) {
 1000228:	1002e600 	call	1002e60 <altera_avalon_mutex_open>
 100022c:	10000626 	beq	r2,zero,1000248 <xAsymMutexInit+0x30>
		/* Failed to instantiate mutex */
		return xFalse;
	  }

	 mutex = altera_avalon_mutex_open(MUTEX_0_NAME);
 1000230:	01004034 	movhi	r4,256
 1000234:	210c9704 	addi	r4,r4,12892
 1000238:	1002e600 	call	1002e60 <altera_avalon_mutex_open>
 100023c:	d0a00e15 	stw	r2,-32712(gp)
	 return xTrue;
 1000240:	00800044 	movi	r2,1
 1000244:	00000106 	br	100024c <xAsymMutexInit+0x34>
static alt_mutex_dev * mutex;

bool_t xAsymMutexInit(){
	if(!altera_avalon_mutex_open(MUTEX_0_NAME)) {
		/* Failed to instantiate mutex */
		return xFalse;
 1000248:	0005883a 	mov	r2,zero
	  }

	 mutex = altera_avalon_mutex_open(MUTEX_0_NAME);
	 return xTrue;
}
 100024c:	dfc00017 	ldw	ra,0(sp)
 1000250:	dec00104 	addi	sp,sp,4
 1000254:	f800283a 	ret

01000258 <xAsymReqQueuInit>:
}
#endif // IS_MASTER


bool_t xAsymReqQueuInit(){
		altera_avalon_mutex_lock(mutex, 1);
 1000258:	d1200e17 	ldw	r4,-32712(gp)
	}
}
#endif // IS_MASTER


bool_t xAsymReqQueuInit(){
 100025c:	deffff04 	addi	sp,sp,-4
		altera_avalon_mutex_lock(mutex, 1);
 1000260:	01400044 	movi	r5,1
	}
}
#endif // IS_MASTER


bool_t xAsymReqQueuInit(){
 1000264:	dfc00015 	stw	ra,0(sp)
		altera_avalon_mutex_lock(mutex, 1);
 1000268:	1002ebc0 	call	1002ebc <altera_avalon_mutex_lock>
	if( altera_avalon_mutex_is_mine(mutex)) {
 100026c:	d1200e17 	ldw	r4,-32712(gp)
 1000270:	1002f280 	call	1002f28 <altera_avalon_mutex_is_mine>
 1000274:	10000826 	beq	r2,zero,1000298 <xAsymReqQueuInit+0x40>
		xReqQueue->uxNumberOfItems = 0;
 1000278:	00a00014 	movui	r2,32768
 100027c:	10000005 	stb	zero,0(r2)
		xReqQueue->xToAdd = 0;
 1000280:	10002105 	stb	zero,132(r2)
		xReqQueue->xToServe = 0;
 1000284:	10002145 	stb	zero,133(r2)
		altera_avalon_mutex_unlock(mutex);
 1000288:	d1200e17 	ldw	r4,-32712(gp)
 100028c:	1002f080 	call	1002f08 <altera_avalon_mutex_unlock>
		}
		/* Creating a polling task for the semaphore */
		xTaskCreate( vAsymSemaphorePolling,"polling", 356, NULL, configMAX_PRIORITIES, NULL  );
#endif // IS_MASTER

		return xTrue;
 1000290:	00800044 	movi	r2,1
 1000294:	00000106 	br	100029c <xAsymReqQueuInit+0x44>
	}
	else
		return xFalse;
 1000298:	0005883a 	mov	r2,zero
}
 100029c:	dfc00017 	ldw	ra,0(sp)
 10002a0:	dec00104 	addi	sp,sp,4
 10002a4:	f800283a 	ret

010002a8 <xAsymGetReq>:
	}
	altera_avalon_mutex_unlock(mutex);
}
#endif // IS_MASTER

int8_t xAsymGetReq( int8_t xIndex ) {
 10002a8:	defffe04 	addi	sp,sp,-8
 10002ac:	dc000015 	stw	r16,0(sp)
 10002b0:	2021883a 	mov	r16,r4
	int8_t xReturnValue;
	altera_avalon_mutex_lock(mutex, 1);
 10002b4:	d1200e17 	ldw	r4,-32712(gp)
 10002b8:	01400044 	movi	r5,1
	}
	altera_avalon_mutex_unlock(mutex);
}
#endif // IS_MASTER

int8_t xAsymGetReq( int8_t xIndex ) {
 10002bc:	dfc00115 	stw	ra,4(sp)
	int8_t xReturnValue;
	altera_avalon_mutex_lock(mutex, 1);
 10002c0:	1002ebc0 	call	1002ebc <altera_avalon_mutex_lock>
	if( altera_avalon_mutex_is_mine(mutex)) {
 10002c4:	d1200e17 	ldw	r4,-32712(gp)
 10002c8:	1002f280 	call	1002f28 <altera_avalon_mutex_is_mine>
 10002cc:	10000b26 	beq	r2,zero,10002fc <xAsymGetReq+0x54>
		xReturnValue = (int8_t) ( xReqQueue->pxItems[ xIndex ].xItemValue );
 10002d0:	84003fcc 	andi	r16,r16,255
 10002d4:	8400201c 	xori	r16,r16,128
 10002d8:	843fe004 	addi	r16,r16,-128
 10002dc:	802090fa 	slli	r16,r16,3
 10002e0:	00a00114 	movui	r2,32772
		altera_avalon_mutex_unlock(mutex);
 10002e4:	d1200e17 	ldw	r4,-32712(gp)

int8_t xAsymGetReq( int8_t xIndex ) {
	int8_t xReturnValue;
	altera_avalon_mutex_lock(mutex, 1);
	if( altera_avalon_mutex_is_mine(mutex)) {
		xReturnValue = (int8_t) ( xReqQueue->pxItems[ xIndex ].xItemValue );
 10002e8:	80a1883a 	add	r16,r16,r2
 10002ec:	84000003 	ldbu	r16,0(r16)
		altera_avalon_mutex_unlock(mutex);
 10002f0:	1002f080 	call	1002f08 <altera_avalon_mutex_unlock>
		return xReturnValue;
 10002f4:	8005883a 	mov	r2,r16
 10002f8:	00000106 	br	1000300 <xAsymGetReq+0x58>
	}
	else
		return xFalse;
 10002fc:	0005883a 	mov	r2,zero
}
 1000300:	dfc00117 	ldw	ra,4(sp)
 1000304:	dc000017 	ldw	r16,0(sp)
 1000308:	dec00204 	addi	sp,sp,8
 100030c:	f800283a 	ret

01000310 <xAsymReqQueueNotEmpty>:
bool_t xAsymReqQueueNotEmpty(){
	altera_avalon_mutex_lock(mutex, 1);
 1000310:	d1200e17 	ldw	r4,-32712(gp)
		return xReturnValue;
	}
	else
		return xFalse;
}
bool_t xAsymReqQueueNotEmpty(){
 1000314:	defffe04 	addi	sp,sp,-8
	altera_avalon_mutex_lock(mutex, 1);
 1000318:	01400044 	movi	r5,1
		return xReturnValue;
	}
	else
		return xFalse;
}
bool_t xAsymReqQueueNotEmpty(){
 100031c:	dfc00115 	stw	ra,4(sp)
 1000320:	dc000015 	stw	r16,0(sp)
	altera_avalon_mutex_lock(mutex, 1);
 1000324:	1002ebc0 	call	1002ebc <altera_avalon_mutex_lock>
	bool_t xNotEmpty = xReqQueue->uxNumberOfItems;
 1000328:	00a00014 	movui	r2,32768
	altera_avalon_mutex_unlock(mutex);
 100032c:	d1200e17 	ldw	r4,-32712(gp)
	else
		return xFalse;
}
bool_t xAsymReqQueueNotEmpty(){
	altera_avalon_mutex_lock(mutex, 1);
	bool_t xNotEmpty = xReqQueue->uxNumberOfItems;
 1000330:	14000003 	ldbu	r16,0(r2)
	altera_avalon_mutex_unlock(mutex);
 1000334:	1002f080 	call	1002f08 <altera_avalon_mutex_unlock>
	return xNotEmpty;
}
 1000338:	8005883a 	mov	r2,r16
 100033c:	dfc00117 	ldw	ra,4(sp)
 1000340:	dc000017 	ldw	r16,0(sp)
 1000344:	dec00204 	addi	sp,sp,8
 1000348:	f800283a 	ret

0100034c <xAsymTaskCreate>:
#ifdef IS_SLAVE
bool_t xAsymTaskCreate( void (* pxTask )( void *p ) , xTaskIndex_t xTaskIndex){

	pxTasks[ xTaskIndex ] = pxTask;
 100034c:	294b883a 	add	r5,r5,r5
 1000350:	00804034 	movhi	r2,256
 1000354:	108cf404 	addi	r2,r2,13264
 1000358:	294b883a 	add	r5,r5,r5
 100035c:	114b883a 	add	r5,r2,r5
 1000360:	29000015 	stw	r4,0(r5)
	return xTrue;
}
 1000364:	00800044 	movi	r2,1
 1000368:	f800283a 	ret

0100036c <vAsymServeReq>:

void vAsymServeReq(int8_t xToServe){
 100036c:	defffb04 	addi	sp,sp,-20
 1000370:	dc400115 	stw	r17,4(sp)
 1000374:	2023883a 	mov	r17,r4

	altera_avalon_mutex_lock(mutex, 1);
	int8_t xItemValue =  xReqQueue->pxItems[ xToServe ].xItemValue;
 1000378:	8c403fcc 	andi	r17,r17,255
 100037c:	8c40201c 	xori	r17,r17,128
 1000380:	8c7fe004 	addi	r17,r17,-128
	return xTrue;
}

void vAsymServeReq(int8_t xToServe){

	altera_avalon_mutex_lock(mutex, 1);
 1000384:	d1200e17 	ldw	r4,-32712(gp)
	int8_t xItemValue =  xReqQueue->pxItems[ xToServe ].xItemValue;
 1000388:	882290fa 	slli	r17,r17,3

	pxTasks[ xTaskIndex ] = pxTask;
	return xTrue;
}

void vAsymServeReq(int8_t xToServe){
 100038c:	dcc00315 	stw	r19,12(sp)

	altera_avalon_mutex_lock(mutex, 1);
 1000390:	04c00044 	movi	r19,1
 1000394:	980b883a 	mov	r5,r19

	pxTasks[ xTaskIndex ] = pxTask;
	return xTrue;
}

void vAsymServeReq(int8_t xToServe){
 1000398:	dc800215 	stw	r18,8(sp)

	altera_avalon_mutex_lock(mutex, 1);
	int8_t xItemValue =  xReqQueue->pxItems[ xToServe ].xItemValue;
 100039c:	04a00014 	movui	r18,32768

	pxTasks[ xTaskIndex ] = pxTask;
	return xTrue;
}

void vAsymServeReq(int8_t xToServe){
 10003a0:	dfc00415 	stw	ra,16(sp)

	altera_avalon_mutex_lock(mutex, 1);
	int8_t xItemValue =  xReqQueue->pxItems[ xToServe ].xItemValue;
 10003a4:	9463883a 	add	r17,r18,r17

	pxTasks[ xTaskIndex ] = pxTask;
	return xTrue;
}

void vAsymServeReq(int8_t xToServe){
 10003a8:	dc000015 	stw	r16,0(sp)

	altera_avalon_mutex_lock(mutex, 1);
 10003ac:	1002ebc0 	call	1002ebc <altera_avalon_mutex_lock>
	int8_t xItemValue =  xReqQueue->pxItems[ xToServe ].xItemValue;
 10003b0:	8c400104 	addi	r17,r17,4
	altera_avalon_mutex_unlock(mutex);
 10003b4:	d1200e17 	ldw	r4,-32712(gp)
}

void vAsymServeReq(int8_t xToServe){

	altera_avalon_mutex_lock(mutex, 1);
	int8_t xItemValue =  xReqQueue->pxItems[ xToServe ].xItemValue;
 10003b8:	8c000003 	ldbu	r16,0(r17)
	altera_avalon_mutex_unlock(mutex);
 10003bc:	1002f080 	call	1002f08 <altera_avalon_mutex_unlock>

	void * pvData;
	( *pxTasks[ xItemValue ] )( pvData);
 10003c0:	80803fcc 	andi	r2,r16,255
 10003c4:	1080201c 	xori	r2,r2,128
 10003c8:	10bfe004 	addi	r2,r2,-128
 10003cc:	1085883a 	add	r2,r2,r2
 10003d0:	00c04034 	movhi	r3,256
 10003d4:	18ccf404 	addi	r3,r3,13264
 10003d8:	1085883a 	add	r2,r2,r2
 10003dc:	1885883a 	add	r2,r3,r2
 10003e0:	10800017 	ldw	r2,0(r2)
 10003e4:	0009883a 	mov	r4,zero
 10003e8:	103ee83a 	callr	r2

	altera_avalon_mutex_lock(mutex, 1);
 10003ec:	d1200e17 	ldw	r4,-32712(gp)
 10003f0:	980b883a 	mov	r5,r19
 10003f4:	1002ebc0 	call	1002ebc <altera_avalon_mutex_lock>
	xReqQueue->pxItems[ xToServe ].xServed = 1;
 10003f8:	8cc00045 	stb	r19,1(r17)
	xReqQueue->uxNumberOfItems--;
 10003fc:	90800003 	ldbu	r2,0(r18)
	xReqQueue->xToServe = (QUEUE_LENGTH == (xReqQueue->xToServe + 1 ))? 0: xReqQueue->xToServe + 1;
 1000400:	00c003c4 	movi	r3,15
	void * pvData;
	( *pxTasks[ xItemValue ] )( pvData);

	altera_avalon_mutex_lock(mutex, 1);
	xReqQueue->pxItems[ xToServe ].xServed = 1;
	xReqQueue->uxNumberOfItems--;
 1000404:	10bfffc4 	addi	r2,r2,-1
 1000408:	90800005 	stb	r2,0(r18)
	xReqQueue->xToServe = (QUEUE_LENGTH == (xReqQueue->xToServe + 1 ))? 0: xReqQueue->xToServe + 1;
 100040c:	90802143 	ldbu	r2,133(r18)
 1000410:	11003fcc 	andi	r4,r2,255
 1000414:	2100201c 	xori	r4,r4,128
 1000418:	213fe004 	addi	r4,r4,-128
 100041c:	20c00226 	beq	r4,r3,1000428 <vAsymServeReq+0xbc>
 1000420:	14c5883a 	add	r2,r2,r19
 1000424:	00000106 	br	100042c <vAsymServeReq+0xc0>
 1000428:	0005883a 	mov	r2,zero
 100042c:	90802145 	stb	r2,133(r18)
	altera_avalon_mutex_unlock(mutex);
 1000430:	d1200e17 	ldw	r4,-32712(gp)

}
 1000434:	dfc00417 	ldw	ra,16(sp)
 1000438:	dcc00317 	ldw	r19,12(sp)
 100043c:	dc800217 	ldw	r18,8(sp)
 1000440:	dc400117 	ldw	r17,4(sp)
 1000444:	dc000017 	ldw	r16,0(sp)
 1000448:	dec00504 	addi	sp,sp,20

	altera_avalon_mutex_lock(mutex, 1);
	xReqQueue->pxItems[ xToServe ].xServed = 1;
	xReqQueue->uxNumberOfItems--;
	xReqQueue->xToServe = (QUEUE_LENGTH == (xReqQueue->xToServe + 1 ))? 0: xReqQueue->xToServe + 1;
	altera_avalon_mutex_unlock(mutex);
 100044c:	1002f081 	jmpi	1002f08 <altera_avalon_mutex_unlock>

01000450 <vAsymStartScheduler>:

}

void vAsymStartScheduler(){
 1000450:	defffd04 	addi	sp,sp,-12
 1000454:	dc000015 	stw	r16,0(sp)
 1000458:	dfc00215 	stw	ra,8(sp)
 100045c:	dc400115 	stw	r17,4(sp)
	while(1){
		while(xAsymReqQueueNotEmpty() ){
			altera_avalon_mutex_lock(mutex, 1);
			int8_t xToServe = xReqQueue->xToServe;
 1000460:	04200014 	movui	r16,32768

}

void vAsymStartScheduler(){
	while(1){
		while(xAsymReqQueueNotEmpty() ){
 1000464:	10003100 	call	1000310 <xAsymReqQueueNotEmpty>
 1000468:	10803fcc 	andi	r2,r2,255
 100046c:	1080201c 	xori	r2,r2,128
 1000470:	10bfe004 	addi	r2,r2,-128
 1000474:	103ffb26 	beq	r2,zero,1000464 <vAsymStartScheduler+0x14>
			altera_avalon_mutex_lock(mutex, 1);
 1000478:	d1200e17 	ldw	r4,-32712(gp)
 100047c:	01400044 	movi	r5,1
 1000480:	1002ebc0 	call	1002ebc <altera_avalon_mutex_lock>
			int8_t xToServe = xReqQueue->xToServe;
			altera_avalon_mutex_unlock(mutex);
 1000484:	d1200e17 	ldw	r4,-32712(gp)

void vAsymStartScheduler(){
	while(1){
		while(xAsymReqQueueNotEmpty() ){
			altera_avalon_mutex_lock(mutex, 1);
			int8_t xToServe = xReqQueue->xToServe;
 1000488:	84402143 	ldbu	r17,133(r16)
			altera_avalon_mutex_unlock(mutex);
 100048c:	1002f080 	call	1002f08 <altera_avalon_mutex_unlock>
			vAsymServeReq( xToServe );
 1000490:	89003fcc 	andi	r4,r17,255
 1000494:	2100201c 	xori	r4,r4,128
 1000498:	213fe004 	addi	r4,r4,-128
 100049c:	100036c0 	call	100036c <vAsymServeReq>
 10004a0:	003ff006 	br	1000464 <vAsymStartScheduler+0x14>

010004a4 <vListInitialise>:
void vListInitialise( List_t * const pxList )
{
	/* The list structure contains a list item which is used to mark the
	end of the list.  To initialise the list the list end is inserted
	as the only list entry. */
	pxList->pxIndex = ( ListItem_t * ) &( pxList->xListEnd );			/*lint !e826 !e740 The mini list structure is used as the list end to save RAM.  This is checked and valid. */
 10004a4:	20800204 	addi	r2,r4,8

	/* The list end value is the highest possible value in the list to
	ensure it remains at the end of the list. */
	pxList->xListEnd.xItemValue = portMAX_DELAY;
 10004a8:	00ffffc4 	movi	r3,-1
void vListInitialise( List_t * const pxList )
{
	/* The list structure contains a list item which is used to mark the
	end of the list.  To initialise the list the list end is inserted
	as the only list entry. */
	pxList->pxIndex = ( ListItem_t * ) &( pxList->xListEnd );			/*lint !e826 !e740 The mini list structure is used as the list end to save RAM.  This is checked and valid. */
 10004ac:	20800115 	stw	r2,4(r4)

	/* The list end value is the highest possible value in the list to
	ensure it remains at the end of the list. */
	pxList->xListEnd.xItemValue = portMAX_DELAY;
 10004b0:	20c00215 	stw	r3,8(r4)

	/* The list end next and previous pointers point to itself so we know
	when the list is empty. */
	pxList->xListEnd.pxNext = ( ListItem_t * ) &( pxList->xListEnd );	/*lint !e826 !e740 The mini list structure is used as the list end to save RAM.  This is checked and valid. */
 10004b4:	20800315 	stw	r2,12(r4)
	pxList->xListEnd.pxPrevious = ( ListItem_t * ) &( pxList->xListEnd );/*lint !e826 !e740 The mini list structure is used as the list end to save RAM.  This is checked and valid. */
 10004b8:	20800415 	stw	r2,16(r4)

	pxList->uxNumberOfItems = ( UBaseType_t ) 0U;
 10004bc:	20000015 	stw	zero,0(r4)
 10004c0:	f800283a 	ret

010004c4 <vListInitialiseItem>:
/*-----------------------------------------------------------*/

void vListInitialiseItem( ListItem_t * const pxItem )
{
	/* Make sure the list item is not recorded as being on a list. */
	pxItem->pvContainer = NULL;
 10004c4:	20000415 	stw	zero,16(r4)
 10004c8:	f800283a 	ret

010004cc <vListInsertEnd>:
}
/*-----------------------------------------------------------*/

void vListInsertEnd( List_t * const pxList, ListItem_t * const pxNewListItem )
{
ListItem_t * const pxIndex = pxList->pxIndex;
 10004cc:	20800117 	ldw	r2,4(r4)

	/* Insert a new list item into pxList, but rather than sort the list,
	makes the new list item the last item to be removed by a call to
	listGET_OWNER_OF_NEXT_ENTRY(). */
	pxNewListItem->pxNext = pxIndex;
	pxNewListItem->pxPrevious = pxIndex->pxPrevious;
 10004d0:	10c00217 	ldw	r3,8(r2)
	listTEST_LIST_ITEM_INTEGRITY( pxNewListItem );

	/* Insert a new list item into pxList, but rather than sort the list,
	makes the new list item the last item to be removed by a call to
	listGET_OWNER_OF_NEXT_ENTRY(). */
	pxNewListItem->pxNext = pxIndex;
 10004d4:	28800115 	stw	r2,4(r5)
	pxNewListItem->pxPrevious = pxIndex->pxPrevious;
 10004d8:	28c00215 	stw	r3,8(r5)

	/* Only used during decision coverage testing. */
	mtCOVERAGE_TEST_DELAY();

	pxIndex->pxPrevious->pxNext = pxNewListItem;
 10004dc:	10c00217 	ldw	r3,8(r2)
 10004e0:	19400115 	stw	r5,4(r3)
	pxIndex->pxPrevious = pxNewListItem;
 10004e4:	11400215 	stw	r5,8(r2)

	/* Remember which list the item is in. */
	pxNewListItem->pvContainer = ( void * ) pxList;

	( pxList->uxNumberOfItems )++;
 10004e8:	20800017 	ldw	r2,0(r4)

	pxIndex->pxPrevious->pxNext = pxNewListItem;
	pxIndex->pxPrevious = pxNewListItem;

	/* Remember which list the item is in. */
	pxNewListItem->pvContainer = ( void * ) pxList;
 10004ec:	29000415 	stw	r4,16(r5)

	( pxList->uxNumberOfItems )++;
 10004f0:	10800044 	addi	r2,r2,1
 10004f4:	20800015 	stw	r2,0(r4)
 10004f8:	f800283a 	ret

010004fc <vListInsert>:
/*-----------------------------------------------------------*/

void vListInsert( List_t * const pxList, ListItem_t * const pxNewListItem )
{
ListItem_t *pxIterator;
const TickType_t xValueOfInsertion = pxNewListItem->xItemValue;
 10004fc:	28c00017 	ldw	r3,0(r5)
	new list item should be placed after it.  This ensures that TCB's which are
	stored in ready lists (all of which have the same xItemValue value) get a
	share of the CPU.  However, if the xItemValue is the same as the back marker
	the iteration loop below will not end.  Therefore the value is checked
	first, and the algorithm slightly modified if necessary. */
	if( xValueOfInsertion == portMAX_DELAY )
 1000500:	00bfffc4 	movi	r2,-1
 1000504:	1880021e 	bne	r3,r2,1000510 <vListInsert+0x14>
	{
		pxIterator = pxList->xListEnd.pxPrevious;
 1000508:	20800417 	ldw	r2,16(r4)
 100050c:	00000606 	br	1000528 <vListInsert+0x2c>
			4) Using a queue or semaphore before it has been initialised or
			   before the scheduler has been started (are interrupts firing
			   before vTaskStartScheduler() has been called?).
		**********************************************************************/

		for( pxIterator = ( ListItem_t * ) &( pxList->xListEnd ); pxIterator->pxNext->xItemValue <= xValueOfInsertion; pxIterator = pxIterator->pxNext ) /*lint !e826 !e740 The mini list structure is used as the list end to save RAM.  This is checked and valid. */
 1000510:	20800204 	addi	r2,r4,8
 1000514:	11800117 	ldw	r6,4(r2)
 1000518:	31c00017 	ldw	r7,0(r6)
 100051c:	19c00236 	bltu	r3,r7,1000528 <vListInsert+0x2c>
 1000520:	3005883a 	mov	r2,r6
 1000524:	003ffb06 	br	1000514 <vListInsert+0x18>
			/* There is nothing to do here, just iterating to the wanted
			insertion position. */
		}
	}

	pxNewListItem->pxNext = pxIterator->pxNext;
 1000528:	10c00117 	ldw	r3,4(r2)
 100052c:	28c00115 	stw	r3,4(r5)
	pxNewListItem->pxNext->pxPrevious = pxNewListItem;
 1000530:	19400215 	stw	r5,8(r3)
	pxNewListItem->pxPrevious = pxIterator;
 1000534:	28800215 	stw	r2,8(r5)
	pxIterator->pxNext = pxNewListItem;
 1000538:	11400115 	stw	r5,4(r2)

	/* Remember which list the item is in.  This allows fast removal of the
	item later. */
	pxNewListItem->pvContainer = ( void * ) pxList;

	( pxList->uxNumberOfItems )++;
 100053c:	20800017 	ldw	r2,0(r4)
	pxNewListItem->pxPrevious = pxIterator;
	pxIterator->pxNext = pxNewListItem;

	/* Remember which list the item is in.  This allows fast removal of the
	item later. */
	pxNewListItem->pvContainer = ( void * ) pxList;
 1000540:	29000415 	stw	r4,16(r5)

	( pxList->uxNumberOfItems )++;
 1000544:	10800044 	addi	r2,r2,1
 1000548:	20800015 	stw	r2,0(r4)
 100054c:	f800283a 	ret

01000550 <uxListRemove>:
{
/* The list item knows which list it is in.  Obtain the list from the list
item. */
List_t * const pxList = ( List_t * ) pxItemToRemove->pvContainer;

	pxItemToRemove->pxNext->pxPrevious = pxItemToRemove->pxPrevious;
 1000550:	21400117 	ldw	r5,4(r4)
 1000554:	20800217 	ldw	r2,8(r4)

UBaseType_t uxListRemove( ListItem_t * const pxItemToRemove )
{
/* The list item knows which list it is in.  Obtain the list from the list
item. */
List_t * const pxList = ( List_t * ) pxItemToRemove->pvContainer;
 1000558:	20c00417 	ldw	r3,16(r4)

	pxItemToRemove->pxNext->pxPrevious = pxItemToRemove->pxPrevious;
 100055c:	28800215 	stw	r2,8(r5)
	pxItemToRemove->pxPrevious->pxNext = pxItemToRemove->pxNext;
 1000560:	20800217 	ldw	r2,8(r4)
 1000564:	11400115 	stw	r5,4(r2)

	/* Only used during decision coverage testing. */
	mtCOVERAGE_TEST_DELAY();

	/* Make sure the index is left pointing to a valid item. */
	if( pxList->pxIndex == pxItemToRemove )
 1000568:	19400117 	ldw	r5,4(r3)
 100056c:	2900011e 	bne	r5,r4,1000574 <uxListRemove+0x24>
	{
		pxList->pxIndex = pxItemToRemove->pxPrevious;
 1000570:	18800115 	stw	r2,4(r3)
	{
		mtCOVERAGE_TEST_MARKER();
	}

	pxItemToRemove->pvContainer = NULL;
	( pxList->uxNumberOfItems )--;
 1000574:	18800017 	ldw	r2,0(r3)
	else
	{
		mtCOVERAGE_TEST_MARKER();
	}

	pxItemToRemove->pvContainer = NULL;
 1000578:	20000415 	stw	zero,16(r4)
	( pxList->uxNumberOfItems )--;
 100057c:	10bfffc4 	addi	r2,r2,-1
 1000580:	18800015 	stw	r2,0(r3)

	return pxList->uxNumberOfItems;
}
 1000584:	f800283a 	ret

01000588 <vPortSysTickHandler>:
	IOWR_ALTERA_AVALON_TIMER_STATUS( TIMER_1_BASE, ~ALTERA_AVALON_TIMER_STATUS_TO_MSK );
}
/*-----------------------------------------------------------*/

void vPortSysTickHandler( void * context, alt_u32 id )
{
 1000588:	deffff04 	addi	sp,sp,-4
 100058c:	dfc00015 	stw	ra,0(sp)
	/* Increment the kernel tick. */
	if( xTaskIncrementTick() != pdFALSE )
 1000590:	10015b40 	call	10015b4 <xTaskIncrementTick>
 1000594:	10000126 	beq	r2,zero,100059c <vPortSysTickHandler+0x14>
	{
        vTaskSwitchContext();
 1000598:	10017100 	call	1001710 <vTaskSwitchContext>
	}

	/* Clear the interrupt. */
	IOWR_ALTERA_AVALON_TIMER_STATUS( TIMER_1_BASE, ~ALTERA_AVALON_TIMER_STATUS_TO_MSK );
 100059c:	00840004 	movi	r2,4096
 10005a0:	00ffff84 	movi	r3,-2
 10005a4:	10c00035 	stwio	r3,0(r2)
}
 10005a8:	dfc00017 	ldw	ra,0(sp)
 10005ac:	dec00104 	addi	sp,sp,4
 10005b0:	f800283a 	ret

010005b4 <pxPortInitialiseStack>:

/*
 * See header file for description.
 */
StackType_t *pxPortInitialiseStack( StackType_t *pxTopOfStack, TaskFunction_t pxCode, void *pvParameters )
{
 10005b4:	deffff04 	addi	sp,sp,-4

/*-----------------------------------------------------------*/

static void prvReadGp( uint32_t *ulValue )
{
	asm( "stw gp, (%0)" :: "r"(ulValue) );
 10005b8:	de800015 	stw	gp,0(sp)
StackType_t xGlobalPointer;

    prvReadGp( &xGlobalPointer );

    /* End of stack marker. */
    *pxTopOfStack = 0xdeadbeef;
 10005bc:	00b7abb4 	movhi	r2,57006
 10005c0:	10afbbc4 	addi	r2,r2,-16657
 10005c4:	20800015 	stw	r2,0(r4)
/*
 * See header file for description.
 */
StackType_t *pxPortInitialiseStack( StackType_t *pxTopOfStack, TaskFunction_t pxCode, void *pvParameters )
{
StackType_t *pxFramePointer = pxTopOfStack - 1;
 10005c8:	20bfff04 	addi	r2,r4,-4

    /* End of stack marker. */
    *pxTopOfStack = 0xdeadbeef;
    pxTopOfStack--;

    *pxTopOfStack = ( StackType_t ) pxFramePointer;
 10005cc:	20bfff15 	stw	r2,-4(r4)
    pxTopOfStack--;

    *pxTopOfStack = xGlobalPointer;
 10005d0:	d8800017 	ldw	r2,0(sp)

    /* Space for R23 to R16. */
    pxTopOfStack -= 9;

    *pxTopOfStack = ( StackType_t ) pxCode;
 10005d4:	217ff515 	stw	r5,-44(r4)
    *pxTopOfStack = portINITIAL_ESTATUS;

    /* Space for R15 to R5. */
    pxTopOfStack -= 12;

    *pxTopOfStack = ( StackType_t ) pvParameters;
 10005d8:	21bfe815 	stw	r6,-96(r4)
    pxTopOfStack--;

    *pxTopOfStack = ( StackType_t ) pxFramePointer;
    pxTopOfStack--;

    *pxTopOfStack = xGlobalPointer;
 10005dc:	20bffe15 	stw	r2,-8(r4)
    pxTopOfStack -= 9;

    *pxTopOfStack = ( StackType_t ) pxCode;
    pxTopOfStack--;

    *pxTopOfStack = portINITIAL_ESTATUS;
 10005e0:	00800044 	movi	r2,1
 10005e4:	20bff415 	stw	r2,-48(r4)

    /* Space for R3 to R1, muldiv and RA. */
    pxTopOfStack -= 5;

    return pxTopOfStack;
}
 10005e8:	20bfe304 	addi	r2,r4,-116
 10005ec:	dec00104 	addi	sp,sp,4
 10005f0:	f800283a 	ret

010005f4 <vPortEndScheduler>:
	return 0;
}
/*-----------------------------------------------------------*/

void vPortEndScheduler( void )
{
 10005f4:	f800283a 	ret

010005f8 <alt_irq_register>:
int alt_irq_register( alt_u32 id, void* context, void (*handler)(void*, alt_u32) )
{
	int rc = -EINVAL;
	alt_irq_context status;

	if (id < ALT_NIRQ)
 10005f8:	008007c4 	movi	r2,31
 10005fc:	11002236 	bltu	r2,r4,1000688 <alt_irq_register+0x90>
static ALT_INLINE alt_irq_context ALT_ALWAYS_INLINE 
       alt_irq_disable_all (void)
{
  alt_irq_context context;

  NIOS2_READ_STATUS (context);
 1000600:	0005303a 	rdctl	r2,status

  NIOS2_WRITE_STATUS (context & ~NIOS2_STATUS_PIE_MSK);
 1000604:	00ffff84 	movi	r3,-2
 1000608:	10c4703a 	and	r2,r2,r3
 100060c:	1001703a 	wrctl	status,r2
		 * state.
		 */

		status = alt_irq_disable_all ();

		alt_irq[id].handler = handler;
 1000610:	200490fa 	slli	r2,r4,3
 1000614:	01c04034 	movhi	r7,256
 1000618:	39d50c04 	addi	r7,r7,21552
 100061c:	3885883a 	add	r2,r7,r2
		alt_irq[id].context = context;
 1000620:	11400115 	stw	r5,4(r2)
		 * state.
		 */

		status = alt_irq_disable_all ();

		alt_irq[id].handler = handler;
 1000624:	11800015 	stw	r6,0(r2)
 1000628:	01404034 	movhi	r5,256
 100062c:	294cef04 	addi	r5,r5,13244
 1000630:	00800044 	movi	r2,1
		alt_irq[id].context = context;

		rc = (handler) ? alt_irq_enable (id): alt_irq_disable (id);
 1000634:	30000726 	beq	r6,zero,1000654 <alt_irq_register+0x5c>
static ALT_INLINE alt_irq_context ALT_ALWAYS_INLINE 
       alt_irq_disable_all (void)
{
  alt_irq_context context;

  NIOS2_READ_STATUS (context);
 1000638:	000d303a 	rdctl	r6,status

  NIOS2_WRITE_STATUS (context & ~NIOS2_STATUS_PIE_MSK);
 100063c:	30c6703a 	and	r3,r6,r3
 1000640:	1801703a 	wrctl	status,r3
  alt_irq_context  status;
  extern volatile alt_u32 alt_irq_active;

  status = alt_irq_disable_all ();

  alt_irq_active |= (1 << id);
 1000644:	28c00017 	ldw	r3,0(r5)
 1000648:	1104983a 	sll	r2,r2,r4
 100064c:	10c4b03a 	or	r2,r2,r3
 1000650:	00000706 	br	1000670 <alt_irq_register+0x78>
static ALT_INLINE alt_irq_context ALT_ALWAYS_INLINE 
       alt_irq_disable_all (void)
{
  alt_irq_context context;

  NIOS2_READ_STATUS (context);
 1000654:	000d303a 	rdctl	r6,status

  NIOS2_WRITE_STATUS (context & ~NIOS2_STATUS_PIE_MSK);
 1000658:	30c6703a 	and	r3,r6,r3
 100065c:	1801703a 	wrctl	status,r3
  alt_irq_context  status;
  extern volatile alt_u32 alt_irq_active;

  status = alt_irq_disable_all ();

  alt_irq_active &= ~(1 << id);
 1000660:	1104983a 	sll	r2,r2,r4
 1000664:	28c00017 	ldw	r3,0(r5)
 1000668:	0084303a 	nor	r2,zero,r2
 100066c:	10c4703a 	and	r2,r2,r3
 1000670:	28800015 	stw	r2,0(r5)
  NIOS2_WRITE_IENABLE (alt_irq_active);
 1000674:	28800017 	ldw	r2,0(r5)
 1000678:	100170fa 	wrctl	ienable,r2
  status &= ~NIOS2_STATUS_PIE_MSK;
  status |= (context & NIOS2_STATUS_PIE_MSK);
  
  NIOS2_WRITE_STATUS (status);
#else
  NIOS2_WRITE_STATUS (context);
 100067c:	3001703a 	wrctl	status,r6
 1000680:	0005883a 	mov	r2,zero
 1000684:	f800283a 	ret
 * kernel has its scheduler started so that contexts are saved and switched
 * correctly.
 */
int alt_irq_register( alt_u32 id, void* context, void (*handler)(void*, alt_u32) )
{
	int rc = -EINVAL;
 1000688:	00bffa84 	movi	r2,-22

		/* alt_irq_enable_all(status); This line is removed to prevent the interrupt from being immediately enabled. */
	}

	return rc;
}
 100068c:	f800283a 	ret

01000690 <xPortStartScheduler>:
 * frequency.
 */
void prvSetupTimerInterrupt( void )
{
	/* Try to register the interrupt handler. */
	if ( -EINVAL == alt_irq_register( TIMER_1_IRQ, 0x0, vPortSysTickHandler ) )
 1000690:	01804034 	movhi	r6,256

/*
 * See header file for description.
 */
BaseType_t xPortStartScheduler( void )
{
 1000694:	deffff04 	addi	sp,sp,-4
 * frequency.
 */
void prvSetupTimerInterrupt( void )
{
	/* Try to register the interrupt handler. */
	if ( -EINVAL == alt_irq_register( TIMER_1_IRQ, 0x0, vPortSysTickHandler ) )
 1000698:	01000044 	movi	r4,1
 100069c:	000b883a 	mov	r5,zero
 10006a0:	31816204 	addi	r6,r6,1416

/*
 * See header file for description.
 */
BaseType_t xPortStartScheduler( void )
{
 10006a4:	dfc00015 	stw	ra,0(sp)
 * frequency.
 */
void prvSetupTimerInterrupt( void )
{
	/* Try to register the interrupt handler. */
	if ( -EINVAL == alt_irq_register( TIMER_1_IRQ, 0x0, vPortSysTickHandler ) )
 10006a8:	10005f80 	call	10005f8 <alt_irq_register>
 10006ac:	00fffa84 	movi	r3,-22
 10006b0:	10c0021e 	bne	r2,r3,10006bc <xPortStartScheduler+0x2c>
	{
		/* Failed to install the Interrupt Handler. */
		asm( "break" );
 10006b4:	003da03a 	break	0
 10006b8:	00000a06 	br	10006e4 <xPortStartScheduler+0x54>
	}
	else
	{
		/* Configure SysTick to interrupt at the requested rate. */
		IOWR_ALTERA_AVALON_TIMER_CONTROL( TIMER_1_BASE, ALTERA_AVALON_TIMER_CONTROL_STOP_MSK );
 10006bc:	00840104 	movi	r2,4100
 10006c0:	00c00204 	movi	r3,8
 10006c4:	10c00035 	stwio	r3,0(r2)
		IOWR_ALTERA_AVALON_TIMER_PERIODL( TIMER_1_BASE, ( configCPU_CLOCK_HZ / configTICK_RATE_HZ ) & 0xFFFF );
 10006c8:	00c40204 	movi	r3,4104
 10006cc:	0130d414 	movui	r4,50000
 10006d0:	19000035 	stwio	r4,0(r3)
		IOWR_ALTERA_AVALON_TIMER_PERIODH( TIMER_1_BASE, ( configCPU_CLOCK_HZ / configTICK_RATE_HZ ) >> 16 );
 10006d4:	00c40304 	movi	r3,4108
 10006d8:	18000035 	stwio	zero,0(r3)
		IOWR_ALTERA_AVALON_TIMER_CONTROL( TIMER_1_BASE, ALTERA_AVALON_TIMER_CONTROL_CONT_MSK | ALTERA_AVALON_TIMER_CONTROL_START_MSK | ALTERA_AVALON_TIMER_CONTROL_ITO_MSK );
 10006dc:	00c001c4 	movi	r3,7
 10006e0:	10c00035 	stwio	r3,0(r2)
	}

	/* Clear any already pending interrupts generated by the Timer. */
	IOWR_ALTERA_AVALON_TIMER_STATUS( TIMER_1_BASE, ~ALTERA_AVALON_TIMER_STATUS_TO_MSK );
 10006e4:	00840004 	movi	r2,4096
 10006e8:	00ffff84 	movi	r3,-2
 10006ec:	10c00035 	stwio	r3,0(r2)
 10006f0:	00804034 	movhi	r2,256
	/* Start the timer that generates the tick ISR.  Interrupts are disabled
	here already. */
	prvSetupTimerInterrupt();

	/* Start the first task. */
    asm volatile (  " movia r2, restore_sp_from_pxCurrentTCB        \n"
 10006f4:	10803104 	addi	r2,r2,196
 10006f8:	1000683a 	jmp	r2
                    " jmp r2                                          " );

	/* Should not get here! */
	return 0;
}
 10006fc:	0005883a 	mov	r2,zero
 1000700:	dfc00017 	ldw	ra,0(sp)
 1000704:	dec00104 	addi	sp,sp,4
 1000708:	f800283a 	ret

0100070c <pvPortMalloc>:
static size_t xNextFreeByte = ( size_t ) 0;

/*-----------------------------------------------------------*/

void *pvPortMalloc( size_t xWantedSize )
{
 100070c:	defffd04 	addi	sp,sp,-12
 1000710:	dc000015 	stw	r16,0(sp)
 1000714:	dfc00215 	stw	ra,8(sp)
 1000718:	dc400115 	stw	r17,4(sp)
void *pvReturn = NULL;
static uint8_t *pucAlignedHeap = NULL;

	/* Ensure that blocks are always aligned to the required number of bytes. */
	#if portBYTE_ALIGNMENT != 1
		if( xWantedSize & portBYTE_ALIGNMENT_MASK )
 100071c:	208000cc 	andi	r2,r4,3
static size_t xNextFreeByte = ( size_t ) 0;

/*-----------------------------------------------------------*/

void *pvPortMalloc( size_t xWantedSize )
{
 1000720:	2021883a 	mov	r16,r4
void *pvReturn = NULL;
static uint8_t *pucAlignedHeap = NULL;

	/* Ensure that blocks are always aligned to the required number of bytes. */
	#if portBYTE_ALIGNMENT != 1
		if( xWantedSize & portBYTE_ALIGNMENT_MASK )
 1000724:	10000326 	beq	r2,zero,1000734 <pvPortMalloc+0x28>
		{
			/* Byte alignment required. */
			xWantedSize += ( portBYTE_ALIGNMENT - ( xWantedSize & portBYTE_ALIGNMENT_MASK ) );
 1000728:	013fff04 	movi	r4,-4
 100072c:	8120703a 	and	r16,r16,r4
 1000730:	84000104 	addi	r16,r16,4
		}
	#endif

	vTaskSuspendAll();
 1000734:	100158c0 	call	100158c <vTaskSuspendAll>
	{
		if( pucAlignedHeap == NULL )
 1000738:	d0a00f17 	ldw	r2,-32708(gp)
 100073c:	1000051e 	bne	r2,zero,1000754 <pvPortMalloc+0x48>
		{
			/* Ensure the heap starts on a correctly aligned boundary. */
			pucAlignedHeap = ( uint8_t * ) ( ( ( portPOINTER_SIZE_TYPE ) &ucHeap[ portBYTE_ALIGNMENT ] ) & ( ~( ( portPOINTER_SIZE_TYPE ) portBYTE_ALIGNMENT_MASK ) ) );
 1000740:	00c04034 	movhi	r3,256
 1000744:	00bfff04 	movi	r2,-4
 1000748:	18cd0504 	addi	r3,r3,13332
 100074c:	1884703a 	and	r2,r3,r2
 1000750:	d0a00f15 	stw	r2,-32708(gp)
		}

		/* Check there is enough room left for the allocation. */
		if( ( ( xNextFreeByte + xWantedSize ) < configADJUSTED_HEAP_SIZE ) &&
 1000754:	d0a01017 	ldw	r2,-32704(gp)
 1000758:	00c7d4c4 	movi	r3,8019
 100075c:	80a1883a 	add	r16,r16,r2
 1000760:	1c000536 	bltu	r3,r16,1000778 <pvPortMalloc+0x6c>
 1000764:	1400042e 	bgeu	r2,r16,1000778 <pvPortMalloc+0x6c>
			( ( xNextFreeByte + xWantedSize ) > xNextFreeByte )	)/* Check for overflow. */
		{
			/* Return the next free byte then increment the index past this
			block. */
			pvReturn = pucAlignedHeap + xNextFreeByte;
 1000768:	d4600f17 	ldw	r17,-32708(gp)
			xNextFreeByte += xWantedSize;
 100076c:	d4201015 	stw	r16,-32704(gp)
		if( ( ( xNextFreeByte + xWantedSize ) < configADJUSTED_HEAP_SIZE ) &&
			( ( xNextFreeByte + xWantedSize ) > xNextFreeByte )	)/* Check for overflow. */
		{
			/* Return the next free byte then increment the index past this
			block. */
			pvReturn = pucAlignedHeap + xNextFreeByte;
 1000770:	88a3883a 	add	r17,r17,r2
 1000774:	00000106 	br	100077c <pvPortMalloc+0x70>

/*-----------------------------------------------------------*/

void *pvPortMalloc( size_t xWantedSize )
{
void *pvReturn = NULL;
 1000778:	0023883a 	mov	r17,zero
			xNextFreeByte += xWantedSize;
		}

		traceMALLOC( pvReturn, xWantedSize );
	}
	( void ) xTaskResumeAll();
 100077c:	10022740 	call	1002274 <xTaskResumeAll>
		}
	}
	#endif

	return pvReturn;
}
 1000780:	8805883a 	mov	r2,r17
 1000784:	dfc00217 	ldw	ra,8(sp)
 1000788:	dc400117 	ldw	r17,4(sp)
 100078c:	dc000017 	ldw	r16,0(sp)
 1000790:	dec00304 	addi	sp,sp,12
 1000794:	f800283a 	ret

01000798 <vPortFree>:
/*-----------------------------------------------------------*/

void vPortFree( void *pv )
{
 1000798:	f800283a 	ret

0100079c <vPortInitialiseBlocks>:
/*-----------------------------------------------------------*/

void vPortInitialiseBlocks( void )
{
	/* Only required when static memory is not cleared. */
	xNextFreeByte = ( size_t ) 0;
 100079c:	d0201015 	stw	zero,-32704(gp)
 10007a0:	f800283a 	ret

010007a4 <xPortGetFreeHeapSize>:
/*-----------------------------------------------------------*/

size_t xPortGetFreeHeapSize( void )
{
	return ( configADJUSTED_HEAP_SIZE - xNextFreeByte );
}
 10007a4:	d0a01017 	ldw	r2,-32704(gp)
 10007a8:	00c7d504 	movi	r3,8020
 10007ac:	1885c83a 	sub	r2,r3,r2
 10007b0:	f800283a 	ret

010007b4 <prvCopyDataToQueue>:

#endif /* configUSE_TRACE_FACILITY */
/*-----------------------------------------------------------*/

static BaseType_t prvCopyDataToQueue( Queue_t * const pxQueue, const void *pvItemToQueue, const BaseType_t xPosition )
{
 10007b4:	defffd04 	addi	sp,sp,-12
 10007b8:	dc400115 	stw	r17,4(sp)
 10007bc:	3023883a 	mov	r17,r6
BaseType_t xReturn = pdFALSE;

	if( pxQueue->uxItemSize == ( UBaseType_t ) 0 )
 10007c0:	21801017 	ldw	r6,64(r4)

#endif /* configUSE_TRACE_FACILITY */
/*-----------------------------------------------------------*/

static BaseType_t prvCopyDataToQueue( Queue_t * const pxQueue, const void *pvItemToQueue, const BaseType_t xPosition )
{
 10007c4:	dc000015 	stw	r16,0(sp)
 10007c8:	dfc00215 	stw	ra,8(sp)
 10007cc:	2021883a 	mov	r16,r4
BaseType_t xReturn = pdFALSE;

	if( pxQueue->uxItemSize == ( UBaseType_t ) 0 )
 10007d0:	3000061e 	bne	r6,zero,10007ec <prvCopyDataToQueue+0x38>
	{
		#if ( configUSE_MUTEXES == 1 )
		{
			if( pxQueue->uxQueueType == queueQUEUE_IS_MUTEX )
 10007d4:	20800017 	ldw	r2,0(r4)
 10007d8:	1000231e 	bne	r2,zero,1000868 <prvCopyDataToQueue+0xb4>
			{
				/* The mutex is no longer being held. */
				xReturn = xTaskPriorityDisinherit( ( void * ) pxQueue->pxMutexHolder );
 10007dc:	21000117 	ldw	r4,4(r4)
 10007e0:	1001b1c0 	call	1001b1c <xTaskPriorityDisinherit>
				pxQueue->pxMutexHolder = NULL;
 10007e4:	80000115 	stw	zero,4(r16)
 10007e8:	00002006 	br	100086c <prvCopyDataToQueue+0xb8>
				mtCOVERAGE_TEST_MARKER();
			}
		}
		#endif /* configUSE_MUTEXES */
	}
	else if( xPosition == queueSEND_TO_BACK )
 10007ec:	88000b1e 	bne	r17,zero,100081c <prvCopyDataToQueue+0x68>
	{
		( void ) memcpy( ( void * ) pxQueue->pcWriteTo, pvItemToQueue, ( size_t ) pxQueue->uxItemSize ); /*lint !e961 !e418 MISRA exception as the casts are only redundant for some ports, plus previous logic ensures a null pointer can only be passed to memcpy() if the copy size is 0. */
 10007f0:	21000217 	ldw	r4,8(r4)
 10007f4:	1002a9c0 	call	1002a9c <memcpy>
		pxQueue->pcWriteTo += pxQueue->uxItemSize;
 10007f8:	80c00217 	ldw	r3,8(r16)
 10007fc:	80801017 	ldw	r2,64(r16)
 1000800:	1885883a 	add	r2,r3,r2
		if( pxQueue->pcWriteTo >= pxQueue->pcTail ) /*lint !e946 MISRA exception justified as comparison of pointers is the cleanest solution. */
 1000804:	80c00117 	ldw	r3,4(r16)
		#endif /* configUSE_MUTEXES */
	}
	else if( xPosition == queueSEND_TO_BACK )
	{
		( void ) memcpy( ( void * ) pxQueue->pcWriteTo, pvItemToQueue, ( size_t ) pxQueue->uxItemSize ); /*lint !e961 !e418 MISRA exception as the casts are only redundant for some ports, plus previous logic ensures a null pointer can only be passed to memcpy() if the copy size is 0. */
		pxQueue->pcWriteTo += pxQueue->uxItemSize;
 1000808:	80800215 	stw	r2,8(r16)
		if( pxQueue->pcWriteTo >= pxQueue->pcTail ) /*lint !e946 MISRA exception justified as comparison of pointers is the cleanest solution. */
 100080c:	10c01636 	bltu	r2,r3,1000868 <prvCopyDataToQueue+0xb4>
		{
			pxQueue->pcWriteTo = pxQueue->pcHead;
 1000810:	80800017 	ldw	r2,0(r16)
 1000814:	80800215 	stw	r2,8(r16)
 1000818:	00001306 	br	1000868 <prvCopyDataToQueue+0xb4>
			mtCOVERAGE_TEST_MARKER();
		}
	}
	else
	{
		( void ) memcpy( ( void * ) pxQueue->u.pcReadFrom, pvItemToQueue, ( size_t ) pxQueue->uxItemSize ); /*lint !e961 MISRA exception as the casts are only redundant for some ports. */
 100081c:	21000317 	ldw	r4,12(r4)
 1000820:	1002a9c0 	call	1002a9c <memcpy>
		pxQueue->u.pcReadFrom -= pxQueue->uxItemSize;
 1000824:	80801017 	ldw	r2,64(r16)
 1000828:	80c00317 	ldw	r3,12(r16)
		if( pxQueue->u.pcReadFrom < pxQueue->pcHead ) /*lint !e946 MISRA exception justified as comparison of pointers is the cleanest solution. */
 100082c:	81000017 	ldw	r4,0(r16)
		}
	}
	else
	{
		( void ) memcpy( ( void * ) pxQueue->u.pcReadFrom, pvItemToQueue, ( size_t ) pxQueue->uxItemSize ); /*lint !e961 MISRA exception as the casts are only redundant for some ports. */
		pxQueue->u.pcReadFrom -= pxQueue->uxItemSize;
 1000830:	0085c83a 	sub	r2,zero,r2
 1000834:	1887883a 	add	r3,r3,r2
 1000838:	80c00315 	stw	r3,12(r16)
		if( pxQueue->u.pcReadFrom < pxQueue->pcHead ) /*lint !e946 MISRA exception justified as comparison of pointers is the cleanest solution. */
 100083c:	1900032e 	bgeu	r3,r4,100084c <prvCopyDataToQueue+0x98>
		{
			pxQueue->u.pcReadFrom = ( pxQueue->pcTail - pxQueue->uxItemSize );
 1000840:	80c00117 	ldw	r3,4(r16)
 1000844:	1885883a 	add	r2,r3,r2
 1000848:	80800315 	stw	r2,12(r16)
		else
		{
			mtCOVERAGE_TEST_MARKER();
		}

		if( xPosition == queueOVERWRITE )
 100084c:	00800084 	movi	r2,2
 1000850:	8880051e 	bne	r17,r2,1000868 <prvCopyDataToQueue+0xb4>
		{
			if( pxQueue->uxMessagesWaiting > ( UBaseType_t ) 0 )
 1000854:	80800e17 	ldw	r2,56(r16)
 1000858:	10000326 	beq	r2,zero,1000868 <prvCopyDataToQueue+0xb4>
			{
				/* An item is not being added but overwritten, so subtract
				one from the recorded number of items in the queue so when
				one is added again below the number of recorded items remains
				correct. */
				--( pxQueue->uxMessagesWaiting );
 100085c:	80800e17 	ldw	r2,56(r16)
 1000860:	10bfffc4 	addi	r2,r2,-1
 1000864:	80800e15 	stw	r2,56(r16)
#endif /* configUSE_TRACE_FACILITY */
/*-----------------------------------------------------------*/

static BaseType_t prvCopyDataToQueue( Queue_t * const pxQueue, const void *pvItemToQueue, const BaseType_t xPosition )
{
BaseType_t xReturn = pdFALSE;
 1000868:	0005883a 	mov	r2,zero
		{
			mtCOVERAGE_TEST_MARKER();
		}
	}

	++( pxQueue->uxMessagesWaiting );
 100086c:	80c00e17 	ldw	r3,56(r16)
 1000870:	18c00044 	addi	r3,r3,1
 1000874:	80c00e15 	stw	r3,56(r16)

	return xReturn;
}
 1000878:	dfc00217 	ldw	ra,8(sp)
 100087c:	dc400117 	ldw	r17,4(sp)
 1000880:	dc000017 	ldw	r16,0(sp)
 1000884:	dec00304 	addi	sp,sp,12
 1000888:	f800283a 	ret

0100088c <prvCopyDataFromQueue>:
/*-----------------------------------------------------------*/

static void prvCopyDataFromQueue( Queue_t * const pxQueue, void * const pvBuffer )
{
 100088c:	2005883a 	mov	r2,r4
	if( pxQueue->uxItemSize != ( UBaseType_t ) 0 )
 1000890:	11801017 	ldw	r6,64(r2)
	return xReturn;
}
/*-----------------------------------------------------------*/

static void prvCopyDataFromQueue( Queue_t * const pxQueue, void * const pvBuffer )
{
 1000894:	2809883a 	mov	r4,r5
	if( pxQueue->uxItemSize != ( UBaseType_t ) 0 )
 1000898:	30000926 	beq	r6,zero,10008c0 <prvCopyDataFromQueue+0x34>
	{
		pxQueue->u.pcReadFrom += pxQueue->uxItemSize;
 100089c:	10c00317 	ldw	r3,12(r2)
		if( pxQueue->u.pcReadFrom >= pxQueue->pcTail ) /*lint !e946 MISRA exception justified as use of the relational operator is the cleanest solutions. */
 10008a0:	11400117 	ldw	r5,4(r2)

static void prvCopyDataFromQueue( Queue_t * const pxQueue, void * const pvBuffer )
{
	if( pxQueue->uxItemSize != ( UBaseType_t ) 0 )
	{
		pxQueue->u.pcReadFrom += pxQueue->uxItemSize;
 10008a4:	1987883a 	add	r3,r3,r6
 10008a8:	10c00315 	stw	r3,12(r2)
		if( pxQueue->u.pcReadFrom >= pxQueue->pcTail ) /*lint !e946 MISRA exception justified as use of the relational operator is the cleanest solutions. */
 10008ac:	19400236 	bltu	r3,r5,10008b8 <prvCopyDataFromQueue+0x2c>
		{
			pxQueue->u.pcReadFrom = pxQueue->pcHead;
 10008b0:	10c00017 	ldw	r3,0(r2)
 10008b4:	10c00315 	stw	r3,12(r2)
		}
		else
		{
			mtCOVERAGE_TEST_MARKER();
		}
		( void ) memcpy( ( void * ) pvBuffer, ( void * ) pxQueue->u.pcReadFrom, ( size_t ) pxQueue->uxItemSize ); /*lint !e961 !e418 MISRA exception as the casts are only redundant for some ports.  Also previous logic ensures a null pointer can only be passed to memcpy() when the count is 0. */
 10008b8:	11400317 	ldw	r5,12(r2)
 10008bc:	1002a9c1 	jmpi	1002a9c <memcpy>
 10008c0:	f800283a 	ret

010008c4 <prvUnlockQueue>:
	}
}
/*-----------------------------------------------------------*/

static void prvUnlockQueue( Queue_t * const pxQueue )
{
 10008c4:	defffd04 	addi	sp,sp,-12
 10008c8:	dc000015 	stw	r16,0(sp)
 10008cc:	2021883a 	mov	r16,r4
 10008d0:	dc400115 	stw	r17,4(sp)
 10008d4:	dfc00215 	stw	ra,8(sp)
			{
				/* Tasks that are removed from the event list will get added to
				the pending ready list as the scheduler is still suspended. */
				if( listLIST_IS_EMPTY( &( pxQueue->xTasksWaitingToReceive ) ) == pdFALSE )
				{
					if( xTaskRemoveFromEventList( &( pxQueue->xTasksWaitingToReceive ) ) != pdFALSE )
 10008d8:	84400904 	addi	r17,r16,36

	/* The lock counts contains the number of extra data items placed or
	removed from the queue while the queue was locked.  When a queue is
	locked items can be added or removed, but the event lists cannot be
	updated. */
	taskENTER_CRITICAL();
 10008dc:	1001bb80 	call	1001bb8 <vTaskEnterCritical>
	{
		/* See if data was added to the queue while it was locked. */
		while( pxQueue->xTxLock > queueLOCKED_UNMODIFIED )
 10008e0:	80801217 	ldw	r2,72(r16)
 10008e4:	00800a0e 	bge	zero,r2,1000910 <prvUnlockQueue+0x4c>
			}
			#else /* configUSE_QUEUE_SETS */
			{
				/* Tasks that are removed from the event list will get added to
				the pending ready list as the scheduler is still suspended. */
				if( listLIST_IS_EMPTY( &( pxQueue->xTasksWaitingToReceive ) ) == pdFALSE )
 10008e8:	80800917 	ldw	r2,36(r16)
 10008ec:	10000826 	beq	r2,zero,1000910 <prvUnlockQueue+0x4c>
				{
					if( xTaskRemoveFromEventList( &( pxQueue->xTasksWaitingToReceive ) ) != pdFALSE )
 10008f0:	8809883a 	mov	r4,r17
 10008f4:	10018b40 	call	10018b4 <xTaskRemoveFromEventList>
 10008f8:	10000126 	beq	r2,zero,1000900 <prvUnlockQueue+0x3c>
					{
						/* The task waiting has a higher priority so record that a
						context	switch is required. */
						vTaskMissedYield();
 10008fc:	10019f80 	call	10019f8 <vTaskMissedYield>
					break;
				}
			}
			#endif /* configUSE_QUEUE_SETS */

			--( pxQueue->xTxLock );
 1000900:	80801217 	ldw	r2,72(r16)
 1000904:	10bfffc4 	addi	r2,r2,-1
 1000908:	80801215 	stw	r2,72(r16)
 100090c:	003ff406 	br	10008e0 <prvUnlockQueue+0x1c>
		}

		pxQueue->xTxLock = queueUNLOCKED;
 1000910:	00bfffc4 	movi	r2,-1
 1000914:	80801215 	stw	r2,72(r16)
	}
	taskEXIT_CRITICAL();
 1000918:	1001be80 	call	1001be8 <vTaskExitCritical>
	{
		while( pxQueue->xRxLock > queueLOCKED_UNMODIFIED )
		{
			if( listLIST_IS_EMPTY( &( pxQueue->xTasksWaitingToSend ) ) == pdFALSE )
			{
				if( xTaskRemoveFromEventList( &( pxQueue->xTasksWaitingToSend ) ) != pdFALSE )
 100091c:	84400404 	addi	r17,r16,16
		pxQueue->xTxLock = queueUNLOCKED;
	}
	taskEXIT_CRITICAL();

	/* Do the same for the Rx lock. */
	taskENTER_CRITICAL();
 1000920:	1001bb80 	call	1001bb8 <vTaskEnterCritical>
	{
		while( pxQueue->xRxLock > queueLOCKED_UNMODIFIED )
 1000924:	80801117 	ldw	r2,68(r16)
 1000928:	00800a0e 	bge	zero,r2,1000954 <prvUnlockQueue+0x90>
		{
			if( listLIST_IS_EMPTY( &( pxQueue->xTasksWaitingToSend ) ) == pdFALSE )
 100092c:	80800417 	ldw	r2,16(r16)
 1000930:	10000826 	beq	r2,zero,1000954 <prvUnlockQueue+0x90>
			{
				if( xTaskRemoveFromEventList( &( pxQueue->xTasksWaitingToSend ) ) != pdFALSE )
 1000934:	8809883a 	mov	r4,r17
 1000938:	10018b40 	call	10018b4 <xTaskRemoveFromEventList>
 100093c:	10000126 	beq	r2,zero,1000944 <prvUnlockQueue+0x80>
				{
					vTaskMissedYield();
 1000940:	10019f80 	call	10019f8 <vTaskMissedYield>
				else
				{
					mtCOVERAGE_TEST_MARKER();
				}

				--( pxQueue->xRxLock );
 1000944:	80801117 	ldw	r2,68(r16)
 1000948:	10bfffc4 	addi	r2,r2,-1
 100094c:	80801115 	stw	r2,68(r16)
 1000950:	003ff406 	br	1000924 <prvUnlockQueue+0x60>
			{
				break;
			}
		}

		pxQueue->xRxLock = queueUNLOCKED;
 1000954:	00bfffc4 	movi	r2,-1
 1000958:	80801115 	stw	r2,68(r16)
	}
	taskEXIT_CRITICAL();
}
 100095c:	dfc00217 	ldw	ra,8(sp)
 1000960:	dc400117 	ldw	r17,4(sp)
 1000964:	dc000017 	ldw	r16,0(sp)
 1000968:	dec00304 	addi	sp,sp,12
			}
		}

		pxQueue->xRxLock = queueUNLOCKED;
	}
	taskEXIT_CRITICAL();
 100096c:	1001be81 	jmpi	1001be8 <vTaskExitCritical>

01000970 <xQueueGenericReset>:
	}														\
	taskEXIT_CRITICAL()
/*-----------------------------------------------------------*/

BaseType_t xQueueGenericReset( QueueHandle_t xQueue, BaseType_t xNewQueue )
{
 1000970:	defffb04 	addi	sp,sp,-20
 1000974:	dc000015 	stw	r16,0(sp)
 1000978:	2021883a 	mov	r16,r4
 100097c:	dfc00415 	stw	ra,16(sp)
 1000980:	dcc00315 	stw	r19,12(sp)
 1000984:	dc800215 	stw	r18,8(sp)
 1000988:	dc400115 	stw	r17,4(sp)
 100098c:	2827883a 	mov	r19,r5
Queue_t * const pxQueue = ( Queue_t * ) xQueue;

	configASSERT( pxQueue );

	taskENTER_CRITICAL();
 1000990:	1001bb80 	call	1001bb8 <vTaskEnterCritical>
	{
		pxQueue->pcTail = pxQueue->pcHead + ( pxQueue->uxLength * pxQueue->uxItemSize );
 1000994:	84801017 	ldw	r18,64(r16)
 1000998:	81400f17 	ldw	r5,60(r16)
 100099c:	84400017 	ldw	r17,0(r16)
 10009a0:	9009883a 	mov	r4,r18
 10009a4:	1002a740 	call	1002a74 <__mulsi3>
 10009a8:	8887883a 	add	r3,r17,r2
		pxQueue->uxMessagesWaiting = ( UBaseType_t ) 0U;
		pxQueue->pcWriteTo = pxQueue->pcHead;
		pxQueue->u.pcReadFrom = pxQueue->pcHead + ( ( pxQueue->uxLength - ( UBaseType_t ) 1U ) * pxQueue->uxItemSize );
 10009ac:	1485c83a 	sub	r2,r2,r18
 10009b0:	8885883a 	add	r2,r17,r2
	configASSERT( pxQueue );

	taskENTER_CRITICAL();
	{
		pxQueue->pcTail = pxQueue->pcHead + ( pxQueue->uxLength * pxQueue->uxItemSize );
		pxQueue->uxMessagesWaiting = ( UBaseType_t ) 0U;
 10009b4:	80000e15 	stw	zero,56(r16)
		pxQueue->pcWriteTo = pxQueue->pcHead;
		pxQueue->u.pcReadFrom = pxQueue->pcHead + ( ( pxQueue->uxLength - ( UBaseType_t ) 1U ) * pxQueue->uxItemSize );
 10009b8:	80800315 	stw	r2,12(r16)
		pxQueue->xRxLock = queueUNLOCKED;
 10009bc:	00bfffc4 	movi	r2,-1
 10009c0:	80801115 	stw	r2,68(r16)

	configASSERT( pxQueue );

	taskENTER_CRITICAL();
	{
		pxQueue->pcTail = pxQueue->pcHead + ( pxQueue->uxLength * pxQueue->uxItemSize );
 10009c4:	80c00115 	stw	r3,4(r16)
		pxQueue->uxMessagesWaiting = ( UBaseType_t ) 0U;
		pxQueue->pcWriteTo = pxQueue->pcHead;
 10009c8:	84400215 	stw	r17,8(r16)
		pxQueue->u.pcReadFrom = pxQueue->pcHead + ( ( pxQueue->uxLength - ( UBaseType_t ) 1U ) * pxQueue->uxItemSize );
		pxQueue->xRxLock = queueUNLOCKED;
		pxQueue->xTxLock = queueUNLOCKED;
 10009cc:	80801215 	stw	r2,72(r16)

		if( xNewQueue == pdFALSE )
 10009d0:	9800081e 	bne	r19,zero,10009f4 <xQueueGenericReset+0x84>
			/* If there are tasks blocked waiting to read from the queue, then
			the tasks will remain blocked as after this function exits the queue
			will still be empty.  If there are tasks blocked waiting to write to
			the queue, then one should be unblocked as after this function exits
			it will be possible to write to it. */
			if( listLIST_IS_EMPTY( &( pxQueue->xTasksWaitingToSend ) ) == pdFALSE )
 10009d4:	80800417 	ldw	r2,16(r16)
 10009d8:	10000a26 	beq	r2,zero,1000a04 <xQueueGenericReset+0x94>
			{
				if( xTaskRemoveFromEventList( &( pxQueue->xTasksWaitingToSend ) ) == pdTRUE )
 10009dc:	81000404 	addi	r4,r16,16
 10009e0:	10018b40 	call	10018b4 <xTaskRemoveFromEventList>
 10009e4:	00c00044 	movi	r3,1
 10009e8:	10c0061e 	bne	r2,r3,1000a04 <xQueueGenericReset+0x94>
				{
					queueYIELD_IF_USING_PREEMPTION();
 10009ec:	003b683a 	trap	0
 10009f0:	00000406 	br	1000a04 <xQueueGenericReset+0x94>
			}
		}
		else
		{
			/* Ensure the event queues start in the correct state. */
			vListInitialise( &( pxQueue->xTasksWaitingToSend ) );
 10009f4:	81000404 	addi	r4,r16,16
 10009f8:	10004a40 	call	10004a4 <vListInitialise>
			vListInitialise( &( pxQueue->xTasksWaitingToReceive ) );
 10009fc:	81000904 	addi	r4,r16,36
 1000a00:	10004a40 	call	10004a4 <vListInitialise>
		}
	}
	taskEXIT_CRITICAL();
 1000a04:	1001be80 	call	1001be8 <vTaskExitCritical>

	/* A value is returned for calling semantic consistency with previous
	versions. */
	return pdPASS;
}
 1000a08:	00800044 	movi	r2,1
 1000a0c:	dfc00417 	ldw	ra,16(sp)
 1000a10:	dcc00317 	ldw	r19,12(sp)
 1000a14:	dc800217 	ldw	r18,8(sp)
 1000a18:	dc400117 	ldw	r17,4(sp)
 1000a1c:	dc000017 	ldw	r16,0(sp)
 1000a20:	dec00504 	addi	sp,sp,20
 1000a24:	f800283a 	ret

01000a28 <xQueueGenericCreate>:
/*-----------------------------------------------------------*/

QueueHandle_t xQueueGenericCreate( const UBaseType_t uxQueueLength, const UBaseType_t uxItemSize, const uint8_t ucQueueType )
{
 1000a28:	defffc04 	addi	sp,sp,-16
 1000a2c:	dc800215 	stw	r18,8(sp)
 1000a30:	dc400115 	stw	r17,4(sp)
 1000a34:	dfc00315 	stw	ra,12(sp)
 1000a38:	dc000015 	stw	r16,0(sp)
 1000a3c:	2025883a 	mov	r18,r4
 1000a40:	2823883a 	mov	r17,r5
	configUSE_TRACE_FACILITY not be set to 1. */
	( void ) ucQueueType;

	configASSERT( uxQueueLength > ( UBaseType_t ) 0 );

	if( uxItemSize == ( UBaseType_t ) 0 )
 1000a44:	28000526 	beq	r5,zero,1000a5c <xQueueGenericCreate+0x34>
	}
	else
	{
		/* The queue is one byte longer than asked for to make wrap checking
		easier/faster. */
		xQueueSizeInBytes = ( size_t ) ( uxQueueLength * uxItemSize ) + ( size_t ) 1; /*lint !e961 MISRA exception as the casts are only redundant for some ports. */
 1000a48:	2809883a 	mov	r4,r5
 1000a4c:	900b883a 	mov	r5,r18
 1000a50:	1002a740 	call	1002a74 <__mulsi3>
 1000a54:	10800044 	addi	r2,r2,1
 1000a58:	00000106 	br	1000a60 <xQueueGenericCreate+0x38>
	configASSERT( uxQueueLength > ( UBaseType_t ) 0 );

	if( uxItemSize == ( UBaseType_t ) 0 )
	{
		/* There is not going to be a queue storage area. */
		xQueueSizeInBytes = ( size_t ) 0;
 1000a5c:	0005883a 	mov	r2,zero
		easier/faster. */
		xQueueSizeInBytes = ( size_t ) ( uxQueueLength * uxItemSize ) + ( size_t ) 1; /*lint !e961 MISRA exception as the casts are only redundant for some ports. */
	}

	/* Allocate the new queue structure and storage area. */
	pxNewQueue = ( Queue_t * ) pvPortMalloc( sizeof( Queue_t ) + xQueueSizeInBytes );
 1000a60:	11001304 	addi	r4,r2,76
 1000a64:	100070c0 	call	100070c <pvPortMalloc>
 1000a68:	1021883a 	mov	r16,r2

	if( pxNewQueue != NULL )
 1000a6c:	10000a26 	beq	r2,zero,1000a98 <xQueueGenericCreate+0x70>
	{
		if( uxItemSize == ( UBaseType_t ) 0 )
 1000a70:	8800021e 	bne	r17,zero,1000a7c <xQueueGenericCreate+0x54>
		{
			/* No RAM was allocated for the queue storage area, but PC head
			cannot be set to NULL because NULL is used as a key to say the queue
			is used as a mutex.  Therefore just set pcHead to point to the queue
			as a benign value that is known to be within the memory map. */
			pxNewQueue->pcHead = ( int8_t * ) pxNewQueue;
 1000a74:	80800015 	stw	r2,0(r16)
 1000a78:	00000206 	br	1000a84 <xQueueGenericCreate+0x5c>
		}
		else
		{
			/* Jump past the queue structure to find the location of the queue
			storage area. */
			pxNewQueue->pcHead = ( ( int8_t * ) pxNewQueue ) + sizeof( Queue_t );
 1000a7c:	10801304 	addi	r2,r2,76
 1000a80:	80800015 	stw	r2,0(r16)
		}

		/* Initialise the queue members as described above where the queue type
		is defined. */
		pxNewQueue->uxLength = uxQueueLength;
 1000a84:	84800f15 	stw	r18,60(r16)
		pxNewQueue->uxItemSize = uxItemSize;
 1000a88:	84401015 	stw	r17,64(r16)
		( void ) xQueueGenericReset( pxNewQueue, pdTRUE );
 1000a8c:	8009883a 	mov	r4,r16
 1000a90:	01400044 	movi	r5,1
 1000a94:	10009700 	call	1000970 <xQueueGenericReset>
	}

	configASSERT( xReturn );

	return xReturn;
}
 1000a98:	8005883a 	mov	r2,r16
 1000a9c:	dfc00317 	ldw	ra,12(sp)
 1000aa0:	dc800217 	ldw	r18,8(sp)
 1000aa4:	dc400117 	ldw	r17,4(sp)
 1000aa8:	dc000017 	ldw	r16,0(sp)
 1000aac:	dec00404 	addi	sp,sp,16
 1000ab0:	f800283a 	ret

01000ab4 <xQueueCreateCountingSemaphore>:
/*-----------------------------------------------------------*/

#if ( configUSE_COUNTING_SEMAPHORES == 1 )

	QueueHandle_t xQueueCreateCountingSemaphore( const UBaseType_t uxMaxCount, const UBaseType_t uxInitialCount )
	{
 1000ab4:	defffe04 	addi	sp,sp,-8
 1000ab8:	dc000015 	stw	r16,0(sp)
	QueueHandle_t xHandle;

		configASSERT( uxMaxCount != 0 );
		configASSERT( uxInitialCount <= uxMaxCount );

		xHandle = xQueueGenericCreate( uxMaxCount, queueSEMAPHORE_QUEUE_ITEM_LENGTH, queueQUEUE_TYPE_COUNTING_SEMAPHORE );
 1000abc:	01800084 	movi	r6,2
/*-----------------------------------------------------------*/

#if ( configUSE_COUNTING_SEMAPHORES == 1 )

	QueueHandle_t xQueueCreateCountingSemaphore( const UBaseType_t uxMaxCount, const UBaseType_t uxInitialCount )
	{
 1000ac0:	2821883a 	mov	r16,r5
	QueueHandle_t xHandle;

		configASSERT( uxMaxCount != 0 );
		configASSERT( uxInitialCount <= uxMaxCount );

		xHandle = xQueueGenericCreate( uxMaxCount, queueSEMAPHORE_QUEUE_ITEM_LENGTH, queueQUEUE_TYPE_COUNTING_SEMAPHORE );
 1000ac4:	000b883a 	mov	r5,zero
/*-----------------------------------------------------------*/

#if ( configUSE_COUNTING_SEMAPHORES == 1 )

	QueueHandle_t xQueueCreateCountingSemaphore( const UBaseType_t uxMaxCount, const UBaseType_t uxInitialCount )
	{
 1000ac8:	dfc00115 	stw	ra,4(sp)
	QueueHandle_t xHandle;

		configASSERT( uxMaxCount != 0 );
		configASSERT( uxInitialCount <= uxMaxCount );

		xHandle = xQueueGenericCreate( uxMaxCount, queueSEMAPHORE_QUEUE_ITEM_LENGTH, queueQUEUE_TYPE_COUNTING_SEMAPHORE );
 1000acc:	1000a280 	call	1000a28 <xQueueGenericCreate>

		if( xHandle != NULL )
 1000ad0:	10000126 	beq	r2,zero,1000ad8 <xQueueCreateCountingSemaphore+0x24>
		{
			( ( Queue_t * ) xHandle )->uxMessagesWaiting = uxInitialCount;
 1000ad4:	14000e15 	stw	r16,56(r2)
			traceCREATE_COUNTING_SEMAPHORE_FAILED();
		}

		configASSERT( xHandle );
		return xHandle;
	}
 1000ad8:	dfc00117 	ldw	ra,4(sp)
 1000adc:	dc000017 	ldw	r16,0(sp)
 1000ae0:	dec00204 	addi	sp,sp,8
 1000ae4:	f800283a 	ret

01000ae8 <xQueueGenericSend>:

#endif /* configUSE_COUNTING_SEMAPHORES */
/*-----------------------------------------------------------*/

BaseType_t xQueueGenericSend( QueueHandle_t xQueue, const void * const pvItemToQueue, TickType_t xTicksToWait, const BaseType_t xCopyPosition )
{
 1000ae8:	defff404 	addi	sp,sp,-48
 1000aec:	dd800915 	stw	r22,36(sp)
 1000af0:	dd400815 	stw	r21,32(sp)
 1000af4:	dd000715 	stw	r20,28(sp)
 1000af8:	dcc00615 	stw	r19,24(sp)
 1000afc:	dc800515 	stw	r18,20(sp)
 1000b00:	dc400415 	stw	r17,16(sp)
 1000b04:	dc000315 	stw	r16,12(sp)
 1000b08:	dfc00b15 	stw	ra,44(sp)
 1000b0c:	ddc00a15 	stw	r23,40(sp)
 1000b10:	2021883a 	mov	r16,r4
 1000b14:	2829883a 	mov	r20,r5
 1000b18:	d9800215 	stw	r6,8(sp)
 1000b1c:	3823883a 	mov	r17,r7
BaseType_t xEntryTimeSet = pdFALSE, xYieldRequired;
 1000b20:	0027883a 	mov	r19,zero
		{
			/* Is there room on the queue now?  The running task must be the
			highest priority task wanting to access the queue.  If the head item
			in the queue is to be overwritten then it does not matter if the
			queue is full. */
			if( ( pxQueue->uxMessagesWaiting < pxQueue->uxLength ) || ( xCopyPosition == queueOVERWRITE ) )
 1000b24:	05400084 	movi	r21,2

		/* Interrupts and other tasks can send to and receive from the queue
		now the critical section has been exited. */

		vTaskSuspendAll();
		prvLockQueue( pxQueue );
 1000b28:	04bfffc4 	movi	r18,-1
		if( xTaskCheckForTimeOut( &xTimeOut, &xTicksToWait ) == pdFALSE )
		{
			if( prvIsQueueFull( pxQueue ) != pdFALSE )
			{
				traceBLOCKING_ON_QUEUE_SEND( pxQueue );
				vTaskPlaceOnEventList( &( pxQueue->xTasksWaitingToSend ), xTicksToWait );
 1000b2c:	25800404 	addi	r22,r4,16
	/* This function relaxes the coding standard somewhat to allow return
	statements within the function itself.  This is done in the interest
	of execution time efficiency. */
	for( ;; )
	{
		taskENTER_CRITICAL();
 1000b30:	1001bb80 	call	1001bb8 <vTaskEnterCritical>
		{
			/* Is there room on the queue now?  The running task must be the
			highest priority task wanting to access the queue.  If the head item
			in the queue is to be overwritten then it does not matter if the
			queue is full. */
			if( ( pxQueue->uxMessagesWaiting < pxQueue->uxLength ) || ( xCopyPosition == queueOVERWRITE ) )
 1000b34:	80c00e17 	ldw	r3,56(r16)
 1000b38:	80800f17 	ldw	r2,60(r16)
 1000b3c:	18800136 	bltu	r3,r2,1000b44 <xQueueGenericSend+0x5c>
 1000b40:	8d40101e 	bne	r17,r21,1000b84 <xQueueGenericSend+0x9c>
			{
				traceQUEUE_SEND( pxQueue );
				xYieldRequired = prvCopyDataToQueue( pxQueue, pvItemToQueue, xCopyPosition );
 1000b44:	8009883a 	mov	r4,r16
 1000b48:	a00b883a 	mov	r5,r20
 1000b4c:	880d883a 	mov	r6,r17
 1000b50:	10007b40 	call	10007b4 <prvCopyDataToQueue>
				}
				#else /* configUSE_QUEUE_SETS */
				{
					/* If there was a task waiting for data to arrive on the
					queue then unblock it now. */
					if( listLIST_IS_EMPTY( &( pxQueue->xTasksWaitingToReceive ) ) == pdFALSE )
 1000b54:	80c00917 	ldw	r3,36(r16)
 1000b58:	18000526 	beq	r3,zero,1000b70 <xQueueGenericSend+0x88>
					{
						if( xTaskRemoveFromEventList( &( pxQueue->xTasksWaitingToReceive ) ) == pdTRUE )
 1000b5c:	81000904 	addi	r4,r16,36
 1000b60:	10018b40 	call	10018b4 <xTaskRemoveFromEventList>
 1000b64:	00c00044 	movi	r3,1
 1000b68:	10c0031e 	bne	r2,r3,1000b78 <xQueueGenericSend+0x90>
 1000b6c:	00000106 	br	1000b74 <xQueueGenericSend+0x8c>
						else
						{
							mtCOVERAGE_TEST_MARKER();
						}
					}
					else if( xYieldRequired != pdFALSE )
 1000b70:	10000126 	beq	r2,zero,1000b78 <xQueueGenericSend+0x90>
					{
						/* This path is a special case that will only get
						executed if the task was holding multiple mutexes and
						the mutexes were given back in an order that is
						different to that in which they were taken. */
						queueYIELD_IF_USING_PREEMPTION();
 1000b74:	003b683a 	trap	0
						mtCOVERAGE_TEST_MARKER();
					}
				}
				#endif /* configUSE_QUEUE_SETS */

				taskEXIT_CRITICAL();
 1000b78:	1001be80 	call	1001be8 <vTaskExitCritical>
				return pdPASS;
 1000b7c:	00800044 	movi	r2,1
 1000b80:	00002d06 	br	1000c38 <xQueueGenericSend+0x150>
			}
			else
			{
				if( xTicksToWait == ( TickType_t ) 0 )
 1000b84:	d8800217 	ldw	r2,8(sp)
 1000b88:	1000021e 	bne	r2,zero,1000b94 <xQueueGenericSend+0xac>
				{
					/* The queue was full and no block time is specified (or
					the block time has expired) so leave now. */
					taskEXIT_CRITICAL();
 1000b8c:	1001be80 	call	1001be8 <vTaskExitCritical>
 1000b90:	00002806 	br	1000c34 <xQueueGenericSend+0x14c>
					/* Return to the original privilege level before exiting
					the function. */
					traceQUEUE_SEND_FAILED( pxQueue );
					return errQUEUE_FULL;
				}
				else if( xEntryTimeSet == pdFALSE )
 1000b94:	9800021e 	bne	r19,zero,1000ba0 <xQueueGenericSend+0xb8>
				{
					/* The queue was full and a block time was specified so
					configure the timeout structure. */
					vTaskSetTimeOutState( &xTimeOut );
 1000b98:	d809883a 	mov	r4,sp
 1000b9c:	10019e40 	call	10019e4 <vTaskSetTimeOutState>
					/* Entry time was already set. */
					mtCOVERAGE_TEST_MARKER();
				}
			}
		}
		taskEXIT_CRITICAL();
 1000ba0:	1001be80 	call	1001be8 <vTaskExitCritical>

		/* Interrupts and other tasks can send to and receive from the queue
		now the critical section has been exited. */

		vTaskSuspendAll();
 1000ba4:	100158c0 	call	100158c <vTaskSuspendAll>
		prvLockQueue( pxQueue );
 1000ba8:	1001bb80 	call	1001bb8 <vTaskEnterCritical>
 1000bac:	80801117 	ldw	r2,68(r16)
 1000bb0:	1480011e 	bne	r2,r18,1000bb8 <xQueueGenericSend+0xd0>
 1000bb4:	80001115 	stw	zero,68(r16)
 1000bb8:	80801217 	ldw	r2,72(r16)
 1000bbc:	1480011e 	bne	r2,r18,1000bc4 <xQueueGenericSend+0xdc>
 1000bc0:	80001215 	stw	zero,72(r16)
 1000bc4:	1001be80 	call	1001be8 <vTaskExitCritical>

		/* Update the timeout state to see if it has expired yet. */
		if( xTaskCheckForTimeOut( &xTimeOut, &xTicksToWait ) == pdFALSE )
 1000bc8:	d809883a 	mov	r4,sp
 1000bcc:	d9400204 	addi	r5,sp,8
 1000bd0:	10024f40 	call	10024f4 <xTaskCheckForTimeOut>
 1000bd4:	1000141e 	bne	r2,zero,1000c28 <xQueueGenericSend+0x140>

static BaseType_t prvIsQueueFull( const Queue_t *pxQueue )
{
BaseType_t xReturn;

	taskENTER_CRITICAL();
 1000bd8:	1001bb80 	call	1001bb8 <vTaskEnterCritical>
	{
		if( pxQueue->uxMessagesWaiting == pxQueue->uxLength )
 1000bdc:	85c00e17 	ldw	r23,56(r16)
 1000be0:	84c00f17 	ldw	r19,60(r16)
		else
		{
			xReturn = pdFALSE;
		}
	}
	taskEXIT_CRITICAL();
 1000be4:	1001be80 	call	1001be8 <vTaskExitCritical>
		prvLockQueue( pxQueue );

		/* Update the timeout state to see if it has expired yet. */
		if( xTaskCheckForTimeOut( &xTimeOut, &xTicksToWait ) == pdFALSE )
		{
			if( prvIsQueueFull( pxQueue ) != pdFALSE )
 1000be8:	bcc00b1e 	bne	r23,r19,1000c18 <xQueueGenericSend+0x130>
			{
				traceBLOCKING_ON_QUEUE_SEND( pxQueue );
				vTaskPlaceOnEventList( &( pxQueue->xTasksWaitingToSend ), xTicksToWait );
 1000bec:	d9400217 	ldw	r5,8(sp)
 1000bf0:	b009883a 	mov	r4,r22
 1000bf4:	10017d80 	call	10017d8 <vTaskPlaceOnEventList>
				/* Unlocking the queue means queue events can effect the
				event list.  It is possible	that interrupts occurring now
				remove this task from the event	list again - but as the
				scheduler is suspended the task will go onto the pending
				ready last instead of the actual ready list. */
				prvUnlockQueue( pxQueue );
 1000bf8:	8009883a 	mov	r4,r16
 1000bfc:	10008c40 	call	10008c4 <prvUnlockQueue>
				/* Resuming the scheduler will move tasks from the pending
				ready list into the ready list - so it is feasible that this
				task is already in a ready list before it yields - in which
				case the yield will not cause a context switch unless there
				is also a higher priority task in the pending ready list. */
				if( xTaskResumeAll() == pdFALSE )
 1000c00:	10022740 	call	1002274 <xTaskResumeAll>
 1000c04:	10000226 	beq	r2,zero,1000c10 <xQueueGenericSend+0x128>
 1000c08:	04c00044 	movi	r19,1
 1000c0c:	003fc806 	br	1000b30 <xQueueGenericSend+0x48>
				{
					portYIELD_WITHIN_API();
 1000c10:	003b683a 	trap	0
 1000c14:	003ffc06 	br	1000c08 <xQueueGenericSend+0x120>
				}
			}
			else
			{
				/* Try again. */
				prvUnlockQueue( pxQueue );
 1000c18:	8009883a 	mov	r4,r16
 1000c1c:	10008c40 	call	10008c4 <prvUnlockQueue>
				( void ) xTaskResumeAll();
 1000c20:	10022740 	call	1002274 <xTaskResumeAll>
 1000c24:	003ff806 	br	1000c08 <xQueueGenericSend+0x120>
			}
		}
		else
		{
			/* The timeout has expired. */
			prvUnlockQueue( pxQueue );
 1000c28:	8009883a 	mov	r4,r16
 1000c2c:	10008c40 	call	10008c4 <prvUnlockQueue>
			( void ) xTaskResumeAll();
 1000c30:	10022740 	call	1002274 <xTaskResumeAll>

			/* Return to the original privilege level before exiting the
			function. */
			traceQUEUE_SEND_FAILED( pxQueue );
			return errQUEUE_FULL;
 1000c34:	0005883a 	mov	r2,zero
		}
	}
}
 1000c38:	dfc00b17 	ldw	ra,44(sp)
 1000c3c:	ddc00a17 	ldw	r23,40(sp)
 1000c40:	dd800917 	ldw	r22,36(sp)
 1000c44:	dd400817 	ldw	r21,32(sp)
 1000c48:	dd000717 	ldw	r20,28(sp)
 1000c4c:	dcc00617 	ldw	r19,24(sp)
 1000c50:	dc800517 	ldw	r18,20(sp)
 1000c54:	dc400417 	ldw	r17,16(sp)
 1000c58:	dc000317 	ldw	r16,12(sp)
 1000c5c:	dec00c04 	addi	sp,sp,48
 1000c60:	f800283a 	ret

01000c64 <xQueueCreateMutex>:
/*-----------------------------------------------------------*/

#if ( configUSE_MUTEXES == 1 )

	QueueHandle_t xQueueCreateMutex( const uint8_t ucQueueType )
	{
 1000c64:	defffe04 	addi	sp,sp,-8
		/* Prevent compiler warnings about unused parameters if
		configUSE_TRACE_FACILITY does not equal 1. */
		( void ) ucQueueType;

		/* Allocate the new queue structure. */
		pxNewQueue = ( Queue_t * ) pvPortMalloc( sizeof( Queue_t ) );
 1000c68:	01001304 	movi	r4,76
/*-----------------------------------------------------------*/

#if ( configUSE_MUTEXES == 1 )

	QueueHandle_t xQueueCreateMutex( const uint8_t ucQueueType )
	{
 1000c6c:	dc000015 	stw	r16,0(sp)
 1000c70:	dfc00115 	stw	ra,4(sp)
		/* Prevent compiler warnings about unused parameters if
		configUSE_TRACE_FACILITY does not equal 1. */
		( void ) ucQueueType;

		/* Allocate the new queue structure. */
		pxNewQueue = ( Queue_t * ) pvPortMalloc( sizeof( Queue_t ) );
 1000c74:	100070c0 	call	100070c <pvPortMalloc>
 1000c78:	1021883a 	mov	r16,r2
		if( pxNewQueue != NULL )
 1000c7c:	10001426 	beq	r2,zero,1000cd0 <xQueueCreateMutex+0x6c>
		{
			/* Information required for priority inheritance. */
			pxNewQueue->pxMutexHolder = NULL;
 1000c80:	10000115 	stw	zero,4(r2)
			pxNewQueue->uxQueueType = queueQUEUE_IS_MUTEX;
 1000c84:	10000015 	stw	zero,0(r2)

			/* Queues used as a mutex no data is actually copied into or out
			of the queue. */
			pxNewQueue->pcWriteTo = NULL;
 1000c88:	10000215 	stw	zero,8(r2)
			pxNewQueue->u.pcReadFrom = NULL;
 1000c8c:	10000315 	stw	zero,12(r2)

			/* Each mutex has a length of 1 (like a binary semaphore) and
			an item size of 0 as nothing is actually copied into or out
			of the mutex. */
			pxNewQueue->uxMessagesWaiting = ( UBaseType_t ) 0U;
 1000c90:	10000e15 	stw	zero,56(r2)
			pxNewQueue->uxLength = ( UBaseType_t ) 1U;
 1000c94:	00800044 	movi	r2,1
 1000c98:	80800f15 	stw	r2,60(r16)
			pxNewQueue->uxItemSize = ( UBaseType_t ) 0U;
			pxNewQueue->xRxLock = queueUNLOCKED;
 1000c9c:	00bfffc4 	movi	r2,-1
 1000ca0:	80801115 	stw	r2,68(r16)
			pxNewQueue->xTxLock = queueUNLOCKED;
 1000ca4:	80801215 	stw	r2,72(r16)
				pxNewQueue->pxQueueSetContainer = NULL;
			}
			#endif

			/* Ensure the event queues start with the correct state. */
			vListInitialise( &( pxNewQueue->xTasksWaitingToSend ) );
 1000ca8:	81000404 	addi	r4,r16,16
			/* Each mutex has a length of 1 (like a binary semaphore) and
			an item size of 0 as nothing is actually copied into or out
			of the mutex. */
			pxNewQueue->uxMessagesWaiting = ( UBaseType_t ) 0U;
			pxNewQueue->uxLength = ( UBaseType_t ) 1U;
			pxNewQueue->uxItemSize = ( UBaseType_t ) 0U;
 1000cac:	80001015 	stw	zero,64(r16)
				pxNewQueue->pxQueueSetContainer = NULL;
			}
			#endif

			/* Ensure the event queues start with the correct state. */
			vListInitialise( &( pxNewQueue->xTasksWaitingToSend ) );
 1000cb0:	10004a40 	call	10004a4 <vListInitialise>
			vListInitialise( &( pxNewQueue->xTasksWaitingToReceive ) );
 1000cb4:	81000904 	addi	r4,r16,36
 1000cb8:	10004a40 	call	10004a4 <vListInitialise>

			traceCREATE_MUTEX( pxNewQueue );

			/* Start with the semaphore in the expected state. */
			( void ) xQueueGenericSend( pxNewQueue, NULL, ( TickType_t ) 0U, queueSEND_TO_BACK );
 1000cbc:	8009883a 	mov	r4,r16
 1000cc0:	000b883a 	mov	r5,zero
 1000cc4:	000d883a 	mov	r6,zero
 1000cc8:	000f883a 	mov	r7,zero
 1000ccc:	1000ae80 	call	1000ae8 <xQueueGenericSend>
			traceCREATE_MUTEX_FAILED();
		}

		configASSERT( pxNewQueue );
		return pxNewQueue;
	}
 1000cd0:	8005883a 	mov	r2,r16
 1000cd4:	dfc00117 	ldw	ra,4(sp)
 1000cd8:	dc000017 	ldw	r16,0(sp)
 1000cdc:	dec00204 	addi	sp,sp,8
 1000ce0:	f800283a 	ret

01000ce4 <xQueueGiveMutexRecursive>:
/*-----------------------------------------------------------*/

#if ( configUSE_RECURSIVE_MUTEXES == 1 )

	BaseType_t xQueueGiveMutexRecursive( QueueHandle_t xMutex )
	{
 1000ce4:	defffd04 	addi	sp,sp,-12
 1000ce8:	dc000115 	stw	r16,4(sp)
		change outside of this task.  If this task does not hold the mutex then
		pxMutexHolder can never coincidentally equal the tasks handle, and as
		this is the only condition we are interested in it does not matter if
		pxMutexHolder is accessed simultaneously by another task.  Therefore no
		mutual exclusion is required to test the pxMutexHolder variable. */
		if( pxMutex->pxMutexHolder == ( void * ) xTaskGetCurrentTaskHandle() ) /*lint !e961 Not a redundant cast as TaskHandle_t is a typedef. */
 1000cec:	24000117 	ldw	r16,4(r4)
/*-----------------------------------------------------------*/

#if ( configUSE_RECURSIVE_MUTEXES == 1 )

	BaseType_t xQueueGiveMutexRecursive( QueueHandle_t xMutex )
	{
 1000cf0:	dfc00215 	stw	ra,8(sp)
		change outside of this task.  If this task does not hold the mutex then
		pxMutexHolder can never coincidentally equal the tasks handle, and as
		this is the only condition we are interested in it does not matter if
		pxMutexHolder is accessed simultaneously by another task.  Therefore no
		mutual exclusion is required to test the pxMutexHolder variable. */
		if( pxMutex->pxMutexHolder == ( void * ) xTaskGetCurrentTaskHandle() ) /*lint !e961 Not a redundant cast as TaskHandle_t is a typedef. */
 1000cf4:	d9000015 	stw	r4,0(sp)
 1000cf8:	1001a380 	call	1001a38 <xTaskGetCurrentTaskHandle>
 1000cfc:	d9000017 	ldw	r4,0(sp)
 1000d00:	8080091e 	bne	r16,r2,1000d28 <xQueueGiveMutexRecursive+0x44>
			/* uxRecursiveCallCount cannot be zero if pxMutexHolder is equal to
			the task handle, therefore no underflow check is required.  Also,
			uxRecursiveCallCount is only modified by the mutex holder, and as
			there can only be one, no mutual exclusion is required to modify the
			uxRecursiveCallCount member. */
			( pxMutex->u.uxRecursiveCallCount )--;
 1000d04:	20800317 	ldw	r2,12(r4)
 1000d08:	10bfffc4 	addi	r2,r2,-1
 1000d0c:	20800315 	stw	r2,12(r4)

			/* Have we unwound the call count? */
			if( pxMutex->u.uxRecursiveCallCount == ( UBaseType_t ) 0 )
 1000d10:	1000071e 	bne	r2,zero,1000d30 <xQueueGiveMutexRecursive+0x4c>
			{
				/* Return the mutex.  This will automatically unblock any other
				task that might be waiting to access the mutex. */
				( void ) xQueueGenericSend( pxMutex, NULL, queueMUTEX_GIVE_BLOCK_TIME, queueSEND_TO_BACK );
 1000d14:	000b883a 	mov	r5,zero
 1000d18:	000d883a 	mov	r6,zero
 1000d1c:	000f883a 	mov	r7,zero
 1000d20:	1000ae80 	call	1000ae8 <xQueueGenericSend>
 1000d24:	00000206 	br	1000d30 <xQueueGiveMutexRecursive+0x4c>
		}
		else
		{
			/* The mutex cannot be given because the calling task is not the
			holder. */
			xReturn = pdFAIL;
 1000d28:	0005883a 	mov	r2,zero
 1000d2c:	00000106 	br	1000d34 <xQueueGiveMutexRecursive+0x50>
			else
			{
				mtCOVERAGE_TEST_MARKER();
			}

			xReturn = pdPASS;
 1000d30:	00800044 	movi	r2,1

			traceGIVE_MUTEX_RECURSIVE_FAILED( pxMutex );
		}

		return xReturn;
	}
 1000d34:	dfc00217 	ldw	ra,8(sp)
 1000d38:	dc000117 	ldw	r16,4(sp)
 1000d3c:	dec00304 	addi	sp,sp,12
 1000d40:	f800283a 	ret

01000d44 <xQueueGenericSendFromISR>:
	read, instead return a flag to say whether a context switch is required or
	not (i.e. has a task with a higher priority than us been woken by this
	post). */
	uxSavedInterruptStatus = portSET_INTERRUPT_MASK_FROM_ISR();
	{
		if( ( pxQueue->uxMessagesWaiting < pxQueue->uxLength ) || ( xCopyPosition == queueOVERWRITE ) )
 1000d44:	20c00e17 	ldw	r3,56(r4)
 1000d48:	20800f17 	ldw	r2,60(r4)

#endif /* configUSE_ALTERNATIVE_API */
/*-----------------------------------------------------------*/

BaseType_t xQueueGenericSendFromISR( QueueHandle_t xQueue, const void * const pvItemToQueue, BaseType_t * const pxHigherPriorityTaskWoken, const BaseType_t xCopyPosition )
{
 1000d4c:	defffd04 	addi	sp,sp,-12
 1000d50:	dfc00215 	stw	ra,8(sp)
 1000d54:	dc400115 	stw	r17,4(sp)
 1000d58:	dc000015 	stw	r16,0(sp)
	read, instead return a flag to say whether a context switch is required or
	not (i.e. has a task with a higher priority than us been woken by this
	post). */
	uxSavedInterruptStatus = portSET_INTERRUPT_MASK_FROM_ISR();
	{
		if( ( pxQueue->uxMessagesWaiting < pxQueue->uxLength ) || ( xCopyPosition == queueOVERWRITE ) )
 1000d5c:	18800236 	bltu	r3,r2,1000d68 <xQueueGenericSendFromISR+0x24>
 1000d60:	00800084 	movi	r2,2
 1000d64:	3880151e 	bne	r7,r2,1000dbc <xQueueGenericSendFromISR+0x78>
 1000d68:	3023883a 	mov	r17,r6
			/* Semaphores use xQueueGiveFromISR(), so pxQueue will not be a
			semaphore or mutex.  That means prvCopyDataToQueue() cannot result
			in a task disinheriting a priority and prvCopyDataToQueue() can be
			called here even though the disinherit function does not check if
			the scheduler is suspended before accessing the ready lists. */
			( void ) prvCopyDataToQueue( pxQueue, pvItemToQueue, xCopyPosition );
 1000d6c:	380d883a 	mov	r6,r7
 1000d70:	2021883a 	mov	r16,r4
 1000d74:	10007b40 	call	10007b4 <prvCopyDataToQueue>

			/* The event list is not altered if the queue is locked.  This will
			be done when the queue is unlocked later. */
			if( pxQueue->xTxLock == queueUNLOCKED )
 1000d78:	80c01217 	ldw	r3,72(r16)
 1000d7c:	00bfffc4 	movi	r2,-1
 1000d80:	1880091e 	bne	r3,r2,1000da8 <xQueueGenericSendFromISR+0x64>
						}
					}
				}
				#else /* configUSE_QUEUE_SETS */
				{
					if( listLIST_IS_EMPTY( &( pxQueue->xTasksWaitingToReceive ) ) == pdFALSE )
 1000d84:	80800917 	ldw	r2,36(r16)
 1000d88:	10000a26 	beq	r2,zero,1000db4 <xQueueGenericSendFromISR+0x70>
					{
						if( xTaskRemoveFromEventList( &( pxQueue->xTasksWaitingToReceive ) ) != pdFALSE )
 1000d8c:	81000904 	addi	r4,r16,36
 1000d90:	10018b40 	call	10018b4 <xTaskRemoveFromEventList>
 1000d94:	10000726 	beq	r2,zero,1000db4 <xQueueGenericSendFromISR+0x70>
						{
							/* The task waiting has a higher priority so record that a
							context	switch is required. */
							if( pxHigherPriorityTaskWoken != NULL )
 1000d98:	88000626 	beq	r17,zero,1000db4 <xQueueGenericSendFromISR+0x70>
							{
								*pxHigherPriorityTaskWoken = pdTRUE;
 1000d9c:	00800044 	movi	r2,1
 1000da0:	88800015 	stw	r2,0(r17)
 1000da4:	00000606 	br	1000dc0 <xQueueGenericSendFromISR+0x7c>
			}
			else
			{
				/* Increment the lock count so the task that unlocks the queue
				knows that data was posted while it was locked. */
				++( pxQueue->xTxLock );
 1000da8:	80801217 	ldw	r2,72(r16)
 1000dac:	10800044 	addi	r2,r2,1
 1000db0:	80801215 	stw	r2,72(r16)
			}

			xReturn = pdPASS;
 1000db4:	00800044 	movi	r2,1
 1000db8:	00000106 	br	1000dc0 <xQueueGenericSendFromISR+0x7c>
		}
		else
		{
			traceQUEUE_SEND_FROM_ISR_FAILED( pxQueue );
			xReturn = errQUEUE_FULL;
 1000dbc:	0005883a 	mov	r2,zero
		}
	}
	portCLEAR_INTERRUPT_MASK_FROM_ISR( uxSavedInterruptStatus );

	return xReturn;
}
 1000dc0:	dfc00217 	ldw	ra,8(sp)
 1000dc4:	dc400117 	ldw	r17,4(sp)
 1000dc8:	dc000017 	ldw	r16,0(sp)
 1000dcc:	dec00304 	addi	sp,sp,12
 1000dd0:	f800283a 	ret

01000dd4 <xQueueGiveFromISR>:
	uxSavedInterruptStatus = portSET_INTERRUPT_MASK_FROM_ISR();
	{
		/* When the queue is used to implement a semaphore no data is ever
		moved through the queue but it is still valid to see if the queue 'has
		space'. */
		if( pxQueue->uxMessagesWaiting < pxQueue->uxLength )
 1000dd4:	20c00e17 	ldw	r3,56(r4)
 1000dd8:	20800f17 	ldw	r2,60(r4)
 1000ddc:	1880192e 	bgeu	r3,r2,1000e44 <xQueueGiveFromISR+0x70>
			holder - and if there is a mutex holder then the mutex cannot be
			given from an ISR.  As this is the ISR version of the function it
			can be assumed there is no mutex holder and no need to determine if
			priority disinheritance is needed.  Simply increase the count of
			messages (semaphores) available. */
			++( pxQueue->uxMessagesWaiting );
 1000de0:	20800e17 	ldw	r2,56(r4)
 1000de4:	10800044 	addi	r2,r2,1
 1000de8:	20800e15 	stw	r2,56(r4)

			/* The event list is not altered if the queue is locked.  This will
			be done when the queue is unlocked later. */
			if( pxQueue->xTxLock == queueUNLOCKED )
 1000dec:	20c01217 	ldw	r3,72(r4)
 1000df0:	00bfffc4 	movi	r2,-1
 1000df4:	18800f1e 	bne	r3,r2,1000e34 <xQueueGiveFromISR+0x60>
						}
					}
				}
				#else /* configUSE_QUEUE_SETS */
				{
					if( listLIST_IS_EMPTY( &( pxQueue->xTasksWaitingToReceive ) ) == pdFALSE )
 1000df8:	20800917 	ldw	r2,36(r4)
 1000dfc:	10001726 	beq	r2,zero,1000e5c <xQueueGiveFromISR+0x88>
	return xReturn;
}
/*-----------------------------------------------------------*/

BaseType_t xQueueGiveFromISR( QueueHandle_t xQueue, BaseType_t * const pxHigherPriorityTaskWoken )
{
 1000e00:	defffe04 	addi	sp,sp,-8
				}
				#else /* configUSE_QUEUE_SETS */
				{
					if( listLIST_IS_EMPTY( &( pxQueue->xTasksWaitingToReceive ) ) == pdFALSE )
					{
						if( xTaskRemoveFromEventList( &( pxQueue->xTasksWaitingToReceive ) ) != pdFALSE )
 1000e04:	21000904 	addi	r4,r4,36
	return xReturn;
}
/*-----------------------------------------------------------*/

BaseType_t xQueueGiveFromISR( QueueHandle_t xQueue, BaseType_t * const pxHigherPriorityTaskWoken )
{
 1000e08:	dc000015 	stw	r16,0(sp)
 1000e0c:	dfc00115 	stw	ra,4(sp)
 1000e10:	2821883a 	mov	r16,r5
				}
				#else /* configUSE_QUEUE_SETS */
				{
					if( listLIST_IS_EMPTY( &( pxQueue->xTasksWaitingToReceive ) ) == pdFALSE )
					{
						if( xTaskRemoveFromEventList( &( pxQueue->xTasksWaitingToReceive ) ) != pdFALSE )
 1000e14:	10018b40 	call	10018b4 <xTaskRemoveFromEventList>
 1000e18:	1000021e 	bne	r2,zero,1000e24 <xQueueGiveFromISR+0x50>
				/* Increment the lock count so the task that unlocks the queue
				knows that data was posted while it was locked. */
				++( pxQueue->xTxLock );
			}

			xReturn = pdPASS;
 1000e1c:	00800044 	movi	r2,1
 1000e20:	00000a06 	br	1000e4c <xQueueGiveFromISR+0x78>
					{
						if( xTaskRemoveFromEventList( &( pxQueue->xTasksWaitingToReceive ) ) != pdFALSE )
						{
							/* The task waiting has a higher priority so record that a
							context	switch is required. */
							if( pxHigherPriorityTaskWoken != NULL )
 1000e24:	803ffd26 	beq	r16,zero,1000e1c <xQueueGiveFromISR+0x48>
							{
								*pxHigherPriorityTaskWoken = pdTRUE;
 1000e28:	00800044 	movi	r2,1
 1000e2c:	80800015 	stw	r2,0(r16)
 1000e30:	00000606 	br	1000e4c <xQueueGiveFromISR+0x78>
			}
			else
			{
				/* Increment the lock count so the task that unlocks the queue
				knows that data was posted while it was locked. */
				++( pxQueue->xTxLock );
 1000e34:	20801217 	ldw	r2,72(r4)
 1000e38:	10800044 	addi	r2,r2,1
 1000e3c:	20801215 	stw	r2,72(r4)
 1000e40:	00000606 	br	1000e5c <xQueueGiveFromISR+0x88>
			xReturn = pdPASS;
		}
		else
		{
			traceQUEUE_SEND_FROM_ISR_FAILED( pxQueue );
			xReturn = errQUEUE_FULL;
 1000e44:	0005883a 	mov	r2,zero
 1000e48:	f800283a 	ret
		}
	}
	portCLEAR_INTERRUPT_MASK_FROM_ISR( uxSavedInterruptStatus );

	return xReturn;
}
 1000e4c:	dfc00117 	ldw	ra,4(sp)
 1000e50:	dc000017 	ldw	r16,0(sp)
 1000e54:	dec00204 	addi	sp,sp,8
 1000e58:	f800283a 	ret
				/* Increment the lock count so the task that unlocks the queue
				knows that data was posted while it was locked. */
				++( pxQueue->xTxLock );
			}

			xReturn = pdPASS;
 1000e5c:	00800044 	movi	r2,1
		}
	}
	portCLEAR_INTERRUPT_MASK_FROM_ISR( uxSavedInterruptStatus );

	return xReturn;
}
 1000e60:	f800283a 	ret

01000e64 <xQueueGenericReceive>:
/*-----------------------------------------------------------*/

BaseType_t xQueueGenericReceive( QueueHandle_t xQueue, void * const pvBuffer, TickType_t xTicksToWait, const BaseType_t xJustPeeking )
{
 1000e64:	defff604 	addi	sp,sp,-40
 1000e68:	dd400815 	stw	r21,32(sp)
 1000e6c:	dd000715 	stw	r20,28(sp)
 1000e70:	dcc00615 	stw	r19,24(sp)
 1000e74:	dc800515 	stw	r18,20(sp)
 1000e78:	dc400415 	stw	r17,16(sp)
 1000e7c:	dc000315 	stw	r16,12(sp)
 1000e80:	dfc00915 	stw	ra,36(sp)
 1000e84:	2021883a 	mov	r16,r4
 1000e88:	2827883a 	mov	r19,r5
 1000e8c:	d9800215 	stw	r6,8(sp)
 1000e90:	3829883a 	mov	r20,r7
BaseType_t xEntryTimeSet = pdFALSE;
 1000e94:	0025883a 	mov	r18,zero

		/* Interrupts and other tasks can send to and receive from the queue
		now the critical section has been exited. */

		vTaskSuspendAll();
		prvLockQueue( pxQueue );
 1000e98:	047fffc4 	movi	r17,-1
						mtCOVERAGE_TEST_MARKER();
					}
				}
				#endif

				vTaskPlaceOnEventList( &( pxQueue->xTasksWaitingToReceive ), xTicksToWait );
 1000e9c:	25400904 	addi	r21,r4,36
	statements within the function itself.  This is done in the interest
	of execution time efficiency. */

	for( ;; )
	{
		taskENTER_CRITICAL();
 1000ea0:	1001bb80 	call	1001bb8 <vTaskEnterCritical>
		{
			/* Is there data in the queue now?  To be running the calling task
			must be	the highest priority task wanting to access the queue. */
			if( pxQueue->uxMessagesWaiting > ( UBaseType_t ) 0 )
 1000ea4:	80800e17 	ldw	r2,56(r16)
 1000ea8:	10001d26 	beq	r2,zero,1000f20 <xQueueGenericReceive+0xbc>
			{
				/* Remember the read position in case the queue is only being
				peeked. */
				pcOriginalReadPosition = pxQueue->u.pcReadFrom;

				prvCopyDataFromQueue( pxQueue, pvBuffer );
 1000eac:	8009883a 	mov	r4,r16
 1000eb0:	980b883a 	mov	r5,r19
			must be	the highest priority task wanting to access the queue. */
			if( pxQueue->uxMessagesWaiting > ( UBaseType_t ) 0 )
			{
				/* Remember the read position in case the queue is only being
				peeked. */
				pcOriginalReadPosition = pxQueue->u.pcReadFrom;
 1000eb4:	84400317 	ldw	r17,12(r16)

				prvCopyDataFromQueue( pxQueue, pvBuffer );
 1000eb8:	100088c0 	call	100088c <prvCopyDataFromQueue>

				if( xJustPeeking == pdFALSE )
 1000ebc:	a0000e1e 	bne	r20,zero,1000ef8 <xQueueGenericReceive+0x94>
				{
					traceQUEUE_RECEIVE( pxQueue );

					/* Actually removing data, not just peeking. */
					--( pxQueue->uxMessagesWaiting );
 1000ec0:	80800e17 	ldw	r2,56(r16)
 1000ec4:	10bfffc4 	addi	r2,r2,-1
 1000ec8:	80800e15 	stw	r2,56(r16)

					#if ( configUSE_MUTEXES == 1 )
					{
						if( pxQueue->uxQueueType == queueQUEUE_IS_MUTEX )
 1000ecc:	80800017 	ldw	r2,0(r16)
 1000ed0:	1000021e 	bne	r2,zero,1000edc <xQueueGenericReceive+0x78>
						{
							/* Record the information required to implement
							priority inheritance should it become necessary. */
							pxQueue->pxMutexHolder = ( int8_t * ) pvTaskIncrementMutexHeldCount(); /*lint !e961 Cast is not redundant as TaskHandle_t is a typedef. */
 1000ed4:	10025980 	call	1002598 <pvTaskIncrementMutexHeldCount>
 1000ed8:	80800115 	stw	r2,4(r16)
							mtCOVERAGE_TEST_MARKER();
						}
					}
					#endif /* configUSE_MUTEXES */

					if( listLIST_IS_EMPTY( &( pxQueue->xTasksWaitingToSend ) ) == pdFALSE )
 1000edc:	80800417 	ldw	r2,16(r16)
 1000ee0:	10000c26 	beq	r2,zero,1000f14 <xQueueGenericReceive+0xb0>
					{
						if( xTaskRemoveFromEventList( &( pxQueue->xTasksWaitingToSend ) ) == pdTRUE )
 1000ee4:	81000404 	addi	r4,r16,16
 1000ee8:	10018b40 	call	10018b4 <xTaskRemoveFromEventList>
 1000eec:	00c00044 	movi	r3,1
 1000ef0:	10c0081e 	bne	r2,r3,1000f14 <xQueueGenericReceive+0xb0>
 1000ef4:	00000606 	br	1000f10 <xQueueGenericReceive+0xac>
					pointer. */
					pxQueue->u.pcReadFrom = pcOriginalReadPosition;

					/* The data is being left in the queue, so see if there are
					any other tasks waiting for the data. */
					if( listLIST_IS_EMPTY( &( pxQueue->xTasksWaitingToReceive ) ) == pdFALSE )
 1000ef8:	80800917 	ldw	r2,36(r16)
				{
					traceQUEUE_PEEK( pxQueue );

					/* The data is not being removed, so reset the read
					pointer. */
					pxQueue->u.pcReadFrom = pcOriginalReadPosition;
 1000efc:	84400315 	stw	r17,12(r16)

					/* The data is being left in the queue, so see if there are
					any other tasks waiting for the data. */
					if( listLIST_IS_EMPTY( &( pxQueue->xTasksWaitingToReceive ) ) == pdFALSE )
 1000f00:	10000426 	beq	r2,zero,1000f14 <xQueueGenericReceive+0xb0>
					{
						if( xTaskRemoveFromEventList( &( pxQueue->xTasksWaitingToReceive ) ) != pdFALSE )
 1000f04:	81000904 	addi	r4,r16,36
 1000f08:	10018b40 	call	10018b4 <xTaskRemoveFromEventList>
 1000f0c:	10000126 	beq	r2,zero,1000f14 <xQueueGenericReceive+0xb0>
						{
							/* The task waiting has a higher priority than this task. */
							queueYIELD_IF_USING_PREEMPTION();
 1000f10:	003b683a 	trap	0
					{
						mtCOVERAGE_TEST_MARKER();
					}
				}

				taskEXIT_CRITICAL();
 1000f14:	1001be80 	call	1001be8 <vTaskExitCritical>
				return pdPASS;
 1000f18:	00800044 	movi	r2,1
 1000f1c:	00003206 	br	1000fe8 <xQueueGenericReceive+0x184>
			}
			else
			{
				if( xTicksToWait == ( TickType_t ) 0 )
 1000f20:	d8800217 	ldw	r2,8(sp)
 1000f24:	1000021e 	bne	r2,zero,1000f30 <xQueueGenericReceive+0xcc>
				{
					/* The queue was empty and no block time is specified (or
					the block time has expired) so leave now. */
					taskEXIT_CRITICAL();
 1000f28:	1001be80 	call	1001be8 <vTaskExitCritical>
 1000f2c:	00002d06 	br	1000fe4 <xQueueGenericReceive+0x180>
					traceQUEUE_RECEIVE_FAILED( pxQueue );
					return errQUEUE_EMPTY;
				}
				else if( xEntryTimeSet == pdFALSE )
 1000f30:	9000021e 	bne	r18,zero,1000f3c <xQueueGenericReceive+0xd8>
				{
					/* The queue was empty and a block time was specified so
					configure the timeout structure. */
					vTaskSetTimeOutState( &xTimeOut );
 1000f34:	d809883a 	mov	r4,sp
 1000f38:	10019e40 	call	10019e4 <vTaskSetTimeOutState>
					/* Entry time was already set. */
					mtCOVERAGE_TEST_MARKER();
				}
			}
		}
		taskEXIT_CRITICAL();
 1000f3c:	1001be80 	call	1001be8 <vTaskExitCritical>

		/* Interrupts and other tasks can send to and receive from the queue
		now the critical section has been exited. */

		vTaskSuspendAll();
 1000f40:	100158c0 	call	100158c <vTaskSuspendAll>
		prvLockQueue( pxQueue );
 1000f44:	1001bb80 	call	1001bb8 <vTaskEnterCritical>
 1000f48:	80801117 	ldw	r2,68(r16)
 1000f4c:	1440011e 	bne	r2,r17,1000f54 <xQueueGenericReceive+0xf0>
 1000f50:	80001115 	stw	zero,68(r16)
 1000f54:	80801217 	ldw	r2,72(r16)
 1000f58:	1440011e 	bne	r2,r17,1000f60 <xQueueGenericReceive+0xfc>
 1000f5c:	80001215 	stw	zero,72(r16)
 1000f60:	1001be80 	call	1001be8 <vTaskExitCritical>

		/* Update the timeout state to see if it has expired yet. */
		if( xTaskCheckForTimeOut( &xTimeOut, &xTicksToWait ) == pdFALSE )
 1000f64:	d809883a 	mov	r4,sp
 1000f68:	d9400204 	addi	r5,sp,8
 1000f6c:	10024f40 	call	10024f4 <xTaskCheckForTimeOut>
 1000f70:	1000191e 	bne	r2,zero,1000fd8 <xQueueGenericReceive+0x174>

static BaseType_t prvIsQueueEmpty( const Queue_t *pxQueue )
{
BaseType_t xReturn;

	taskENTER_CRITICAL();
 1000f74:	1001bb80 	call	1001bb8 <vTaskEnterCritical>
	{
		if( pxQueue->uxMessagesWaiting == ( UBaseType_t )  0 )
 1000f78:	84800e17 	ldw	r18,56(r16)
		else
		{
			xReturn = pdFALSE;
		}
	}
	taskEXIT_CRITICAL();
 1000f7c:	1001be80 	call	1001be8 <vTaskExitCritical>
		prvLockQueue( pxQueue );

		/* Update the timeout state to see if it has expired yet. */
		if( xTaskCheckForTimeOut( &xTimeOut, &xTicksToWait ) == pdFALSE )
		{
			if( prvIsQueueEmpty( pxQueue ) != pdFALSE )
 1000f80:	9000111e 	bne	r18,zero,1000fc8 <xQueueGenericReceive+0x164>
			{
				traceBLOCKING_ON_QUEUE_RECEIVE( pxQueue );

				#if ( configUSE_MUTEXES == 1 )
				{
					if( pxQueue->uxQueueType == queueQUEUE_IS_MUTEX )
 1000f84:	80800017 	ldw	r2,0(r16)
 1000f88:	1000041e 	bne	r2,zero,1000f9c <xQueueGenericReceive+0x138>
					{
						taskENTER_CRITICAL();
 1000f8c:	1001bb80 	call	1001bb8 <vTaskEnterCritical>
						{
							vTaskPriorityInherit( ( void * ) pxQueue->pxMutexHolder );
 1000f90:	81000117 	ldw	r4,4(r16)
 1000f94:	1001a400 	call	1001a40 <vTaskPriorityInherit>
						}
						taskEXIT_CRITICAL();
 1000f98:	1001be80 	call	1001be8 <vTaskExitCritical>
						mtCOVERAGE_TEST_MARKER();
					}
				}
				#endif

				vTaskPlaceOnEventList( &( pxQueue->xTasksWaitingToReceive ), xTicksToWait );
 1000f9c:	d9400217 	ldw	r5,8(sp)
 1000fa0:	a809883a 	mov	r4,r21
 1000fa4:	10017d80 	call	10017d8 <vTaskPlaceOnEventList>
				prvUnlockQueue( pxQueue );
 1000fa8:	8009883a 	mov	r4,r16
 1000fac:	10008c40 	call	10008c4 <prvUnlockQueue>
				if( xTaskResumeAll() == pdFALSE )
 1000fb0:	10022740 	call	1002274 <xTaskResumeAll>
 1000fb4:	10000226 	beq	r2,zero,1000fc0 <xQueueGenericReceive+0x15c>
 1000fb8:	04800044 	movi	r18,1
 1000fbc:	003fb806 	br	1000ea0 <xQueueGenericReceive+0x3c>
				{
					portYIELD_WITHIN_API();
 1000fc0:	003b683a 	trap	0
 1000fc4:	003ffc06 	br	1000fb8 <xQueueGenericReceive+0x154>
				}
			}
			else
			{
				/* Try again. */
				prvUnlockQueue( pxQueue );
 1000fc8:	8009883a 	mov	r4,r16
 1000fcc:	10008c40 	call	10008c4 <prvUnlockQueue>
				( void ) xTaskResumeAll();
 1000fd0:	10022740 	call	1002274 <xTaskResumeAll>
 1000fd4:	003ff806 	br	1000fb8 <xQueueGenericReceive+0x154>
			}
		}
		else
		{
			prvUnlockQueue( pxQueue );
 1000fd8:	8009883a 	mov	r4,r16
 1000fdc:	10008c40 	call	10008c4 <prvUnlockQueue>
			( void ) xTaskResumeAll();
 1000fe0:	10022740 	call	1002274 <xTaskResumeAll>
			traceQUEUE_RECEIVE_FAILED( pxQueue );
			return errQUEUE_EMPTY;
 1000fe4:	0005883a 	mov	r2,zero
		}
	}
}
 1000fe8:	dfc00917 	ldw	ra,36(sp)
 1000fec:	dd400817 	ldw	r21,32(sp)
 1000ff0:	dd000717 	ldw	r20,28(sp)
 1000ff4:	dcc00617 	ldw	r19,24(sp)
 1000ff8:	dc800517 	ldw	r18,20(sp)
 1000ffc:	dc400417 	ldw	r17,16(sp)
 1001000:	dc000317 	ldw	r16,12(sp)
 1001004:	dec00a04 	addi	sp,sp,40
 1001008:	f800283a 	ret

0100100c <xQueueTakeMutexRecursive>:
/*-----------------------------------------------------------*/

#if ( configUSE_RECURSIVE_MUTEXES == 1 )

	BaseType_t xQueueTakeMutexRecursive( QueueHandle_t xMutex, TickType_t xTicksToWait )
	{
 100100c:	defffb04 	addi	sp,sp,-20
 1001010:	dcc00315 	stw	r19,12(sp)
		/* Comments regarding mutual exclusion as per those within
		xQueueGiveMutexRecursive(). */

		traceTAKE_MUTEX_RECURSIVE( pxMutex );

		if( pxMutex->pxMutexHolder == ( void * ) xTaskGetCurrentTaskHandle() ) /*lint !e961 Cast is not redundant as TaskHandle_t is a typedef. */
 1001014:	24c00117 	ldw	r19,4(r4)
/*-----------------------------------------------------------*/

#if ( configUSE_RECURSIVE_MUTEXES == 1 )

	BaseType_t xQueueTakeMutexRecursive( QueueHandle_t xMutex, TickType_t xTicksToWait )
	{
 1001018:	dc800215 	stw	r18,8(sp)
 100101c:	dc400115 	stw	r17,4(sp)
 1001020:	dc000015 	stw	r16,0(sp)
 1001024:	dfc00415 	stw	ra,16(sp)
 1001028:	2021883a 	mov	r16,r4
 100102c:	2825883a 	mov	r18,r5
		/* Comments regarding mutual exclusion as per those within
		xQueueGiveMutexRecursive(). */

		traceTAKE_MUTEX_RECURSIVE( pxMutex );

		if( pxMutex->pxMutexHolder == ( void * ) xTaskGetCurrentTaskHandle() ) /*lint !e961 Cast is not redundant as TaskHandle_t is a typedef. */
 1001030:	1001a380 	call	1001a38 <xTaskGetCurrentTaskHandle>
 1001034:	04400044 	movi	r17,1
 1001038:	9880051e 	bne	r19,r2,1001050 <xQueueTakeMutexRecursive+0x44>
		{
			( pxMutex->u.uxRecursiveCallCount )++;
 100103c:	80800317 	ldw	r2,12(r16)
 1001040:	1445883a 	add	r2,r2,r17
 1001044:	80800315 	stw	r2,12(r16)
			xReturn = pdPASS;
 1001048:	8805883a 	mov	r2,r17
 100104c:	00000906 	br	1001074 <xQueueTakeMutexRecursive+0x68>
		}
		else
		{
			xReturn = xQueueGenericReceive( pxMutex, NULL, xTicksToWait, pdFALSE );
 1001050:	8009883a 	mov	r4,r16
 1001054:	000b883a 	mov	r5,zero
 1001058:	900d883a 	mov	r6,r18
 100105c:	000f883a 	mov	r7,zero
 1001060:	1000e640 	call	1000e64 <xQueueGenericReceive>

			/* pdPASS will only be returned if the mutex was successfully
			obtained.  The calling task may have entered the Blocked state
			before reaching here. */
			if( xReturn == pdPASS )
 1001064:	1440031e 	bne	r2,r17,1001074 <xQueueTakeMutexRecursive+0x68>
			{
				( pxMutex->u.uxRecursiveCallCount )++;
 1001068:	80c00317 	ldw	r3,12(r16)
 100106c:	18c00044 	addi	r3,r3,1
 1001070:	80c00315 	stw	r3,12(r16)
				traceTAKE_MUTEX_RECURSIVE_FAILED( pxMutex );
			}
		}

		return xReturn;
	}
 1001074:	dfc00417 	ldw	ra,16(sp)
 1001078:	dcc00317 	ldw	r19,12(sp)
 100107c:	dc800217 	ldw	r18,8(sp)
 1001080:	dc400117 	ldw	r17,4(sp)
 1001084:	dc000017 	ldw	r16,0(sp)
 1001088:	dec00504 	addi	sp,sp,20
 100108c:	f800283a 	ret

01001090 <xQueueReceiveFromISR>:
	portASSERT_IF_INTERRUPT_PRIORITY_INVALID();

	uxSavedInterruptStatus = portSET_INTERRUPT_MASK_FROM_ISR();
	{
		/* Cannot block in an ISR, so check there is data available. */
		if( pxQueue->uxMessagesWaiting > ( UBaseType_t ) 0 )
 1001090:	20800e17 	ldw	r2,56(r4)
	}
}
/*-----------------------------------------------------------*/

BaseType_t xQueueReceiveFromISR( QueueHandle_t xQueue, void * const pvBuffer, BaseType_t * const pxHigherPriorityTaskWoken )
{
 1001094:	defffd04 	addi	sp,sp,-12
 1001098:	dc000015 	stw	r16,0(sp)
 100109c:	dfc00215 	stw	ra,8(sp)
 10010a0:	dc400115 	stw	r17,4(sp)
 10010a4:	2021883a 	mov	r16,r4
	portASSERT_IF_INTERRUPT_PRIORITY_INVALID();

	uxSavedInterruptStatus = portSET_INTERRUPT_MASK_FROM_ISR();
	{
		/* Cannot block in an ISR, so check there is data available. */
		if( pxQueue->uxMessagesWaiting > ( UBaseType_t ) 0 )
 10010a8:	10001626 	beq	r2,zero,1001104 <xQueueReceiveFromISR+0x74>
 10010ac:	3023883a 	mov	r17,r6
		{
			traceQUEUE_RECEIVE_FROM_ISR( pxQueue );

			prvCopyDataFromQueue( pxQueue, pvBuffer );
 10010b0:	100088c0 	call	100088c <prvCopyDataFromQueue>
			--( pxQueue->uxMessagesWaiting );
 10010b4:	80800e17 	ldw	r2,56(r16)
 10010b8:	10bfffc4 	addi	r2,r2,-1
 10010bc:	80800e15 	stw	r2,56(r16)

			/* If the queue is locked the event list will not be modified.
			Instead update the lock count so the task that unlocks the queue
			will know that an ISR has removed data while the queue was
			locked. */
			if( pxQueue->xRxLock == queueUNLOCKED )
 10010c0:	80c01117 	ldw	r3,68(r16)
 10010c4:	00bfffc4 	movi	r2,-1
 10010c8:	1880091e 	bne	r3,r2,10010f0 <xQueueReceiveFromISR+0x60>
			{
				if( listLIST_IS_EMPTY( &( pxQueue->xTasksWaitingToSend ) ) == pdFALSE )
 10010cc:	80800417 	ldw	r2,16(r16)
 10010d0:	10000a26 	beq	r2,zero,10010fc <xQueueReceiveFromISR+0x6c>
				{
					if( xTaskRemoveFromEventList( &( pxQueue->xTasksWaitingToSend ) ) != pdFALSE )
 10010d4:	81000404 	addi	r4,r16,16
 10010d8:	10018b40 	call	10018b4 <xTaskRemoveFromEventList>
 10010dc:	10000726 	beq	r2,zero,10010fc <xQueueReceiveFromISR+0x6c>
					{
						/* The task waiting has a higher priority than us so
						force a context switch. */
						if( pxHigherPriorityTaskWoken != NULL )
 10010e0:	88000626 	beq	r17,zero,10010fc <xQueueReceiveFromISR+0x6c>
						{
							*pxHigherPriorityTaskWoken = pdTRUE;
 10010e4:	00800044 	movi	r2,1
 10010e8:	88800015 	stw	r2,0(r17)
 10010ec:	00000606 	br	1001108 <xQueueReceiveFromISR+0x78>
			}
			else
			{
				/* Increment the lock count so the task that unlocks the queue
				knows that data was removed while it was locked. */
				++( pxQueue->xRxLock );
 10010f0:	80801117 	ldw	r2,68(r16)
 10010f4:	10800044 	addi	r2,r2,1
 10010f8:	80801115 	stw	r2,68(r16)
			}

			xReturn = pdPASS;
 10010fc:	00800044 	movi	r2,1
 1001100:	00000106 	br	1001108 <xQueueReceiveFromISR+0x78>
		}
		else
		{
			xReturn = pdFAIL;
 1001104:	0005883a 	mov	r2,zero
		}
	}
	portCLEAR_INTERRUPT_MASK_FROM_ISR( uxSavedInterruptStatus );

	return xReturn;
}
 1001108:	dfc00217 	ldw	ra,8(sp)
 100110c:	dc400117 	ldw	r17,4(sp)
 1001110:	dc000017 	ldw	r16,0(sp)
 1001114:	dec00304 	addi	sp,sp,12
 1001118:	f800283a 	ret

0100111c <xQueuePeekFromISR>:
	portASSERT_IF_INTERRUPT_PRIORITY_INVALID();

	uxSavedInterruptStatus = portSET_INTERRUPT_MASK_FROM_ISR();
	{
		/* Cannot block in an ISR, so check there is data available. */
		if( pxQueue->uxMessagesWaiting > ( UBaseType_t ) 0 )
 100111c:	20800e17 	ldw	r2,56(r4)
	return xReturn;
}
/*-----------------------------------------------------------*/

BaseType_t xQueuePeekFromISR( QueueHandle_t xQueue,  void * const pvBuffer )
{
 1001120:	defffd04 	addi	sp,sp,-12
 1001124:	dc000015 	stw	r16,0(sp)
 1001128:	dfc00215 	stw	ra,8(sp)
 100112c:	dc400115 	stw	r17,4(sp)
 1001130:	2021883a 	mov	r16,r4
	portASSERT_IF_INTERRUPT_PRIORITY_INVALID();

	uxSavedInterruptStatus = portSET_INTERRUPT_MASK_FROM_ISR();
	{
		/* Cannot block in an ISR, so check there is data available. */
		if( pxQueue->uxMessagesWaiting > ( UBaseType_t ) 0 )
 1001134:	10000526 	beq	r2,zero,100114c <xQueuePeekFromISR+0x30>
		{
			traceQUEUE_PEEK_FROM_ISR( pxQueue );

			/* Remember the read position so it can be reset as nothing is
			actually being removed from the queue. */
			pcOriginalReadPosition = pxQueue->u.pcReadFrom;
 1001138:	24400317 	ldw	r17,12(r4)
			prvCopyDataFromQueue( pxQueue, pvBuffer );
 100113c:	100088c0 	call	100088c <prvCopyDataFromQueue>
			pxQueue->u.pcReadFrom = pcOriginalReadPosition;

			xReturn = pdPASS;
 1001140:	00800044 	movi	r2,1

			/* Remember the read position so it can be reset as nothing is
			actually being removed from the queue. */
			pcOriginalReadPosition = pxQueue->u.pcReadFrom;
			prvCopyDataFromQueue( pxQueue, pvBuffer );
			pxQueue->u.pcReadFrom = pcOriginalReadPosition;
 1001144:	84400315 	stw	r17,12(r16)
 1001148:	00000106 	br	1001150 <xQueuePeekFromISR+0x34>

			xReturn = pdPASS;
		}
		else
		{
			xReturn = pdFAIL;
 100114c:	0005883a 	mov	r2,zero
		}
	}
	portCLEAR_INTERRUPT_MASK_FROM_ISR( uxSavedInterruptStatus );

	return xReturn;
}
 1001150:	dfc00217 	ldw	ra,8(sp)
 1001154:	dc400117 	ldw	r17,4(sp)
 1001158:	dc000017 	ldw	r16,0(sp)
 100115c:	dec00304 	addi	sp,sp,12
 1001160:	f800283a 	ret

01001164 <uxQueueMessagesWaiting>:
/*-----------------------------------------------------------*/

UBaseType_t uxQueueMessagesWaiting( const QueueHandle_t xQueue )
{
 1001164:	defffe04 	addi	sp,sp,-8
 1001168:	dc000015 	stw	r16,0(sp)
 100116c:	2021883a 	mov	r16,r4
 1001170:	dfc00115 	stw	ra,4(sp)
UBaseType_t uxReturn;

	configASSERT( xQueue );

	taskENTER_CRITICAL();
 1001174:	1001bb80 	call	1001bb8 <vTaskEnterCritical>
	{
		uxReturn = ( ( Queue_t * ) xQueue )->uxMessagesWaiting;
 1001178:	84000e17 	ldw	r16,56(r16)
	}
	taskEXIT_CRITICAL();
 100117c:	1001be80 	call	1001be8 <vTaskExitCritical>

	return uxReturn;
} /*lint !e818 Pointer cannot be declared const as xQueue is a typedef not pointer. */
 1001180:	8005883a 	mov	r2,r16
 1001184:	dfc00117 	ldw	ra,4(sp)
 1001188:	dc000017 	ldw	r16,0(sp)
 100118c:	dec00204 	addi	sp,sp,8
 1001190:	f800283a 	ret

01001194 <uxQueueSpacesAvailable>:
/*-----------------------------------------------------------*/

UBaseType_t uxQueueSpacesAvailable( const QueueHandle_t xQueue )
{
 1001194:	defffd04 	addi	sp,sp,-12
 1001198:	dfc00215 	stw	ra,8(sp)
 100119c:	dc400115 	stw	r17,4(sp)
 10011a0:	dc000015 	stw	r16,0(sp)
 10011a4:	2023883a 	mov	r17,r4
Queue_t *pxQueue;

	pxQueue = ( Queue_t * ) xQueue;
	configASSERT( pxQueue );

	taskENTER_CRITICAL();
 10011a8:	1001bb80 	call	1001bb8 <vTaskEnterCritical>
	{
		uxReturn = pxQueue->uxLength - pxQueue->uxMessagesWaiting;
 10011ac:	88800f17 	ldw	r2,60(r17)
 10011b0:	8c000e17 	ldw	r16,56(r17)
 10011b4:	1421c83a 	sub	r16,r2,r16
	}
	taskEXIT_CRITICAL();
 10011b8:	1001be80 	call	1001be8 <vTaskExitCritical>

	return uxReturn;
} /*lint !e818 Pointer cannot be declared const as xQueue is a typedef not pointer. */
 10011bc:	8005883a 	mov	r2,r16
 10011c0:	dfc00217 	ldw	ra,8(sp)
 10011c4:	dc400117 	ldw	r17,4(sp)
 10011c8:	dc000017 	ldw	r16,0(sp)
 10011cc:	dec00304 	addi	sp,sp,12
 10011d0:	f800283a 	ret

010011d4 <uxQueueMessagesWaitingFromISR>:
{
UBaseType_t uxReturn;

	configASSERT( xQueue );

	uxReturn = ( ( Queue_t * ) xQueue )->uxMessagesWaiting;
 10011d4:	20800e17 	ldw	r2,56(r4)

	return uxReturn;
} /*lint !e818 Pointer cannot be declared const as xQueue is a typedef not pointer. */
 10011d8:	f800283a 	ret

010011dc <vQueueDelete>:
	#if ( configQUEUE_REGISTRY_SIZE > 0 )
	{
		vQueueUnregisterQueue( pxQueue );
	}
	#endif
	vPortFree( pxQueue );
 10011dc:	10007981 	jmpi	1000798 <vPortFree>

010011e0 <xQueueIsQueueEmptyFromISR>:
BaseType_t xQueueIsQueueEmptyFromISR( const QueueHandle_t xQueue )
{
BaseType_t xReturn;

	configASSERT( xQueue );
	if( ( ( Queue_t * ) xQueue )->uxMessagesWaiting == ( UBaseType_t ) 0 )
 10011e0:	20800e17 	ldw	r2,56(r4)
	{
		xReturn = pdFALSE;
	}

	return xReturn;
} /*lint !e818 xQueue could not be pointer to const because it is a typedef. */
 10011e4:	1005003a 	cmpeq	r2,r2,zero
 10011e8:	f800283a 	ret

010011ec <xQueueIsQueueFullFromISR>:
BaseType_t xQueueIsQueueFullFromISR( const QueueHandle_t xQueue )
{
BaseType_t xReturn;

	configASSERT( xQueue );
	if( ( ( Queue_t * ) xQueue )->uxMessagesWaiting == ( ( Queue_t * ) xQueue )->uxLength )
 10011ec:	20c00e17 	ldw	r3,56(r4)
 10011f0:	20800f17 	ldw	r2,60(r4)
	{
		xReturn = pdFALSE;
	}

	return xReturn;
} /*lint !e818 xQueue could not be pointer to const because it is a typedef. */
 10011f4:	1885003a 	cmpeq	r2,r3,r2
 10011f8:	f800283a 	ret

010011fc <xZerothTask>:
#include "asym.h"

#define speedy 10

void xZerothTask( void * data){
	alt_printf("Task 0 is running: ");
 10011fc:	01004034 	movhi	r4,256
#define IS_SLAVE
#include "asym.h"

#define speedy 10

void xZerothTask( void * data){
 1001200:	deffff04 	addi	sp,sp,-4
	alt_printf("Task 0 is running: ");
 1001204:	210c9b04 	addi	r4,r4,12908
#define IS_SLAVE
#include "asym.h"

#define speedy 10

void xZerothTask( void * data){
 1001208:	dfc00015 	stw	ra,0(sp)
	alt_printf("Task 0 is running: ");
 100120c:	1002c080 	call	1002c08 <alt_printf>
	usleep(1500000/speedy);
 1001210:	010000b4 	movhi	r4,2
 1001214:	21127c04 	addi	r4,r4,18928
 1001218:	1002df40 	call	1002df4 <usleep>
	alt_printf("Done\n");
 100121c:	01004034 	movhi	r4,256
 1001220:	210ca004 	addi	r4,r4,12928
}
 1001224:	dfc00017 	ldw	ra,0(sp)
 1001228:	dec00104 	addi	sp,sp,4
#define speedy 10

void xZerothTask( void * data){
	alt_printf("Task 0 is running: ");
	usleep(1500000/speedy);
	alt_printf("Done\n");
 100122c:	1002c081 	jmpi	1002c08 <alt_printf>

01001230 <xFirstTask>:
}

void xFirstTask( void * data){
	alt_printf("Task 1 is running: ");
 1001230:	01004034 	movhi	r4,256
	alt_printf("Task 0 is running: ");
	usleep(1500000/speedy);
	alt_printf("Done\n");
}

void xFirstTask( void * data){
 1001234:	deffff04 	addi	sp,sp,-4
	alt_printf("Task 1 is running: ");
 1001238:	210ca204 	addi	r4,r4,12936
	alt_printf("Task 0 is running: ");
	usleep(1500000/speedy);
	alt_printf("Done\n");
}

void xFirstTask( void * data){
 100123c:	dfc00015 	stw	ra,0(sp)
	alt_printf("Task 1 is running: ");
 1001240:	1002c080 	call	1002c08 <alt_printf>
	usleep(1500000/speedy);
 1001244:	010000b4 	movhi	r4,2
 1001248:	21127c04 	addi	r4,r4,18928
 100124c:	1002df40 	call	1002df4 <usleep>
	alt_printf("Done\n");
 1001250:	01004034 	movhi	r4,256
 1001254:	210ca004 	addi	r4,r4,12928
}
 1001258:	dfc00017 	ldw	ra,0(sp)
 100125c:	dec00104 	addi	sp,sp,4
}

void xFirstTask( void * data){
	alt_printf("Task 1 is running: ");
	usleep(1500000/speedy);
	alt_printf("Done\n");
 1001260:	1002c081 	jmpi	1002c08 <alt_printf>

01001264 <xSecondTask>:
}
void xSecondTask( void * data){
	alt_printf("Task 2 is running: ");
 1001264:	01004034 	movhi	r4,256
void xFirstTask( void * data){
	alt_printf("Task 1 is running: ");
	usleep(1500000/speedy);
	alt_printf("Done\n");
}
void xSecondTask( void * data){
 1001268:	deffff04 	addi	sp,sp,-4
	alt_printf("Task 2 is running: ");
 100126c:	210ca704 	addi	r4,r4,12956
void xFirstTask( void * data){
	alt_printf("Task 1 is running: ");
	usleep(1500000/speedy);
	alt_printf("Done\n");
}
void xSecondTask( void * data){
 1001270:	dfc00015 	stw	ra,0(sp)
	alt_printf("Task 2 is running: ");
 1001274:	1002c080 	call	1002c08 <alt_printf>
	usleep(2500000/speedy);
 1001278:	01000134 	movhi	r4,4
 100127c:	21342404 	addi	r4,r4,-12144
 1001280:	1002df40 	call	1002df4 <usleep>
	alt_printf("Done\n");
 1001284:	01004034 	movhi	r4,256
 1001288:	210ca004 	addi	r4,r4,12928
}
 100128c:	dfc00017 	ldw	ra,0(sp)
 1001290:	dec00104 	addi	sp,sp,4
	alt_printf("Done\n");
}
void xSecondTask( void * data){
	alt_printf("Task 2 is running: ");
	usleep(2500000/speedy);
	alt_printf("Done\n");
 1001294:	1002c081 	jmpi	1002c08 <alt_printf>

01001298 <xThirdTask>:
}

void xThirdTask( void * data){
	alt_printf("Task 3 is running: ");
 1001298:	01004034 	movhi	r4,256
	alt_printf("Task 2 is running: ");
	usleep(2500000/speedy);
	alt_printf("Done\n");
}

void xThirdTask( void * data){
 100129c:	deffff04 	addi	sp,sp,-4
	alt_printf("Task 3 is running: ");
 10012a0:	210cac04 	addi	r4,r4,12976
	alt_printf("Task 2 is running: ");
	usleep(2500000/speedy);
	alt_printf("Done\n");
}

void xThirdTask( void * data){
 10012a4:	dfc00015 	stw	ra,0(sp)
	alt_printf("Task 3 is running: ");
 10012a8:	1002c080 	call	1002c08 <alt_printf>
	usleep(3500000/speedy);
 10012ac:	01000174 	movhi	r4,5
 10012b0:	2115cc04 	addi	r4,r4,22320
 10012b4:	1002df40 	call	1002df4 <usleep>
	alt_printf("Done\n");
 10012b8:	01004034 	movhi	r4,256
 10012bc:	210ca004 	addi	r4,r4,12928
}
 10012c0:	dfc00017 	ldw	ra,0(sp)
 10012c4:	dec00104 	addi	sp,sp,4
}

void xThirdTask( void * data){
	alt_printf("Task 3 is running: ");
	usleep(3500000/speedy);
	alt_printf("Done\n");
 10012c8:	1002c081 	jmpi	1002c08 <alt_printf>

010012cc <xFourthTask>:
}

void xFourthTask( void * data){
	alt_printf("Task 4 is running: ");
 10012cc:	01004034 	movhi	r4,256
	alt_printf("Task 3 is running: ");
	usleep(3500000/speedy);
	alt_printf("Done\n");
}

void xFourthTask( void * data){
 10012d0:	deffff04 	addi	sp,sp,-4
	alt_printf("Task 4 is running: ");
 10012d4:	210cb104 	addi	r4,r4,12996
	alt_printf("Task 3 is running: ");
	usleep(3500000/speedy);
	alt_printf("Done\n");
}

void xFourthTask( void * data){
 10012d8:	dfc00015 	stw	ra,0(sp)
	alt_printf("Task 4 is running: ");
 10012dc:	1002c080 	call	1002c08 <alt_printf>
	usleep(2500000/speedy);
 10012e0:	01000134 	movhi	r4,4
 10012e4:	21342404 	addi	r4,r4,-12144
 10012e8:	1002df40 	call	1002df4 <usleep>
	alt_printf("Done\n");
 10012ec:	01004034 	movhi	r4,256
 10012f0:	210ca004 	addi	r4,r4,12928
}
 10012f4:	dfc00017 	ldw	ra,0(sp)
 10012f8:	dec00104 	addi	sp,sp,4
}

void xFourthTask( void * data){
	alt_printf("Task 4 is running: ");
	usleep(2500000/speedy);
	alt_printf("Done\n");
 10012fc:	1002c081 	jmpi	1002c08 <alt_printf>

01001300 <xFifthTask>:
}

void xFifthTask( void * data){
	alt_printf("Task 5 is running: ");
 1001300:	01004034 	movhi	r4,256
	alt_printf("Task 4 is running: ");
	usleep(2500000/speedy);
	alt_printf("Done\n");
}

void xFifthTask( void * data){
 1001304:	deffff04 	addi	sp,sp,-4
	alt_printf("Task 5 is running: ");
 1001308:	210cb604 	addi	r4,r4,13016
	alt_printf("Task 4 is running: ");
	usleep(2500000/speedy);
	alt_printf("Done\n");
}

void xFifthTask( void * data){
 100130c:	dfc00015 	stw	ra,0(sp)
	alt_printf("Task 5 is running: ");
 1001310:	1002c080 	call	1002c08 <alt_printf>
	usleep(1500000/speedy);
 1001314:	010000b4 	movhi	r4,2
 1001318:	21127c04 	addi	r4,r4,18928
 100131c:	1002df40 	call	1002df4 <usleep>
	alt_printf("Done\n");
 1001320:	01004034 	movhi	r4,256
 1001324:	210ca004 	addi	r4,r4,12928
}
 1001328:	dfc00017 	ldw	ra,0(sp)
 100132c:	dec00104 	addi	sp,sp,4
}

void xFifthTask( void * data){
	alt_printf("Task 5 is running: ");
	usleep(1500000/speedy);
	alt_printf("Done\n");
 1001330:	1002c081 	jmpi	1002c08 <alt_printf>

01001334 <xSixthTask>:
}

void xSixthTask( void * data){
	alt_printf("Task 6 is running: ");
 1001334:	01004034 	movhi	r4,256
	alt_printf("Task 5 is running: ");
	usleep(1500000/speedy);
	alt_printf("Done\n");
}

void xSixthTask( void * data){
 1001338:	deffff04 	addi	sp,sp,-4
	alt_printf("Task 6 is running: ");
 100133c:	210cbb04 	addi	r4,r4,13036
	alt_printf("Task 5 is running: ");
	usleep(1500000/speedy);
	alt_printf("Done\n");
}

void xSixthTask( void * data){
 1001340:	dfc00015 	stw	ra,0(sp)
	alt_printf("Task 6 is running: ");
 1001344:	1002c080 	call	1002c08 <alt_printf>
	usleep(3500000/speedy);
 1001348:	01000174 	movhi	r4,5
 100134c:	2115cc04 	addi	r4,r4,22320
 1001350:	1002df40 	call	1002df4 <usleep>
	alt_printf("Done\n");
 1001354:	01004034 	movhi	r4,256
 1001358:	210ca004 	addi	r4,r4,12928
}
 100135c:	dfc00017 	ldw	ra,0(sp)
 1001360:	dec00104 	addi	sp,sp,4
}

void xSixthTask( void * data){
	alt_printf("Task 6 is running: ");
	usleep(3500000/speedy);
	alt_printf("Done\n");
 1001364:	1002c081 	jmpi	1002c08 <alt_printf>

01001368 <main>:
}

int main()
{ 
 1001368:	deffff04 	addi	sp,sp,-4
 100136c:	dfc00015 	stw	ra,0(sp)
//		  alt_printf("Error: could not open the mutex\n");
//		  return 0;
//	  }
//	  mutex = altera_avalon_mutex_open(MUTEX_0_NAME);

	  xAsymMutexInit();
 1001370:	10002180 	call	1000218 <xAsymMutexInit>
	  xAsymReqQueuInit();
 1001374:	10002580 	call	1000258 <xAsymReqQueuInit>

	  alt_putstr("\n\n\n\n\n\n\n\n\n\n\n\n\n\n\n\n\n\n\n\n\n");
 1001378:	01004034 	movhi	r4,256
 100137c:	210cc004 	addi	r4,r4,13056
 1001380:	1002dbc0 	call	1002dbc <alt_putstr>
	  alt_putstr("CPU 1 started\n");
 1001384:	01004034 	movhi	r4,256
 1001388:	210cc604 	addi	r4,r4,13080
 100138c:	1002dbc0 	call	1002dbc <alt_putstr>
//  while (status < 3 ){
//	  alt_printf("Waiting: %x!\n",status++ );
//	  usleep(900000);
//  }

  xAsymTaskCreate(xZerothTask , Task0 );
 1001390:	01004034 	movhi	r4,256
 1001394:	21047f04 	addi	r4,r4,4604
 1001398:	000b883a 	mov	r5,zero
 100139c:	100034c0 	call	100034c <xAsymTaskCreate>
  xAsymTaskCreate(xFirstTask , Task1 );
 10013a0:	01004034 	movhi	r4,256
 10013a4:	21048c04 	addi	r4,r4,4656
 10013a8:	01400044 	movi	r5,1
 10013ac:	100034c0 	call	100034c <xAsymTaskCreate>
  xAsymTaskCreate(xSecondTask , Task2 );
 10013b0:	01004034 	movhi	r4,256
 10013b4:	21049904 	addi	r4,r4,4708
 10013b8:	01400084 	movi	r5,2
 10013bc:	100034c0 	call	100034c <xAsymTaskCreate>
  xAsymTaskCreate(xThirdTask , Task3 );
 10013c0:	01004034 	movhi	r4,256
 10013c4:	2104a604 	addi	r4,r4,4760
 10013c8:	014000c4 	movi	r5,3
 10013cc:	100034c0 	call	100034c <xAsymTaskCreate>
  xAsymTaskCreate(xFourthTask , Task4 );
 10013d0:	01004034 	movhi	r4,256
 10013d4:	2104b304 	addi	r4,r4,4812
 10013d8:	01400104 	movi	r5,4
 10013dc:	100034c0 	call	100034c <xAsymTaskCreate>
  xAsymTaskCreate(xFifthTask , Task5 );
 10013e0:	01004034 	movhi	r4,256
 10013e4:	2104c004 	addi	r4,r4,4864
 10013e8:	01400144 	movi	r5,5
 10013ec:	100034c0 	call	100034c <xAsymTaskCreate>
  xAsymTaskCreate(xSixthTask , Task6 );
 10013f0:	01004034 	movhi	r4,256
 10013f4:	2104cd04 	addi	r4,r4,4916
 10013f8:	01400184 	movi	r5,6
 10013fc:	100034c0 	call	100034c <xAsymTaskCreate>
  status = 0;
//  while (status < 3 ){
//	  alt_printf("Got: %x in index %x!\n",xAsymGetReq(status), status++ );
////	  usleep(200000);
//  }
  vAsymStartScheduler();
 1001400:	10004500 	call	1000450 <vAsymStartScheduler>
  while (1){};
 1001404:	003fff06 	br	1001404 <main+0x9c>

01001408 <prvTaskIsTaskSuspended>:

		/* It does not make sense to check if the calling task is suspended. */
		configASSERT( xTask );

		/* Is the task being resumed actually in the suspended list? */
		if( listIS_CONTAINED_WITHIN( &xSuspendedTaskList, &( pxTCB->xGenericListItem ) ) != pdFALSE )
 1001408:	20c00517 	ldw	r3,20(r4)
 100140c:	00804034 	movhi	r2,256
 1001410:	1094da04 	addi	r2,r2,21352
 1001414:	1880051e 	bne	r3,r2,100142c <prvTaskIsTaskSuspended+0x24>
		{
			/* Has the task already been resumed from within an ISR? */
			if( listIS_CONTAINED_WITHIN( &xPendingReadyList, &( pxTCB->xEventListItem ) ) == pdFALSE )
 1001418:	20c00a17 	ldw	r3,40(r4)
 100141c:	01004034 	movhi	r4,256
 1001420:	2114e404 	addi	r4,r4,21392
			{
				/* Is it in the suspended list because it is in the	Suspended
				state, or because is is blocked with no timeout? */
				if( listIS_CONTAINED_WITHIN( NULL, &( pxTCB->xEventListItem ) ) != pdFALSE )
 1001424:	1805003a 	cmpeq	r2,r3,zero

		/* Is the task being resumed actually in the suspended list? */
		if( listIS_CONTAINED_WITHIN( &xSuspendedTaskList, &( pxTCB->xGenericListItem ) ) != pdFALSE )
		{
			/* Has the task already been resumed from within an ISR? */
			if( listIS_CONTAINED_WITHIN( &xPendingReadyList, &( pxTCB->xEventListItem ) ) == pdFALSE )
 1001428:	1900011e 	bne	r3,r4,1001430 <prvTaskIsTaskSuspended+0x28>

#if ( INCLUDE_vTaskSuspend == 1 )

	static BaseType_t prvTaskIsTaskSuspended( const TaskHandle_t xTask )
	{
	BaseType_t xReturn = pdFALSE;
 100142c:	0005883a 	mov	r2,zero
		{
			mtCOVERAGE_TEST_MARKER();
		}

		return xReturn;
	} /*lint !e818 xTask cannot be a pointer to const because it is a typedef. */
 1001430:	f800283a 	ret

01001434 <prvResetNextTaskUnblockTime>:

static void prvResetNextTaskUnblockTime( void )
{
TCB_t *pxTCB;

	if( listLIST_IS_EMPTY( pxDelayedTaskList ) != pdFALSE )
 1001434:	d0a01d17 	ldw	r2,-32652(gp)
 1001438:	10800017 	ldw	r2,0(r2)
 100143c:	1000021e 	bne	r2,zero,1001448 <prvResetNextTaskUnblockTime+0x14>
	{
		/* The new current delayed list is empty.  Set xNextTaskUnblockTime to
		the maximum possible value so it is	extremely unlikely that the
		if( xTickCount >= xNextTaskUnblockTime ) test will pass until
		there is an item in the delayed list. */
		xNextTaskUnblockTime = portMAX_DELAY;
 1001440:	00bfffc4 	movi	r2,-1
 1001444:	00000406 	br	1001458 <prvResetNextTaskUnblockTime+0x24>
	{
		/* The new current delayed list is not empty, get the value of
		the item at the head of the delayed list.  This is the time at
		which the task at the head of the delayed list should be removed
		from the Blocked state. */
		( pxTCB ) = ( TCB_t * ) listGET_OWNER_OF_HEAD_ENTRY( pxDelayedTaskList );
 1001448:	d0a01d17 	ldw	r2,-32652(gp)
 100144c:	10800317 	ldw	r2,12(r2)
		xNextTaskUnblockTime = listGET_LIST_ITEM_VALUE( &( ( pxTCB )->xGenericListItem ) );
 1001450:	10800317 	ldw	r2,12(r2)
 1001454:	10800117 	ldw	r2,4(r2)
 1001458:	d0a01215 	stw	r2,-32696(gp)
 100145c:	f800283a 	ret

01001460 <prvAddCurrentTaskToDelayedList>:
/*-----------------------------------------------------------*/

static void prvAddCurrentTaskToDelayedList( const TickType_t xTimeToWake )
{
	/* The list item will be inserted in wake time order. */
	listSET_LIST_ITEM_VALUE( &( pxCurrentTCB->xGenericListItem ), xTimeToWake );
 1001460:	d0a01e17 	ldw	r2,-32648(gp)
 1001464:	11000115 	stw	r4,4(r2)

	if( xTimeToWake < xTickCount )
 1001468:	d0a01917 	ldw	r2,-32668(gp)
 100146c:	2080042e 	bgeu	r4,r2,1001480 <prvAddCurrentTaskToDelayedList+0x20>
	{
		/* Wake time has overflowed.  Place this item in the overflow list. */
		vListInsert( pxOverflowDelayedTaskList, &( pxCurrentTCB->xGenericListItem ) );
 1001470:	d1201c17 	ldw	r4,-32656(gp)
 1001474:	d1601e17 	ldw	r5,-32648(gp)
 1001478:	29400104 	addi	r5,r5,4
 100147c:	10004fc1 	jmpi	10004fc <vListInsert>
	#endif /* vTaskDelete */
}
/*-----------------------------------------------------------*/

static void prvAddCurrentTaskToDelayedList( const TickType_t xTimeToWake )
{
 1001480:	defffe04 	addi	sp,sp,-8
 1001484:	dc000015 	stw	r16,0(sp)
 1001488:	2021883a 	mov	r16,r4
		vListInsert( pxOverflowDelayedTaskList, &( pxCurrentTCB->xGenericListItem ) );
	}
	else
	{
		/* The wake time has not overflowed, so the current block list is used. */
		vListInsert( pxDelayedTaskList, &( pxCurrentTCB->xGenericListItem ) );
 100148c:	d1201d17 	ldw	r4,-32652(gp)
 1001490:	d1601e17 	ldw	r5,-32648(gp)
	#endif /* vTaskDelete */
}
/*-----------------------------------------------------------*/

static void prvAddCurrentTaskToDelayedList( const TickType_t xTimeToWake )
{
 1001494:	dfc00115 	stw	ra,4(sp)
		vListInsert( pxOverflowDelayedTaskList, &( pxCurrentTCB->xGenericListItem ) );
	}
	else
	{
		/* The wake time has not overflowed, so the current block list is used. */
		vListInsert( pxDelayedTaskList, &( pxCurrentTCB->xGenericListItem ) );
 1001498:	29400104 	addi	r5,r5,4
 100149c:	10004fc0 	call	10004fc <vListInsert>

		/* If the task entering the blocked state was placed at the head of the
		list of blocked tasks then xNextTaskUnblockTime needs to be updated
		too. */
		if( xTimeToWake < xNextTaskUnblockTime )
 10014a0:	d0a01217 	ldw	r2,-32696(gp)
 10014a4:	8080012e 	bgeu	r16,r2,10014ac <prvAddCurrentTaskToDelayedList+0x4c>
		{
			xNextTaskUnblockTime = xTimeToWake;
 10014a8:	d4201215 	stw	r16,-32696(gp)
		else
		{
			mtCOVERAGE_TEST_MARKER();
		}
	}
}
 10014ac:	dfc00117 	ldw	ra,4(sp)
 10014b0:	dc000017 	ldw	r16,0(sp)
 10014b4:	dec00204 	addi	sp,sp,8
 10014b8:	f800283a 	ret

010014bc <uxTaskPriorityGetFromISR>:

		uxSavedInterruptState = portSET_INTERRUPT_MASK_FROM_ISR();
		{
			/* If null is passed in here then it is the priority of the calling
			task that is being queried. */
			pxTCB = prvGetTCBFromHandle( xTask );
 10014bc:	2000011e 	bne	r4,zero,10014c4 <uxTaskPriorityGetFromISR+0x8>
 10014c0:	d1201e17 	ldw	r4,-32648(gp)
			uxReturn = pxTCB->uxPriority;
		}
		portCLEAR_INTERRUPT_MASK_FROM_ISR( uxSavedInterruptState );

		return uxReturn;
	}
 10014c4:	20800b17 	ldw	r2,44(r4)
 10014c8:	f800283a 	ret

010014cc <xTaskResumeFromISR>:
/*-----------------------------------------------------------*/

#if ( ( INCLUDE_xTaskResumeFromISR == 1 ) && ( INCLUDE_vTaskSuspend == 1 ) )

	BaseType_t xTaskResumeFromISR( TaskHandle_t xTaskToResume )
	{
 10014cc:	defffc04 	addi	sp,sp,-16
 10014d0:	dc400115 	stw	r17,4(sp)
 10014d4:	dfc00315 	stw	ra,12(sp)
 10014d8:	dc800215 	stw	r18,8(sp)
 10014dc:	dc000015 	stw	r16,0(sp)
 10014e0:	2023883a 	mov	r17,r4
		http://www.freertos.org/RTOS-Cortex-M3-M4.html */
		portASSERT_IF_INTERRUPT_PRIORITY_INVALID();

		uxSavedInterruptStatus = portSET_INTERRUPT_MASK_FROM_ISR();
		{
			if( prvTaskIsTaskSuspended( pxTCB ) == pdTRUE )
 10014e4:	10014080 	call	1001408 <prvTaskIsTaskSuspended>
 10014e8:	00c00044 	movi	r3,1
 10014ec:	10c0191e 	bne	r2,r3,1001554 <xTaskResumeFromISR+0x88>
			{
				traceTASK_RESUME_FROM_ISR( pxTCB );

				/* Check the ready lists can be accessed. */
				if( uxSchedulerSuspended == ( UBaseType_t ) pdFALSE )
 10014f0:	d0a01117 	ldw	r2,-32700(gp)
 10014f4:	1000131e 	bne	r2,zero,1001544 <xTaskResumeFromISR+0x78>
				{
					/* Ready lists can be accessed so move the task from the
					suspended list to the ready list directly. */
					if( pxTCB->uxPriority >= pxCurrentTCB->uxPriority )
 10014f8:	d0e01e17 	ldw	r3,-32648(gp)
 10014fc:	88800b17 	ldw	r2,44(r17)
					else
					{
						mtCOVERAGE_TEST_MARKER();
					}

					( void ) uxListRemove(  &( pxTCB->xGenericListItem ) );
 1001500:	8c800104 	addi	r18,r17,4
				/* Check the ready lists can be accessed. */
				if( uxSchedulerSuspended == ( UBaseType_t ) pdFALSE )
				{
					/* Ready lists can be accessed so move the task from the
					suspended list to the ready list directly. */
					if( pxTCB->uxPriority >= pxCurrentTCB->uxPriority )
 1001504:	1c000b17 	ldw	r16,44(r3)
					else
					{
						mtCOVERAGE_TEST_MARKER();
					}

					( void ) uxListRemove(  &( pxTCB->xGenericListItem ) );
 1001508:	9009883a 	mov	r4,r18
				/* Check the ready lists can be accessed. */
				if( uxSchedulerSuspended == ( UBaseType_t ) pdFALSE )
				{
					/* Ready lists can be accessed so move the task from the
					suspended list to the ready list directly. */
					if( pxTCB->uxPriority >= pxCurrentTCB->uxPriority )
 100150c:	1421403a 	cmpgeu	r16,r2,r16
					else
					{
						mtCOVERAGE_TEST_MARKER();
					}

					( void ) uxListRemove(  &( pxTCB->xGenericListItem ) );
 1001510:	10005500 	call	1000550 <uxListRemove>
					prvAddTaskToReadyList( pxTCB );
 1001514:	89000b17 	ldw	r4,44(r17)
 1001518:	d0a01817 	ldw	r2,-32672(gp)
 100151c:	1100012e 	bgeu	r2,r4,1001524 <xTaskResumeFromISR+0x58>
 1001520:	d1201815 	stw	r4,-32672(gp)
 1001524:	01400504 	movi	r5,20
 1001528:	1002a740 	call	1002a74 <__mulsi3>
 100152c:	01004034 	movhi	r4,256
 1001530:	2114f304 	addi	r4,r4,21452
 1001534:	2089883a 	add	r4,r4,r2
 1001538:	900b883a 	mov	r5,r18
 100153c:	10004cc0 	call	10004cc <vListInsertEnd>
 1001540:	00000506 	br	1001558 <xTaskResumeFromISR+0x8c>
				else
				{
					/* The delayed or ready lists cannot be accessed so the task
					is held in the pending ready list until the scheduler is
					unsuspended. */
					vListInsertEnd( &( xPendingReadyList ), &( pxTCB->xEventListItem ) );
 1001544:	01004034 	movhi	r4,256
 1001548:	2114e404 	addi	r4,r4,21392
 100154c:	89400604 	addi	r5,r17,24
 1001550:	10004cc0 	call	10004cc <vListInsertEnd>

#if ( ( INCLUDE_xTaskResumeFromISR == 1 ) && ( INCLUDE_vTaskSuspend == 1 ) )

	BaseType_t xTaskResumeFromISR( TaskHandle_t xTaskToResume )
	{
	BaseType_t xYieldRequired = pdFALSE;
 1001554:	0021883a 	mov	r16,zero
			}
		}
		portCLEAR_INTERRUPT_MASK_FROM_ISR( uxSavedInterruptStatus );

		return xYieldRequired;
	}
 1001558:	8005883a 	mov	r2,r16
 100155c:	dfc00317 	ldw	ra,12(sp)
 1001560:	dc800217 	ldw	r18,8(sp)
 1001564:	dc400117 	ldw	r17,4(sp)
 1001568:	dc000017 	ldw	r16,0(sp)
 100156c:	dec00404 	addi	sp,sp,16
 1001570:	f800283a 	ret

01001574 <vTaskEndScheduler>:
static ALT_INLINE alt_irq_context ALT_ALWAYS_INLINE 
       alt_irq_disable_all (void)
{
  alt_irq_context context;

  NIOS2_READ_STATUS (context);
 1001574:	0007303a 	rdctl	r3,status

  NIOS2_WRITE_STATUS (context & ~NIOS2_STATUS_PIE_MSK);
 1001578:	00bfff84 	movi	r2,-2
 100157c:	1884703a 	and	r2,r3,r2
 1001580:	1001703a 	wrctl	status,r2
{
	/* Stop the scheduler interrupts and call the portable scheduler end
	routine so the original ISRs can be restored if necessary.  The port
	layer must ensure interrupts enable	bit is left in the correct state. */
	portDISABLE_INTERRUPTS();
	xSchedulerRunning = pdFALSE;
 1001584:	d0201715 	stw	zero,-32676(gp)
	vPortEndScheduler();
 1001588:	10005f41 	jmpi	10005f4 <vPortEndScheduler>

0100158c <vTaskSuspendAll>:
{
	/* A critical section is not required as the variable is of type
	BaseType_t.  Please read Richard Barry's reply in the following link to a
	post in the FreeRTOS support forum before reporting this as a bug! -
	http://goo.gl/wu4acr */
	++uxSchedulerSuspended;
 100158c:	d0a01117 	ldw	r2,-32700(gp)
 1001590:	10800044 	addi	r2,r2,1
 1001594:	d0a01115 	stw	r2,-32700(gp)
 1001598:	f800283a 	ret

0100159c <xTaskGetTickCount>:
TickType_t xTicks;

	/* Critical section required if running on a 16 bit processor. */
	portTICK_TYPE_ENTER_CRITICAL();
	{
		xTicks = xTickCount;
 100159c:	d0a01917 	ldw	r2,-32668(gp)
	}
	portTICK_TYPE_EXIT_CRITICAL();

	return xTicks;
}
 10015a0:	f800283a 	ret

010015a4 <xTaskGetTickCountFromISR>:
	link: http://www.freertos.org/RTOS-Cortex-M3-M4.html */
	portASSERT_IF_INTERRUPT_PRIORITY_INVALID();

	uxSavedInterruptStatus = portTICK_TYPE_SET_INTERRUPT_MASK_FROM_ISR();
	{
		xReturn = xTickCount;
 10015a4:	d0a01917 	ldw	r2,-32668(gp)
	}
	portTICK_TYPE_CLEAR_INTERRUPT_MASK_FROM_ISR( uxSavedInterruptStatus );

	return xReturn;
}
 10015a8:	f800283a 	ret

010015ac <uxTaskGetNumberOfTasks>:

UBaseType_t uxTaskGetNumberOfTasks( void )
{
	/* A critical section is not required because the variables are of type
	BaseType_t. */
	return uxCurrentNumberOfTasks;
 10015ac:	d0a01a17 	ldw	r2,-32664(gp)
}
 10015b0:	f800283a 	ret

010015b4 <xTaskIncrementTick>:

	/* Called by the portable layer each time a tick interrupt occurs.
	Increments the tick then checks to see if the new tick value will cause any
	tasks to be unblocked. */
	traceTASK_INCREMENT_TICK( xTickCount );
	if( uxSchedulerSuspended == ( UBaseType_t ) pdFALSE )
 10015b4:	d0a01117 	ldw	r2,-32700(gp)

#endif /* configUSE_TICKLESS_IDLE */
/*----------------------------------------------------------*/

BaseType_t xTaskIncrementTick( void )
{
 10015b8:	defffa04 	addi	sp,sp,-24
 10015bc:	dfc00515 	stw	ra,20(sp)
 10015c0:	dd000415 	stw	r20,16(sp)
 10015c4:	dcc00315 	stw	r19,12(sp)
 10015c8:	dc800215 	stw	r18,8(sp)
 10015cc:	dc400115 	stw	r17,4(sp)
 10015d0:	dc000015 	stw	r16,0(sp)

	/* Called by the portable layer each time a tick interrupt occurs.
	Increments the tick then checks to see if the new tick value will cause any
	tasks to be unblocked. */
	traceTASK_INCREMENT_TICK( xTickCount );
	if( uxSchedulerSuspended == ( UBaseType_t ) pdFALSE )
 10015d4:	1000271e 	bne	r2,zero,1001674 <xTaskIncrementTick+0xc0>
	{
		/* Increment the RTOS tick, switching the delayed and overflowed
		delayed lists if it wraps to 0. */
		++xTickCount;
 10015d8:	d0a01917 	ldw	r2,-32668(gp)
 10015dc:	10800044 	addi	r2,r2,1
 10015e0:	d0a01915 	stw	r2,-32668(gp)

		{
			/* Minor optimisation.  The tick count cannot change in this
			block. */
			const TickType_t xConstTickCount = xTickCount;
 10015e4:	d4e01917 	ldw	r19,-32668(gp)

			if( xConstTickCount == ( TickType_t ) 0U )
 10015e8:	9800081e 	bne	r19,zero,100160c <xTaskIncrementTick+0x58>
			{
				taskSWITCH_DELAYED_LISTS();
 10015ec:	d0a01d17 	ldw	r2,-32652(gp)
 10015f0:	d0e01c17 	ldw	r3,-32656(gp)
 10015f4:	d0e01d15 	stw	r3,-32652(gp)
 10015f8:	d0a01c15 	stw	r2,-32656(gp)
 10015fc:	d0a01417 	ldw	r2,-32688(gp)
 1001600:	10800044 	addi	r2,r2,1
 1001604:	d0a01415 	stw	r2,-32688(gp)
 1001608:	10014340 	call	1001434 <prvResetNextTaskUnblockTime>

			/* See if this tick has made a timeout expire.  Tasks are stored in
			the	queue in the order of their wake time - meaning once one task
			has been found whose block time has not expired there is no need to
			look any further down the list. */
			if( xConstTickCount >= xNextTaskUnblockTime )
 100160c:	d0a01217 	ldw	r2,-32696(gp)
 1001610:	04804034 	movhi	r18,256
 1001614:	9494f304 	addi	r18,r18,21452
 1001618:	0021883a 	mov	r16,zero
 100161c:	98800b36 	bltu	r19,r2,100164c <xTaskIncrementTick+0x98>
			{
				for( ;; )
				{
					if( listLIST_IS_EMPTY( pxDelayedTaskList ) != pdFALSE )
 1001620:	d0a01d17 	ldw	r2,-32652(gp)
 1001624:	10800017 	ldw	r2,0(r2)
 1001628:	1000021e 	bne	r2,zero,1001634 <xTaskIncrementTick+0x80>
						/* The delayed list is empty.  Set xNextTaskUnblockTime
						to the maximum possible value so it is extremely
						unlikely that the
						if( xTickCount >= xNextTaskUnblockTime ) test will pass
						next time through. */
						xNextTaskUnblockTime = portMAX_DELAY;
 100162c:	00bfffc4 	movi	r2,-1
 1001630:	00000506 	br	1001648 <xTaskIncrementTick+0x94>
					{
						/* The delayed list is not empty, get the value of the
						item at the head of the delayed list.  This is the time
						at which the task at the head of the delayed list must
						be removed from the Blocked state. */
						pxTCB = ( TCB_t * ) listGET_OWNER_OF_HEAD_ENTRY( pxDelayedTaskList );
 1001634:	d0a01d17 	ldw	r2,-32652(gp)
 1001638:	10800317 	ldw	r2,12(r2)
 100163c:	14400317 	ldw	r17,12(r2)
						xItemValue = listGET_LIST_ITEM_VALUE( &( pxTCB->xGenericListItem ) );
 1001640:	88800117 	ldw	r2,4(r17)

						if( xConstTickCount < xItemValue )
 1001644:	9880132e 	bgeu	r19,r2,1001694 <xTaskIncrementTick+0xe0>
						/* The delayed list is empty.  Set xNextTaskUnblockTime
						to the maximum possible value so it is extremely
						unlikely that the
						if( xTickCount >= xNextTaskUnblockTime ) test will pass
						next time through. */
						xNextTaskUnblockTime = portMAX_DELAY;
 1001648:	d0a01215 	stw	r2,-32696(gp)
		/* Tasks of equal priority to the currently running task will share
		processing time (time slice) if preemption is on, and the application
		writer has not explicitly turned time slicing off. */
		#if ( ( configUSE_PREEMPTION == 1 ) && ( configUSE_TIME_SLICING == 1 ) )
		{
			if( listCURRENT_LIST_LENGTH( &( pxReadyTasksLists[ pxCurrentTCB->uxPriority ] ) ) > ( UBaseType_t ) 1 )
 100164c:	d0a01e17 	ldw	r2,-32648(gp)
 1001650:	01400504 	movi	r5,20
 1001654:	11000b17 	ldw	r4,44(r2)
 1001658:	1002a740 	call	1002a74 <__mulsi3>
 100165c:	9085883a 	add	r2,r18,r2
 1001660:	10800017 	ldw	r2,0(r2)
 1001664:	00c00044 	movi	r3,1
 1001668:	1880062e 	bgeu	r3,r2,1001684 <xTaskIncrementTick+0xd0>
			{
				xSwitchRequired = pdTRUE;
 100166c:	1821883a 	mov	r16,r3
 1001670:	00000406 	br	1001684 <xTaskIncrementTick+0xd0>
		}
		#endif /* configUSE_TICK_HOOK */
	}
	else
	{
		++uxPendedTicks;
 1001674:	d0a01617 	ldw	r2,-32680(gp)

BaseType_t xTaskIncrementTick( void )
{
TCB_t * pxTCB;
TickType_t xItemValue;
BaseType_t xSwitchRequired = pdFALSE;
 1001678:	0021883a 	mov	r16,zero
		}
		#endif /* configUSE_TICK_HOOK */
	}
	else
	{
		++uxPendedTicks;
 100167c:	10800044 	addi	r2,r2,1
 1001680:	d0a01615 	stw	r2,-32680(gp)
		#endif
	}

	#if ( configUSE_PREEMPTION == 1 )
	{
		if( xYieldPending != pdFALSE )
 1001684:	d0a01517 	ldw	r2,-32684(gp)
 1001688:	10001826 	beq	r2,zero,10016ec <xTaskIncrementTick+0x138>
		{
			xSwitchRequired = pdTRUE;
 100168c:	04000044 	movi	r16,1
 1001690:	00001606 	br	10016ec <xTaskIncrementTick+0x138>
						{
							mtCOVERAGE_TEST_MARKER();
						}

						/* It is time to remove the item from the Blocked state. */
						( void ) uxListRemove( &( pxTCB->xGenericListItem ) );
 1001694:	8d000104 	addi	r20,r17,4
 1001698:	a009883a 	mov	r4,r20
 100169c:	10005500 	call	1000550 <uxListRemove>

						/* Is the task waiting on an event also?  If so remove
						it from the event list. */
						if( listLIST_ITEM_CONTAINER( &( pxTCB->xEventListItem ) ) != NULL )
 10016a0:	88800a17 	ldw	r2,40(r17)
 10016a4:	10000226 	beq	r2,zero,10016b0 <xTaskIncrementTick+0xfc>
						{
							( void ) uxListRemove( &( pxTCB->xEventListItem ) );
 10016a8:	89000604 	addi	r4,r17,24
 10016ac:	10005500 	call	1000550 <uxListRemove>
							mtCOVERAGE_TEST_MARKER();
						}

						/* Place the unblocked task into the appropriate ready
						list. */
						prvAddTaskToReadyList( pxTCB );
 10016b0:	89000b17 	ldw	r4,44(r17)
 10016b4:	d0a01817 	ldw	r2,-32672(gp)
 10016b8:	1100012e 	bgeu	r2,r4,10016c0 <xTaskIncrementTick+0x10c>
 10016bc:	d1201815 	stw	r4,-32672(gp)
 10016c0:	01400504 	movi	r5,20
 10016c4:	1002a740 	call	1002a74 <__mulsi3>
 10016c8:	9089883a 	add	r4,r18,r2
 10016cc:	a00b883a 	mov	r5,r20
 10016d0:	10004cc0 	call	10004cc <vListInsertEnd>
						{
							/* Preemption is on, but a context switch should
							only be performed if the unblocked task has a
							priority that is equal to or higher than the
							currently executing task. */
							if( pxTCB->uxPriority >= pxCurrentTCB->uxPriority )
 10016d4:	d0a01e17 	ldw	r2,-32648(gp)
 10016d8:	88c00b17 	ldw	r3,44(r17)
 10016dc:	10800b17 	ldw	r2,44(r2)
 10016e0:	18bfcf36 	bltu	r3,r2,1001620 <xTaskIncrementTick+0x6c>
							{
								xSwitchRequired = pdTRUE;
 10016e4:	04000044 	movi	r16,1
 10016e8:	003fcd06 	br	1001620 <xTaskIncrementTick+0x6c>
		}
	}
	#endif /* configUSE_PREEMPTION */

	return xSwitchRequired;
}
 10016ec:	8005883a 	mov	r2,r16
 10016f0:	dfc00517 	ldw	ra,20(sp)
 10016f4:	dd000417 	ldw	r20,16(sp)
 10016f8:	dcc00317 	ldw	r19,12(sp)
 10016fc:	dc800217 	ldw	r18,8(sp)
 1001700:	dc400117 	ldw	r17,4(sp)
 1001704:	dc000017 	ldw	r16,0(sp)
 1001708:	dec00604 	addi	sp,sp,24
 100170c:	f800283a 	ret

01001710 <vTaskSwitchContext>:
#endif /* configUSE_APPLICATION_TASK_TAG */
/*-----------------------------------------------------------*/

void vTaskSwitchContext( void )
{
	if( uxSchedulerSuspended != ( UBaseType_t ) pdFALSE )
 1001710:	d0a01117 	ldw	r2,-32700(gp)
 1001714:	10000326 	beq	r2,zero,1001724 <vTaskSwitchContext+0x14>
	{
		/* The scheduler is currently suspended - do not allow a context
		switch. */
		xYieldPending = pdTRUE;
 1001718:	00800044 	movi	r2,1
 100171c:	d0a01515 	stw	r2,-32684(gp)
 1001720:	f800283a 	ret

#endif /* configUSE_APPLICATION_TASK_TAG */
/*-----------------------------------------------------------*/

void vTaskSwitchContext( void )
{
 1001724:	defffd04 	addi	sp,sp,-12
 1001728:	dc400115 	stw	r17,4(sp)
		taskFIRST_CHECK_FOR_STACK_OVERFLOW();
		taskSECOND_CHECK_FOR_STACK_OVERFLOW();

		/* Select a new task to run using either the generic C or port
		optimised asm code. */
		taskSELECT_HIGHEST_PRIORITY_TASK();
 100172c:	04404034 	movhi	r17,256

#endif /* configUSE_APPLICATION_TASK_TAG */
/*-----------------------------------------------------------*/

void vTaskSwitchContext( void )
{
 1001730:	dfc00215 	stw	ra,8(sp)
 1001734:	dc000015 	stw	r16,0(sp)
		switch. */
		xYieldPending = pdTRUE;
	}
	else
	{
		xYieldPending = pdFALSE;
 1001738:	d0201515 	stw	zero,-32684(gp)
		taskFIRST_CHECK_FOR_STACK_OVERFLOW();
		taskSECOND_CHECK_FOR_STACK_OVERFLOW();

		/* Select a new task to run using either the generic C or port
		optimised asm code. */
		taskSELECT_HIGHEST_PRIORITY_TASK();
 100173c:	8c54f304 	addi	r17,r17,21452
 1001740:	d1201817 	ldw	r4,-32672(gp)
 1001744:	01400504 	movi	r5,20
 1001748:	04004034 	movhi	r16,256
 100174c:	1002a740 	call	1002a74 <__mulsi3>
 1001750:	8885883a 	add	r2,r17,r2
 1001754:	10800017 	ldw	r2,0(r2)
 1001758:	8414f304 	addi	r16,r16,21452
 100175c:	1000041e 	bne	r2,zero,1001770 <vTaskSwitchContext+0x60>
 1001760:	d0a01817 	ldw	r2,-32672(gp)
 1001764:	10bfffc4 	addi	r2,r2,-1
 1001768:	d0a01815 	stw	r2,-32672(gp)
 100176c:	003ff406 	br	1001740 <vTaskSwitchContext+0x30>
 1001770:	d4601817 	ldw	r17,-32672(gp)
 1001774:	01400504 	movi	r5,20
 1001778:	8809883a 	mov	r4,r17
 100177c:	1002a740 	call	1002a74 <__mulsi3>
 1001780:	8087883a 	add	r3,r16,r2
 1001784:	18c00104 	addi	r3,r3,4
 1001788:	19000017 	ldw	r4,0(r3)
 100178c:	10800204 	addi	r2,r2,8
 1001790:	1405883a 	add	r2,r2,r16
 1001794:	21400117 	ldw	r5,4(r4)
 1001798:	19400015 	stw	r5,0(r3)
 100179c:	2880021e 	bne	r5,r2,10017a8 <vTaskSwitchContext+0x98>
 10017a0:	28800117 	ldw	r2,4(r5)
 10017a4:	18800015 	stw	r2,0(r3)
 10017a8:	8809883a 	mov	r4,r17
 10017ac:	01400504 	movi	r5,20
 10017b0:	1002a740 	call	1002a74 <__mulsi3>
 10017b4:	8085883a 	add	r2,r16,r2
 10017b8:	10800117 	ldw	r2,4(r2)
 10017bc:	10800317 	ldw	r2,12(r2)
 10017c0:	d0a01e15 	stw	r2,-32648(gp)
			structure specific to this task. */
			_impure_ptr = &( pxCurrentTCB->xNewLib_reent );
		}
		#endif /* configUSE_NEWLIB_REENTRANT */
	}
}
 10017c4:	dfc00217 	ldw	ra,8(sp)
 10017c8:	dc400117 	ldw	r17,4(sp)
 10017cc:	dc000017 	ldw	r16,0(sp)
 10017d0:	dec00304 	addi	sp,sp,12
 10017d4:	f800283a 	ret

010017d8 <vTaskPlaceOnEventList>:
/*-----------------------------------------------------------*/

void vTaskPlaceOnEventList( List_t * const pxEventList, const TickType_t xTicksToWait )
{
 10017d8:	defffe04 	addi	sp,sp,-8
 10017dc:	dc000015 	stw	r16,0(sp)
 10017e0:	2821883a 	mov	r16,r5

	/* Place the event list item of the TCB in the appropriate event list.
	This is placed in the list in priority order so the highest priority task
	is the first to be woken by the event.  The queue that contains the event
	list is locked, preventing simultaneous access from interrupts. */
	vListInsert( pxEventList, &( pxCurrentTCB->xEventListItem ) );
 10017e4:	d1601e17 	ldw	r5,-32648(gp)
	}
}
/*-----------------------------------------------------------*/

void vTaskPlaceOnEventList( List_t * const pxEventList, const TickType_t xTicksToWait )
{
 10017e8:	dfc00115 	stw	ra,4(sp)

	/* Place the event list item of the TCB in the appropriate event list.
	This is placed in the list in priority order so the highest priority task
	is the first to be woken by the event.  The queue that contains the event
	list is locked, preventing simultaneous access from interrupts. */
	vListInsert( pxEventList, &( pxCurrentTCB->xEventListItem ) );
 10017ec:	29400604 	addi	r5,r5,24
 10017f0:	10004fc0 	call	10004fc <vListInsert>

	/* The task must be removed from from the ready list before it is added to
	the blocked list as the same list item is used for both lists.  Exclusive
	access to the ready lists guaranteed because the scheduler is locked. */
	if( uxListRemove( &( pxCurrentTCB->xGenericListItem ) ) == ( UBaseType_t ) 0 )
 10017f4:	d1201e17 	ldw	r4,-32648(gp)
 10017f8:	21000104 	addi	r4,r4,4
 10017fc:	10005500 	call	1000550 <uxListRemove>
		mtCOVERAGE_TEST_MARKER();
	}

	#if ( INCLUDE_vTaskSuspend == 1 )
	{
		if( xTicksToWait == portMAX_DELAY )
 1001800:	00bfffc4 	movi	r2,-1
 1001804:	8080081e 	bne	r16,r2,1001828 <vTaskPlaceOnEventList+0x50>
		{
			/* Add the task to the suspended task list instead of a delayed task
			list to ensure the task is not woken by a timing event.  It will
			block indefinitely. */
			vListInsertEnd( &xSuspendedTaskList, &( pxCurrentTCB->xGenericListItem ) );
 1001808:	d1601e17 	ldw	r5,-32648(gp)
 100180c:	01004034 	movhi	r4,256
 1001810:	2114da04 	addi	r4,r4,21352
 1001814:	29400104 	addi	r5,r5,4
			will handle it. */
			xTimeToWake = xTickCount + xTicksToWait;
			prvAddCurrentTaskToDelayedList( xTimeToWake );
	}
	#endif /* INCLUDE_vTaskSuspend */
}
 1001818:	dfc00117 	ldw	ra,4(sp)
 100181c:	dc000017 	ldw	r16,0(sp)
 1001820:	dec00204 	addi	sp,sp,8
		if( xTicksToWait == portMAX_DELAY )
		{
			/* Add the task to the suspended task list instead of a delayed task
			list to ensure the task is not woken by a timing event.  It will
			block indefinitely. */
			vListInsertEnd( &xSuspendedTaskList, &( pxCurrentTCB->xGenericListItem ) );
 1001824:	10004cc1 	jmpi	10004cc <vListInsertEnd>
		else
		{
			/* Calculate the time at which the task should be woken if the event
			does not occur.  This may overflow but this doesn't matter, the
			scheduler will handle it. */
			xTimeToWake = xTickCount + xTicksToWait;
 1001828:	d1201917 	ldw	r4,-32668(gp)
			prvAddCurrentTaskToDelayedList( xTimeToWake );
 100182c:	8109883a 	add	r4,r16,r4
			will handle it. */
			xTimeToWake = xTickCount + xTicksToWait;
			prvAddCurrentTaskToDelayedList( xTimeToWake );
	}
	#endif /* INCLUDE_vTaskSuspend */
}
 1001830:	dfc00117 	ldw	ra,4(sp)
 1001834:	dc000017 	ldw	r16,0(sp)
 1001838:	dec00204 	addi	sp,sp,8
		{
			/* Calculate the time at which the task should be woken if the event
			does not occur.  This may overflow but this doesn't matter, the
			scheduler will handle it. */
			xTimeToWake = xTickCount + xTicksToWait;
			prvAddCurrentTaskToDelayedList( xTimeToWake );
 100183c:	10014601 	jmpi	1001460 <prvAddCurrentTaskToDelayedList>

01001840 <vTaskPlaceOnUnorderedEventList>:
	configASSERT( uxSchedulerSuspended != 0 );

	/* Store the item value in the event list item.  It is safe to access the
	event list item here as interrupts won't access the event list item of a
	task that is not in the Blocked state. */
	listSET_LIST_ITEM_VALUE( &( pxCurrentTCB->xEventListItem ), xItemValue | taskEVENT_LIST_ITEM_VALUE_IN_USE );
 1001840:	d0a01e17 	ldw	r2,-32648(gp)
	#endif /* INCLUDE_vTaskSuspend */
}
/*-----------------------------------------------------------*/

void vTaskPlaceOnUnorderedEventList( List_t * pxEventList, const TickType_t xItemValue, const TickType_t xTicksToWait )
{
 1001844:	defffe04 	addi	sp,sp,-8
 1001848:	dfc00115 	stw	ra,4(sp)
 100184c:	dc000015 	stw	r16,0(sp)
	configASSERT( uxSchedulerSuspended != 0 );

	/* Store the item value in the event list item.  It is safe to access the
	event list item here as interrupts won't access the event list item of a
	task that is not in the Blocked state. */
	listSET_LIST_ITEM_VALUE( &( pxCurrentTCB->xEventListItem ), xItemValue | taskEVENT_LIST_ITEM_VALUE_IN_USE );
 1001850:	29600034 	orhi	r5,r5,32768
 1001854:	11400615 	stw	r5,24(r2)
	/* Place the event list item of the TCB at the end of the appropriate event
	list.  It is safe to access the event list here because it is part of an
	event group implementation - and interrupts don't access event groups
	directly (instead they access them indirectly by pending function calls to
	the task level). */
	vListInsertEnd( pxEventList, &( pxCurrentTCB->xEventListItem ) );
 1001858:	d1601e17 	ldw	r5,-32648(gp)
	#endif /* INCLUDE_vTaskSuspend */
}
/*-----------------------------------------------------------*/

void vTaskPlaceOnUnorderedEventList( List_t * pxEventList, const TickType_t xItemValue, const TickType_t xTicksToWait )
{
 100185c:	3021883a 	mov	r16,r6
	/* Place the event list item of the TCB at the end of the appropriate event
	list.  It is safe to access the event list here because it is part of an
	event group implementation - and interrupts don't access event groups
	directly (instead they access them indirectly by pending function calls to
	the task level). */
	vListInsertEnd( pxEventList, &( pxCurrentTCB->xEventListItem ) );
 1001860:	29400604 	addi	r5,r5,24
 1001864:	10004cc0 	call	10004cc <vListInsertEnd>

	/* The task must be removed from the ready list before it is added to the
	blocked list.  Exclusive access can be assured to the ready list as the
	scheduler is locked. */
	if( uxListRemove( &( pxCurrentTCB->xGenericListItem ) ) == ( UBaseType_t ) 0 )
 1001868:	d1201e17 	ldw	r4,-32648(gp)
 100186c:	21000104 	addi	r4,r4,4
 1001870:	10005500 	call	1000550 <uxListRemove>
		mtCOVERAGE_TEST_MARKER();
	}

	#if ( INCLUDE_vTaskSuspend == 1 )
	{
		if( xTicksToWait == portMAX_DELAY )
 1001874:	00bfffc4 	movi	r2,-1
 1001878:	8080081e 	bne	r16,r2,100189c <vTaskPlaceOnUnorderedEventList+0x5c>
		{
			/* Add the task to the suspended task list instead of a delayed task
			list to ensure it is not woken by a timing event.  It will block
			indefinitely. */
			vListInsertEnd( &xSuspendedTaskList, &( pxCurrentTCB->xGenericListItem ) );
 100187c:	d1601e17 	ldw	r5,-32648(gp)
 1001880:	01004034 	movhi	r4,256
 1001884:	2114da04 	addi	r4,r4,21352
 1001888:	29400104 	addi	r5,r5,4
			will manage it correctly. */
			xTimeToWake = xTickCount + xTicksToWait;
			prvAddCurrentTaskToDelayedList( xTimeToWake );
	}
	#endif /* INCLUDE_vTaskSuspend */
}
 100188c:	dfc00117 	ldw	ra,4(sp)
 1001890:	dc000017 	ldw	r16,0(sp)
 1001894:	dec00204 	addi	sp,sp,8
		if( xTicksToWait == portMAX_DELAY )
		{
			/* Add the task to the suspended task list instead of a delayed task
			list to ensure it is not woken by a timing event.  It will block
			indefinitely. */
			vListInsertEnd( &xSuspendedTaskList, &( pxCurrentTCB->xGenericListItem ) );
 1001898:	10004cc1 	jmpi	10004cc <vListInsertEnd>
		else
		{
			/* Calculate the time at which the task should be woken if the event
			does not occur.  This may overflow but this doesn't matter, the
			kernel will manage it correctly. */
			xTimeToWake = xTickCount + xTicksToWait;
 100189c:	d1201917 	ldw	r4,-32668(gp)
			prvAddCurrentTaskToDelayedList( xTimeToWake );
 10018a0:	8109883a 	add	r4,r16,r4
			will manage it correctly. */
			xTimeToWake = xTickCount + xTicksToWait;
			prvAddCurrentTaskToDelayedList( xTimeToWake );
	}
	#endif /* INCLUDE_vTaskSuspend */
}
 10018a4:	dfc00117 	ldw	ra,4(sp)
 10018a8:	dc000017 	ldw	r16,0(sp)
 10018ac:	dec00204 	addi	sp,sp,8
		{
			/* Calculate the time at which the task should be woken if the event
			does not occur.  This may overflow but this doesn't matter, the
			kernel will manage it correctly. */
			xTimeToWake = xTickCount + xTicksToWait;
			prvAddCurrentTaskToDelayedList( xTimeToWake );
 10018b0:	10014601 	jmpi	1001460 <prvAddCurrentTaskToDelayedList>

010018b4 <xTaskRemoveFromEventList>:
	get called - the lock count on the queue will get modified instead.  This
	means exclusive access to the event list is guaranteed here.

	This function assumes that a check has already been made to ensure that
	pxEventList is not empty. */
	pxUnblockedTCB = ( TCB_t * ) listGET_OWNER_OF_HEAD_ENTRY( pxEventList );
 10018b4:	20800317 	ldw	r2,12(r4)

#endif /* configUSE_TIMERS */
/*-----------------------------------------------------------*/

BaseType_t xTaskRemoveFromEventList( const List_t * const pxEventList )
{
 10018b8:	defffd04 	addi	sp,sp,-12
 10018bc:	dc000015 	stw	r16,0(sp)
	get called - the lock count on the queue will get modified instead.  This
	means exclusive access to the event list is guaranteed here.

	This function assumes that a check has already been made to ensure that
	pxEventList is not empty. */
	pxUnblockedTCB = ( TCB_t * ) listGET_OWNER_OF_HEAD_ENTRY( pxEventList );
 10018c0:	14000317 	ldw	r16,12(r2)

#endif /* configUSE_TIMERS */
/*-----------------------------------------------------------*/

BaseType_t xTaskRemoveFromEventList( const List_t * const pxEventList )
{
 10018c4:	dc400115 	stw	r17,4(sp)
 10018c8:	dfc00215 	stw	ra,8(sp)

	This function assumes that a check has already been made to ensure that
	pxEventList is not empty. */
	pxUnblockedTCB = ( TCB_t * ) listGET_OWNER_OF_HEAD_ENTRY( pxEventList );
	configASSERT( pxUnblockedTCB );
	( void ) uxListRemove( &( pxUnblockedTCB->xEventListItem ) );
 10018cc:	84400604 	addi	r17,r16,24
 10018d0:	8809883a 	mov	r4,r17
 10018d4:	10005500 	call	1000550 <uxListRemove>

	if( uxSchedulerSuspended == ( UBaseType_t ) pdFALSE )
 10018d8:	d0a01117 	ldw	r2,-32700(gp)
 10018dc:	10000d1e 	bne	r2,zero,1001914 <xTaskRemoveFromEventList+0x60>
	{
		( void ) uxListRemove( &( pxUnblockedTCB->xGenericListItem ) );
 10018e0:	84400104 	addi	r17,r16,4
 10018e4:	8809883a 	mov	r4,r17
 10018e8:	10005500 	call	1000550 <uxListRemove>
		prvAddTaskToReadyList( pxUnblockedTCB );
 10018ec:	81000b17 	ldw	r4,44(r16)
 10018f0:	d0a01817 	ldw	r2,-32672(gp)
 10018f4:	1100012e 	bgeu	r2,r4,10018fc <xTaskRemoveFromEventList+0x48>
 10018f8:	d1201815 	stw	r4,-32672(gp)
 10018fc:	01400504 	movi	r5,20
 1001900:	1002a740 	call	1002a74 <__mulsi3>
 1001904:	01004034 	movhi	r4,256
 1001908:	2114f304 	addi	r4,r4,21452
 100190c:	2089883a 	add	r4,r4,r2
 1001910:	00000206 	br	100191c <xTaskRemoveFromEventList+0x68>
	}
	else
	{
		/* The delayed and ready lists cannot be accessed, so hold this task
		pending until the scheduler is resumed. */
		vListInsertEnd( &( xPendingReadyList ), &( pxUnblockedTCB->xEventListItem ) );
 1001914:	01004034 	movhi	r4,256
 1001918:	2114e404 	addi	r4,r4,21392
 100191c:	880b883a 	mov	r5,r17
 1001920:	10004cc0 	call	10004cc <vListInsertEnd>
	}

	if( pxUnblockedTCB->uxPriority > pxCurrentTCB->uxPriority )
 1001924:	d0e01e17 	ldw	r3,-32648(gp)
 1001928:	80800b17 	ldw	r2,44(r16)
 100192c:	18c00b17 	ldw	r3,44(r3)
 1001930:	1880032e 	bgeu	r3,r2,1001940 <xTaskRemoveFromEventList+0x8c>
		it should force a context switch now. */
		xReturn = pdTRUE;

		/* Mark that a yield is pending in case the user is not using the
		"xHigherPriorityTaskWoken" parameter to an ISR safe FreeRTOS function. */
		xYieldPending = pdTRUE;
 1001934:	00800044 	movi	r2,1
 1001938:	d0a01515 	stw	r2,-32684(gp)
 100193c:	00000106 	br	1001944 <xTaskRemoveFromEventList+0x90>
	}
	else
	{
		xReturn = pdFALSE;
 1001940:	0005883a 	mov	r2,zero
		prvResetNextTaskUnblockTime();
	}
	#endif

	return xReturn;
}
 1001944:	dfc00217 	ldw	ra,8(sp)
 1001948:	dc400117 	ldw	r17,4(sp)
 100194c:	dc000017 	ldw	r16,0(sp)
 1001950:	dec00304 	addi	sp,sp,12
 1001954:	f800283a 	ret

01001958 <xTaskRemoveFromUnorderedEventList>:
/*-----------------------------------------------------------*/

BaseType_t xTaskRemoveFromUnorderedEventList( ListItem_t * pxEventListItem, const TickType_t xItemValue )
{
 1001958:	defffd04 	addi	sp,sp,-12
 100195c:	dc000015 	stw	r16,0(sp)
	/* Store the new item value in the event list. */
	listSET_LIST_ITEM_VALUE( pxEventListItem, xItemValue | taskEVENT_LIST_ITEM_VALUE_IN_USE );

	/* Remove the event list form the event flag.  Interrupts do not access
	event flags. */
	pxUnblockedTCB = ( TCB_t * ) listGET_LIST_ITEM_OWNER( pxEventListItem );
 1001960:	24000317 	ldw	r16,12(r4)
	return xReturn;
}
/*-----------------------------------------------------------*/

BaseType_t xTaskRemoveFromUnorderedEventList( ListItem_t * pxEventListItem, const TickType_t xItemValue )
{
 1001964:	dfc00215 	stw	ra,8(sp)
 1001968:	dc400115 	stw	r17,4(sp)
	/* THIS FUNCTION MUST BE CALLED WITH THE SCHEDULER SUSPENDED.  It is used by
	the event flags implementation. */
	configASSERT( uxSchedulerSuspended != pdFALSE );

	/* Store the new item value in the event list. */
	listSET_LIST_ITEM_VALUE( pxEventListItem, xItemValue | taskEVENT_LIST_ITEM_VALUE_IN_USE );
 100196c:	29600034 	orhi	r5,r5,32768
 1001970:	21400015 	stw	r5,0(r4)

	/* Remove the event list form the event flag.  Interrupts do not access
	event flags. */
	pxUnblockedTCB = ( TCB_t * ) listGET_LIST_ITEM_OWNER( pxEventListItem );
	configASSERT( pxUnblockedTCB );
	( void ) uxListRemove( pxEventListItem );
 1001974:	10005500 	call	1000550 <uxListRemove>

	/* Remove the task from the delayed list and add it to the ready list.  The
	scheduler is suspended so interrupts will not be accessing the ready
	lists. */
	( void ) uxListRemove( &( pxUnblockedTCB->xGenericListItem ) );
 1001978:	84400104 	addi	r17,r16,4
 100197c:	8809883a 	mov	r4,r17
 1001980:	10005500 	call	1000550 <uxListRemove>
	prvAddTaskToReadyList( pxUnblockedTCB );
 1001984:	81000b17 	ldw	r4,44(r16)
 1001988:	d0a01817 	ldw	r2,-32672(gp)
 100198c:	1100012e 	bgeu	r2,r4,1001994 <xTaskRemoveFromUnorderedEventList+0x3c>
 1001990:	d1201815 	stw	r4,-32672(gp)
 1001994:	01400504 	movi	r5,20
 1001998:	1002a740 	call	1002a74 <__mulsi3>
 100199c:	01004034 	movhi	r4,256
 10019a0:	2114f304 	addi	r4,r4,21452
 10019a4:	2089883a 	add	r4,r4,r2
 10019a8:	880b883a 	mov	r5,r17
 10019ac:	10004cc0 	call	10004cc <vListInsertEnd>

	if( pxUnblockedTCB->uxPriority > pxCurrentTCB->uxPriority )
 10019b0:	d0e01e17 	ldw	r3,-32648(gp)
 10019b4:	80800b17 	ldw	r2,44(r16)
 10019b8:	18c00b17 	ldw	r3,44(r3)
 10019bc:	1880032e 	bgeu	r3,r2,10019cc <xTaskRemoveFromUnorderedEventList+0x74>
		switch now. */
		xReturn = pdTRUE;

		/* Mark that a yield is pending in case the user is not using the
		"xHigherPriorityTaskWoken" parameter to an ISR safe FreeRTOS function. */
		xYieldPending = pdTRUE;
 10019c0:	00800044 	movi	r2,1
 10019c4:	d0a01515 	stw	r2,-32684(gp)
 10019c8:	00000106 	br	10019d0 <xTaskRemoveFromUnorderedEventList+0x78>
	}
	else
	{
		xReturn = pdFALSE;
 10019cc:	0005883a 	mov	r2,zero
	}

	return xReturn;
}
 10019d0:	dfc00217 	ldw	ra,8(sp)
 10019d4:	dc400117 	ldw	r17,4(sp)
 10019d8:	dc000017 	ldw	r16,0(sp)
 10019dc:	dec00304 	addi	sp,sp,12
 10019e0:	f800283a 	ret

010019e4 <vTaskSetTimeOutState>:
/*-----------------------------------------------------------*/

void vTaskSetTimeOutState( TimeOut_t * const pxTimeOut )
{
	configASSERT( pxTimeOut );
	pxTimeOut->xOverflowCount = xNumOfOverflows;
 10019e4:	d0a01417 	ldw	r2,-32688(gp)
 10019e8:	20800015 	stw	r2,0(r4)
	pxTimeOut->xTimeOnEntering = xTickCount;
 10019ec:	d0a01917 	ldw	r2,-32668(gp)
 10019f0:	20800115 	stw	r2,4(r4)
 10019f4:	f800283a 	ret

010019f8 <vTaskMissedYield>:
}
/*-----------------------------------------------------------*/

void vTaskMissedYield( void )
{
	xYieldPending = pdTRUE;
 10019f8:	00800044 	movi	r2,1
 10019fc:	d0a01515 	stw	r2,-32684(gp)
 1001a00:	f800283a 	ret

01001a04 <uxTaskGetStackHighWaterMark>:
	{
	TCB_t *pxTCB;
	uint8_t *pucEndOfStack;
	UBaseType_t uxReturn;

		pxTCB = prvGetTCBFromHandle( xTask );
 1001a04:	2000011e 	bne	r4,zero,1001a0c <uxTaskGetStackHighWaterMark+0x8>
 1001a08:	d1201e17 	ldw	r4,-32648(gp)

		#if portSTACK_GROWTH < 0
		{
			pucEndOfStack = ( uint8_t * ) pxTCB->pxStack;
 1001a0c:	21000c17 	ldw	r4,48(r4)

	static uint16_t prvTaskCheckFreeStackSpace( const uint8_t * pucStackByte )
	{
	uint32_t ulCount = 0U;

		while( *pucStackByte == ( uint8_t ) tskSTACK_FILL_BYTE )
 1001a10:	01402944 	movi	r5,165

		pxTCB = prvGetTCBFromHandle( xTask );

		#if portSTACK_GROWTH < 0
		{
			pucEndOfStack = ( uint8_t * ) pxTCB->pxStack;
 1001a14:	2007883a 	mov	r3,r4

	static uint16_t prvTaskCheckFreeStackSpace( const uint8_t * pucStackByte )
	{
	uint32_t ulCount = 0U;

		while( *pucStackByte == ( uint8_t ) tskSTACK_FILL_BYTE )
 1001a18:	19800003 	ldbu	r6,0(r3)
 1001a1c:	1905c83a 	sub	r2,r3,r4
 1001a20:	3140021e 	bne	r6,r5,1001a2c <uxTaskGetStackHighWaterMark+0x28>
		{
			pucStackByte -= portSTACK_GROWTH;
 1001a24:	18c00044 	addi	r3,r3,1
 1001a28:	003ffb06 	br	1001a18 <uxTaskGetStackHighWaterMark+0x14>
			ulCount++;
		}

		ulCount /= ( uint32_t ) sizeof( StackType_t ); /*lint !e961 Casting is not redundant on smaller architectures. */
 1001a2c:	1004d0ba 	srli	r2,r2,2
		#endif

		uxReturn = ( UBaseType_t ) prvTaskCheckFreeStackSpace( pucEndOfStack );

		return uxReturn;
	}
 1001a30:	10bfffcc 	andi	r2,r2,65535
 1001a34:	f800283a 	ret

01001a38 <xTaskGetCurrentTaskHandle>:
	TaskHandle_t xReturn;

		/* A critical section is not required as this is not called from
		an interrupt and the current TCB will always be the same for any
		individual execution thread. */
		xReturn = pxCurrentTCB;
 1001a38:	d0a01e17 	ldw	r2,-32648(gp)

		return xReturn;
	}
 1001a3c:	f800283a 	ret

01001a40 <vTaskPriorityInherit>:
	{
	TCB_t * const pxTCB = ( TCB_t * ) pxMutexHolder;

		/* If the mutex was given back by an interrupt while the queue was
		locked then the mutex holder might now be NULL. */
		if( pxMutexHolder != NULL )
 1001a40:	20003526 	beq	r4,zero,1001b18 <vTaskPriorityInherit+0xd8>
		{
			/* If the holder of the mutex has a priority below the priority of
			the task attempting to obtain the mutex then it will temporarily
			inherit the priority of the task attempting to obtain the mutex. */
			if( pxTCB->uxPriority < pxCurrentTCB->uxPriority )
 1001a44:	d0a01e17 	ldw	r2,-32648(gp)
 1001a48:	20c00b17 	ldw	r3,44(r4)
 1001a4c:	10800b17 	ldw	r2,44(r2)
 1001a50:	1880312e 	bgeu	r3,r2,1001b18 <vTaskPriorityInherit+0xd8>
			{
				/* Adjust the mutex holder state to account for its new
				priority.  Only reset the event list item value if the value is
				not	being used for anything else. */
				if( ( listGET_LIST_ITEM_VALUE( &( pxTCB->xEventListItem ) ) & taskEVENT_LIST_ITEM_VALUE_IN_USE ) == 0UL )
 1001a54:	20800617 	ldw	r2,24(r4)
/*-----------------------------------------------------------*/

#if ( configUSE_MUTEXES == 1 )

	void vTaskPriorityInherit( TaskHandle_t const pxMutexHolder )
	{
 1001a58:	defffc04 	addi	sp,sp,-16
 1001a5c:	dfc00315 	stw	ra,12(sp)
 1001a60:	dc800215 	stw	r18,8(sp)
 1001a64:	dc400115 	stw	r17,4(sp)
 1001a68:	dc000015 	stw	r16,0(sp)
			if( pxTCB->uxPriority < pxCurrentTCB->uxPriority )
			{
				/* Adjust the mutex holder state to account for its new
				priority.  Only reset the event list item value if the value is
				not	being used for anything else. */
				if( ( listGET_LIST_ITEM_VALUE( &( pxTCB->xEventListItem ) ) & taskEVENT_LIST_ITEM_VALUE_IN_USE ) == 0UL )
 1001a6c:	10000516 	blt	r2,zero,1001a84 <vTaskPriorityInherit+0x44>
				{
					listSET_LIST_ITEM_VALUE( &( pxTCB->xEventListItem ), ( TickType_t ) configMAX_PRIORITIES - ( TickType_t ) pxCurrentTCB->uxPriority ); /*lint !e961 MISRA exception as the casts are only redundant for some ports. */
 1001a70:	d0a01e17 	ldw	r2,-32648(gp)
 1001a74:	11400b17 	ldw	r5,44(r2)
 1001a78:	00800144 	movi	r2,5
 1001a7c:	1145c83a 	sub	r2,r2,r5
 1001a80:	20800615 	stw	r2,24(r4)
 1001a84:	2021883a 	mov	r16,r4
					mtCOVERAGE_TEST_MARKER();
				}

				/* If the task being modified is in the ready state it will need
				to be moved into a new list. */
				if( listIS_CONTAINED_WITHIN( &( pxReadyTasksLists[ pxTCB->uxPriority ] ), &( pxTCB->xGenericListItem ) ) != pdFALSE )
 1001a88:	01400504 	movi	r5,20
 1001a8c:	1809883a 	mov	r4,r3
 1001a90:	1002a740 	call	1002a74 <__mulsi3>
 1001a94:	01004034 	movhi	r4,256
 1001a98:	80c00517 	ldw	r3,20(r16)
 1001a9c:	2114f304 	addi	r4,r4,21452
 1001aa0:	2085883a 	add	r2,r4,r2
 1001aa4:	2023883a 	mov	r17,r4
 1001aa8:	1880131e 	bne	r3,r2,1001af8 <vTaskPriorityInherit+0xb8>
				{
					if( uxListRemove( &( pxTCB->xGenericListItem ) ) == ( UBaseType_t ) 0 )
 1001aac:	84800104 	addi	r18,r16,4
 1001ab0:	9009883a 	mov	r4,r18
 1001ab4:	10005500 	call	1000550 <uxListRemove>
					{
						mtCOVERAGE_TEST_MARKER();
					}

					/* Inherit the priority before being moved into the new list. */
					pxTCB->uxPriority = pxCurrentTCB->uxPriority;
 1001ab8:	d0a01e17 	ldw	r2,-32648(gp)
 1001abc:	11000b17 	ldw	r4,44(r2)
					prvAddTaskToReadyList( pxTCB );
 1001ac0:	d0a01817 	ldw	r2,-32672(gp)
					{
						mtCOVERAGE_TEST_MARKER();
					}

					/* Inherit the priority before being moved into the new list. */
					pxTCB->uxPriority = pxCurrentTCB->uxPriority;
 1001ac4:	81000b15 	stw	r4,44(r16)
					prvAddTaskToReadyList( pxTCB );
 1001ac8:	1100012e 	bgeu	r2,r4,1001ad0 <vTaskPriorityInherit+0x90>
 1001acc:	d1201815 	stw	r4,-32672(gp)
 1001ad0:	01400504 	movi	r5,20
 1001ad4:	1002a740 	call	1002a74 <__mulsi3>
 1001ad8:	8889883a 	add	r4,r17,r2
 1001adc:	900b883a 	mov	r5,r18
		}
		else
		{
			mtCOVERAGE_TEST_MARKER();
		}
	}
 1001ae0:	dfc00317 	ldw	ra,12(sp)
 1001ae4:	dc800217 	ldw	r18,8(sp)
 1001ae8:	dc400117 	ldw	r17,4(sp)
 1001aec:	dc000017 	ldw	r16,0(sp)
 1001af0:	dec00404 	addi	sp,sp,16
						mtCOVERAGE_TEST_MARKER();
					}

					/* Inherit the priority before being moved into the new list. */
					pxTCB->uxPriority = pxCurrentTCB->uxPriority;
					prvAddTaskToReadyList( pxTCB );
 1001af4:	10004cc1 	jmpi	10004cc <vListInsertEnd>
				}
				else
				{
					/* Just inherit the priority. */
					pxTCB->uxPriority = pxCurrentTCB->uxPriority;
 1001af8:	d0a01e17 	ldw	r2,-32648(gp)
 1001afc:	10800b17 	ldw	r2,44(r2)
 1001b00:	80800b15 	stw	r2,44(r16)
		}
		else
		{
			mtCOVERAGE_TEST_MARKER();
		}
	}
 1001b04:	dfc00317 	ldw	ra,12(sp)
 1001b08:	dc800217 	ldw	r18,8(sp)
 1001b0c:	dc400117 	ldw	r17,4(sp)
 1001b10:	dc000017 	ldw	r16,0(sp)
 1001b14:	dec00404 	addi	sp,sp,16
 1001b18:	f800283a 	ret

01001b1c <xTaskPriorityDisinherit>:
	BaseType_t xTaskPriorityDisinherit( TaskHandle_t const pxMutexHolder )
	{
	TCB_t * const pxTCB = ( TCB_t * ) pxMutexHolder;
	BaseType_t xReturn = pdFALSE;

		if( pxMutexHolder != NULL )
 1001b1c:	2000021e 	bne	r4,zero,1001b28 <xTaskPriorityDisinherit+0xc>
#if ( configUSE_MUTEXES == 1 )

	BaseType_t xTaskPriorityDisinherit( TaskHandle_t const pxMutexHolder )
	{
	TCB_t * const pxTCB = ( TCB_t * ) pxMutexHolder;
	BaseType_t xReturn = pdFALSE;
 1001b20:	0005883a 	mov	r2,zero
		{
			mtCOVERAGE_TEST_MARKER();
		}

		return xReturn;
	}
 1001b24:	f800283a 	ret
			interrupt, and if a mutex is given by the holding task then it must
			be the running state task. */
			configASSERT( pxTCB == pxCurrentTCB );

			configASSERT( pxTCB->uxMutexesHeld );
			( pxTCB->uxMutexesHeld )--;
 1001b28:	20801117 	ldw	r2,68(r4)

			/* Has the holder of the mutex inherited the priority of another
			task? */
			if( pxTCB->uxPriority != pxTCB->uxBasePriority )
 1001b2c:	21400b17 	ldw	r5,44(r4)
 1001b30:	20c01017 	ldw	r3,64(r4)
			interrupt, and if a mutex is given by the holding task then it must
			be the running state task. */
			configASSERT( pxTCB == pxCurrentTCB );

			configASSERT( pxTCB->uxMutexesHeld );
			( pxTCB->uxMutexesHeld )--;
 1001b34:	10bfffc4 	addi	r2,r2,-1
 1001b38:	20801115 	stw	r2,68(r4)

			/* Has the holder of the mutex inherited the priority of another
			task? */
			if( pxTCB->uxPriority != pxTCB->uxBasePriority )
 1001b3c:	28fff826 	beq	r5,r3,1001b20 <xTaskPriorityDisinherit+0x4>
			{
				/* Only disinherit if no other mutexes are held. */
				if( pxTCB->uxMutexesHeld == ( UBaseType_t ) 0 )
 1001b40:	103ff71e 	bne	r2,zero,1001b20 <xTaskPriorityDisinherit+0x4>
/*-----------------------------------------------------------*/

#if ( configUSE_MUTEXES == 1 )

	BaseType_t xTaskPriorityDisinherit( TaskHandle_t const pxMutexHolder )
	{
 1001b44:	defffd04 	addi	sp,sp,-12
 1001b48:	dc400115 	stw	r17,4(sp)
					/* A task can only have an inherited priority if it holds
					the mutex.  If the mutex is held by a task then it cannot be
					given from an interrupt, and if a mutex is given by the
					holding	task then it must be the running state task.  Remove
					the	holding task from the ready	list. */
					if( uxListRemove( &( pxTCB->xGenericListItem ) ) == ( UBaseType_t ) 0 )
 1001b4c:	24400104 	addi	r17,r4,4
/*-----------------------------------------------------------*/

#if ( configUSE_MUTEXES == 1 )

	BaseType_t xTaskPriorityDisinherit( TaskHandle_t const pxMutexHolder )
	{
 1001b50:	dc000015 	stw	r16,0(sp)
 1001b54:	2021883a 	mov	r16,r4
					/* A task can only have an inherited priority if it holds
					the mutex.  If the mutex is held by a task then it cannot be
					given from an interrupt, and if a mutex is given by the
					holding	task then it must be the running state task.  Remove
					the	holding task from the ready	list. */
					if( uxListRemove( &( pxTCB->xGenericListItem ) ) == ( UBaseType_t ) 0 )
 1001b58:	8809883a 	mov	r4,r17
/*-----------------------------------------------------------*/

#if ( configUSE_MUTEXES == 1 )

	BaseType_t xTaskPriorityDisinherit( TaskHandle_t const pxMutexHolder )
	{
 1001b5c:	dfc00215 	stw	ra,8(sp)
					/* A task can only have an inherited priority if it holds
					the mutex.  If the mutex is held by a task then it cannot be
					given from an interrupt, and if a mutex is given by the
					holding	task then it must be the running state task.  Remove
					the	holding task from the ready	list. */
					if( uxListRemove( &( pxTCB->xGenericListItem ) ) == ( UBaseType_t ) 0 )
 1001b60:	10005500 	call	1000550 <uxListRemove>
					}

					/* Disinherit the priority before adding the task into the
					new	ready list. */
					traceTASK_PRIORITY_DISINHERIT( pxTCB, pxTCB->uxBasePriority );
					pxTCB->uxPriority = pxTCB->uxBasePriority;
 1001b64:	81001017 	ldw	r4,64(r16)

					/* Reset the event list item value.  It cannot be in use for
					any other purpose if this task is running, and it must be
					running to give back the mutex. */
					listSET_LIST_ITEM_VALUE( &( pxTCB->xEventListItem ), ( TickType_t ) configMAX_PRIORITIES - ( TickType_t ) pxTCB->uxPriority ); /*lint !e961 MISRA exception as the casts are only redundant for some ports. */
 1001b68:	00800144 	movi	r2,5
 1001b6c:	1105c83a 	sub	r2,r2,r4
 1001b70:	80800615 	stw	r2,24(r16)
					prvAddTaskToReadyList( pxTCB );
 1001b74:	d0a01817 	ldw	r2,-32672(gp)
					}

					/* Disinherit the priority before adding the task into the
					new	ready list. */
					traceTASK_PRIORITY_DISINHERIT( pxTCB, pxTCB->uxBasePriority );
					pxTCB->uxPriority = pxTCB->uxBasePriority;
 1001b78:	81000b15 	stw	r4,44(r16)

					/* Reset the event list item value.  It cannot be in use for
					any other purpose if this task is running, and it must be
					running to give back the mutex. */
					listSET_LIST_ITEM_VALUE( &( pxTCB->xEventListItem ), ( TickType_t ) configMAX_PRIORITIES - ( TickType_t ) pxTCB->uxPriority ); /*lint !e961 MISRA exception as the casts are only redundant for some ports. */
					prvAddTaskToReadyList( pxTCB );
 1001b7c:	1100012e 	bgeu	r2,r4,1001b84 <xTaskPriorityDisinherit+0x68>
 1001b80:	d1201815 	stw	r4,-32672(gp)
 1001b84:	01400504 	movi	r5,20
 1001b88:	1002a740 	call	1002a74 <__mulsi3>
 1001b8c:	01004034 	movhi	r4,256
 1001b90:	2114f304 	addi	r4,r4,21452
 1001b94:	2089883a 	add	r4,r4,r2
 1001b98:	880b883a 	mov	r5,r17
 1001b9c:	10004cc0 	call	10004cc <vListInsertEnd>
					in an order different to that in which they were taken.
					If a context switch did not occur when the first mutex was
					returned, even if a task was waiting on it, then a context
					switch should occur when the last mutex is returned whether
					a task is waiting on it or not. */
					xReturn = pdTRUE;
 1001ba0:	00800044 	movi	r2,1
		{
			mtCOVERAGE_TEST_MARKER();
		}

		return xReturn;
	}
 1001ba4:	dfc00217 	ldw	ra,8(sp)
 1001ba8:	dc400117 	ldw	r17,4(sp)
 1001bac:	dc000017 	ldw	r16,0(sp)
 1001bb0:	dec00304 	addi	sp,sp,12
 1001bb4:	f800283a 	ret

01001bb8 <vTaskEnterCritical>:
static ALT_INLINE alt_irq_context ALT_ALWAYS_INLINE 
       alt_irq_disable_all (void)
{
  alt_irq_context context;

  NIOS2_READ_STATUS (context);
 1001bb8:	0007303a 	rdctl	r3,status

  NIOS2_WRITE_STATUS (context & ~NIOS2_STATUS_PIE_MSK);
 1001bbc:	00bfff84 	movi	r2,-2
 1001bc0:	1884703a 	and	r2,r3,r2
 1001bc4:	1001703a 	wrctl	status,r2

	void vTaskEnterCritical( void )
	{
		portDISABLE_INTERRUPTS();

		if( xSchedulerRunning != pdFALSE )
 1001bc8:	d0a01717 	ldw	r2,-32676(gp)
 1001bcc:	10000526 	beq	r2,zero,1001be4 <vTaskEnterCritical+0x2c>
		{
			( pxCurrentTCB->uxCriticalNesting )++;
 1001bd0:	d0e01e17 	ldw	r3,-32648(gp)
 1001bd4:	18800f17 	ldw	r2,60(r3)
 1001bd8:	10800044 	addi	r2,r2,1
 1001bdc:	18800f15 	stw	r2,60(r3)
			function so	assert() if it is being called from an interrupt
			context.  Only API functions that end in "FromISR" can be used in an
			interrupt.  Only assert if the critical nesting count is 1 to
			protect against recursive calls if the assert function also uses a
			critical section. */
			if( pxCurrentTCB->uxCriticalNesting == 1 )
 1001be0:	d0a01e17 	ldw	r2,-32648(gp)
 1001be4:	f800283a 	ret

01001be8 <vTaskExitCritical>:

#if ( portCRITICAL_NESTING_IN_TCB == 1 )

	void vTaskExitCritical( void )
	{
		if( xSchedulerRunning != pdFALSE )
 1001be8:	d0a01717 	ldw	r2,-32676(gp)
 1001bec:	10000c26 	beq	r2,zero,1001c20 <vTaskExitCritical+0x38>
		{
			if( pxCurrentTCB->uxCriticalNesting > 0U )
 1001bf0:	d0a01e17 	ldw	r2,-32648(gp)
 1001bf4:	10800f17 	ldw	r2,60(r2)
 1001bf8:	10000926 	beq	r2,zero,1001c20 <vTaskExitCritical+0x38>
			{
				( pxCurrentTCB->uxCriticalNesting )--;
 1001bfc:	d0e01e17 	ldw	r3,-32648(gp)
 1001c00:	18800f17 	ldw	r2,60(r3)
 1001c04:	10bfffc4 	addi	r2,r2,-1
 1001c08:	18800f15 	stw	r2,60(r3)

				if( pxCurrentTCB->uxCriticalNesting == 0U )
 1001c0c:	d0a01e17 	ldw	r2,-32648(gp)
 1001c10:	10800f17 	ldw	r2,60(r2)
 1001c14:	1000021e 	bne	r2,zero,1001c20 <vTaskExitCritical+0x38>
  status &= ~NIOS2_STATUS_PIE_MSK;
  status |= (context & NIOS2_STATUS_PIE_MSK);
  
  NIOS2_WRITE_STATUS (status);
#else
  NIOS2_WRITE_STATUS (context);
 1001c18:	00800044 	movi	r2,1
 1001c1c:	1001703a 	wrctl	status,r2
 1001c20:	f800283a 	ret

01001c24 <xTaskGenericCreate>:

#endif
/*-----------------------------------------------------------*/

BaseType_t xTaskGenericCreate( TaskFunction_t pxTaskCode, const char * const pcName, const uint16_t usStackDepth, void * const pvParameters, UBaseType_t uxPriority, TaskHandle_t * const pxCreatedTask, StackType_t * const puxStackBuffer, const MemoryRegion_t * const xRegions ) /*lint !e971 Unqualified char types are allowed for strings and single characters only. */
{
 1001c24:	defff704 	addi	sp,sp,-36
 1001c28:	ddc00715 	stw	r23,28(sp)
	#else /* portSTACK_GROWTH */
	{
	StackType_t *pxStack;

		/* Allocate space for the stack used by the task being created. */
		pxStack = ( StackType_t * ) pvPortMallocAligned( ( ( ( size_t ) usStackDepth ) * sizeof( StackType_t ) ), puxStackBuffer ); /*lint !e961 MISRA exception as the casts are only redundant for some ports. */
 1001c2c:	ddc00b17 	ldw	r23,44(sp)

#endif
/*-----------------------------------------------------------*/

BaseType_t xTaskGenericCreate( TaskFunction_t pxTaskCode, const char * const pcName, const uint16_t usStackDepth, void * const pvParameters, UBaseType_t uxPriority, TaskHandle_t * const pxCreatedTask, StackType_t * const puxStackBuffer, const MemoryRegion_t * const xRegions ) /*lint !e971 Unqualified char types are allowed for strings and single characters only. */
{
 1001c30:	dd800615 	stw	r22,24(sp)
 1001c34:	dd400515 	stw	r21,20(sp)
 1001c38:	dd000415 	stw	r20,16(sp)
 1001c3c:	dcc00315 	stw	r19,12(sp)
 1001c40:	dc800215 	stw	r18,8(sp)
 1001c44:	dc400115 	stw	r17,4(sp)
 1001c48:	dfc00815 	stw	ra,32(sp)
 1001c4c:	dc000015 	stw	r16,0(sp)
 1001c50:	202d883a 	mov	r22,r4
 1001c54:	2825883a 	mov	r18,r5
 1001c58:	3023883a 	mov	r17,r6
 1001c5c:	382b883a 	mov	r21,r7
 1001c60:	dcc00917 	ldw	r19,36(sp)
 1001c64:	dd000a17 	ldw	r20,40(sp)
	#else /* portSTACK_GROWTH */
	{
	StackType_t *pxStack;

		/* Allocate space for the stack used by the task being created. */
		pxStack = ( StackType_t * ) pvPortMallocAligned( ( ( ( size_t ) usStackDepth ) * sizeof( StackType_t ) ), puxStackBuffer ); /*lint !e961 MISRA exception as the casts are only redundant for some ports. */
 1001c68:	b800061e 	bne	r23,zero,1001c84 <xTaskGenericCreate+0x60>
 1001c6c:	313fffcc 	andi	r4,r6,65535
 1001c70:	2109883a 	add	r4,r4,r4
 1001c74:	2109883a 	add	r4,r4,r4
 1001c78:	100070c0 	call	100070c <pvPortMalloc>
 1001c7c:	102f883a 	mov	r23,r2

		if( pxStack != NULL )
 1001c80:	10007b26 	beq	r2,zero,1001e70 <xTaskGenericCreate+0x24c>
		{
			/* Allocate space for the TCB.  Where the memory comes from depends
			on the implementation of the port malloc function. */
			pxNewTCB = ( TCB_t * ) pvPortMalloc( sizeof( TCB_t ) );
 1001c84:	01001404 	movi	r4,80
 1001c88:	100070c0 	call	100070c <pvPortMalloc>
 1001c8c:	1021883a 	mov	r16,r2

			if( pxNewTCB != NULL )
 1001c90:	10001026 	beq	r2,zero,1001cd4 <xTaskGenericCreate+0xb0>
	{
		/* Avoid dependency on memset() if it is not required. */
		#if( ( configCHECK_FOR_STACK_OVERFLOW > 1 ) || ( configUSE_TRACE_FACILITY == 1 ) || ( INCLUDE_uxTaskGetStackHighWaterMark == 1 ) )
		{
			/* Just to help debugging. */
			( void ) memset( pxNewTCB->pxStack, ( int ) tskSTACK_FILL_BYTE, ( size_t ) usStackDepth * sizeof( StackType_t ) );
 1001c94:	8c7fffcc 	andi	r17,r17,65535
 1001c98:	8c63883a 	add	r17,r17,r17
 1001c9c:	8c63883a 	add	r17,r17,r17
 1001ca0:	880d883a 	mov	r6,r17
			pxNewTCB = ( TCB_t * ) pvPortMalloc( sizeof( TCB_t ) );

			if( pxNewTCB != NULL )
			{
				/* Store the stack location in the TCB. */
				pxNewTCB->pxStack = pxStack;
 1001ca4:	15c00c15 	stw	r23,48(r2)
	{
		/* Avoid dependency on memset() if it is not required. */
		#if( ( configCHECK_FOR_STACK_OVERFLOW > 1 ) || ( configUSE_TRACE_FACILITY == 1 ) || ( INCLUDE_uxTaskGetStackHighWaterMark == 1 ) )
		{
			/* Just to help debugging. */
			( void ) memset( pxNewTCB->pxStack, ( int ) tskSTACK_FILL_BYTE, ( size_t ) usStackDepth * sizeof( StackType_t ) );
 1001ca8:	b809883a 	mov	r4,r23
 1001cac:	01402944 	movi	r5,165
 1001cb0:	1002ac40 	call	1002ac4 <memset>
		stack grows from high memory to low (as per the 80x86) or vice versa.
		portSTACK_GROWTH is used to make the result positive or negative as
		required by the port. */
		#if( portSTACK_GROWTH < 0 )
		{
			pxTopOfStack = pxNewTCB->pxStack + ( usStackDepth - ( uint16_t ) 1 );
 1001cb4:	80800c17 	ldw	r2,48(r16)
 1001cb8:	8c7fff04 	addi	r17,r17,-4
 1001cbc:	80c00f04 	addi	r3,r16,60
 1001cc0:	1463883a 	add	r17,r2,r17
			pxTopOfStack = ( StackType_t * ) ( ( ( portPOINTER_SIZE_TYPE ) pxTopOfStack ) & ( ~( ( portPOINTER_SIZE_TYPE ) portBYTE_ALIGNMENT_MASK ) ) ); /*lint !e923 MISRA exception.  Avoiding casts between pointers and integers is not practical.  Size differences accounted for using portPOINTER_SIZE_TYPE type. */
 1001cc4:	00bfff04 	movi	r2,-4
 1001cc8:	88a2703a 	and	r17,r17,r2
 1001ccc:	80800d04 	addi	r2,r16,52
 1001cd0:	00000606 	br	1001cec <xTaskGenericCreate+0xc8>
			}
			else
			{
				/* The stack cannot be used as the TCB was not created.  Free it
				again. */
				vPortFree( pxStack );
 1001cd4:	b809883a 	mov	r4,r23
 1001cd8:	10007980 	call	1000798 <vPortFree>
 1001cdc:	00006406 	br	1001e70 <xTaskGenericCreate+0x24c>
 1001ce0:	10800044 	addi	r2,r2,1
 1001ce4:	94800044 	addi	r18,r18,1
static void prvInitialiseTCBVariables( TCB_t * const pxTCB, const char * const pcName, UBaseType_t uxPriority, const MemoryRegion_t * const xRegions, const uint16_t usStackDepth ) /*lint !e971 Unqualified char types are allowed for strings and single characters only. */
{
UBaseType_t x;

	/* Store the task name in the TCB. */
	for( x = ( UBaseType_t ) 0; x < ( UBaseType_t ) configMAX_TASK_NAME_LEN; x++ )
 1001ce8:	10c00426 	beq	r2,r3,1001cfc <xTaskGenericCreate+0xd8>
	{
		pxTCB->pcTaskName[ x ] = pcName[ x ];
 1001cec:	91000003 	ldbu	r4,0(r18)
 1001cf0:	11000005 	stb	r4,0(r2)

		/* Don't copy all configMAX_TASK_NAME_LEN if the string is shorter than
		configMAX_TASK_NAME_LEN characters just in case the memory after the
		string is not accessible (extremely unlikely). */
		if( pcName[ x ] == 0x00 )
 1001cf4:	91000007 	ldb	r4,0(r18)
 1001cf8:	203ff91e 	bne	r4,zero,1001ce0 <xTaskGenericCreate+0xbc>
		}
	}

	/* Ensure the name string is terminated in the case that the string length
	was greater or equal to configMAX_TASK_NAME_LEN. */
	pxTCB->pcTaskName[ configMAX_TASK_NAME_LEN - 1 ] = '\0';
 1001cfc:	80000ec5 	stb	zero,59(r16)
 1001d00:	00800104 	movi	r2,4
 1001d04:	9825883a 	mov	r18,r19
 1001d08:	14c0012e 	bgeu	r2,r19,1001d10 <xTaskGenericCreate+0xec>
 1001d0c:	1025883a 	mov	r18,r2
		pxTCB->uxBasePriority = uxPriority;
		pxTCB->uxMutexesHeld = 0;
	}
	#endif /* configUSE_MUTEXES */

	vListInitialiseItem( &( pxTCB->xGenericListItem ) );
 1001d10:	85c00104 	addi	r23,r16,4
	else
	{
		mtCOVERAGE_TEST_MARKER();
	}

	pxTCB->uxPriority = uxPriority;
 1001d14:	84800b15 	stw	r18,44(r16)
	#if ( configUSE_MUTEXES == 1 )
	{
		pxTCB->uxBasePriority = uxPriority;
 1001d18:	84801015 	stw	r18,64(r16)
		pxTCB->uxMutexesHeld = 0;
	}
	#endif /* configUSE_MUTEXES */

	vListInitialiseItem( &( pxTCB->xGenericListItem ) );
 1001d1c:	b809883a 	mov	r4,r23

	pxTCB->uxPriority = uxPriority;
	#if ( configUSE_MUTEXES == 1 )
	{
		pxTCB->uxBasePriority = uxPriority;
		pxTCB->uxMutexesHeld = 0;
 1001d20:	80001115 	stw	zero,68(r16)
	}
	#endif /* configUSE_MUTEXES */

	vListInitialiseItem( &( pxTCB->xGenericListItem ) );
 1001d24:	10004c40 	call	10004c4 <vListInitialiseItem>
	vListInitialiseItem( &( pxTCB->xEventListItem ) );
 1001d28:	81000604 	addi	r4,r16,24
 1001d2c:	10004c40 	call	10004c4 <vListInitialiseItem>
	/* Set the pxTCB as a link back from the ListItem_t.  This is so we can get
	back to	the containing TCB from a generic item in a list. */
	listSET_LIST_ITEM_OWNER( &( pxTCB->xGenericListItem ), pxTCB );

	/* Event lists are always in priority order. */
	listSET_LIST_ITEM_VALUE( &( pxTCB->xEventListItem ), ( TickType_t ) configMAX_PRIORITIES - ( TickType_t ) uxPriority ); /*lint !e961 MISRA exception as the casts are only redundant for some ports. */
 1001d30:	00800144 	movi	r2,5
 1001d34:	14a5c83a 	sub	r18,r2,r18
	}
	#endif

	#if ( configUSE_TASK_NOTIFICATIONS == 1 )
	{
		pxTCB->ulNotifiedValue = 0;
 1001d38:	80001215 	stw	zero,72(r16)
	vListInitialiseItem( &( pxTCB->xGenericListItem ) );
	vListInitialiseItem( &( pxTCB->xEventListItem ) );

	/* Set the pxTCB as a link back from the ListItem_t.  This is so we can get
	back to	the containing TCB from a generic item in a list. */
	listSET_LIST_ITEM_OWNER( &( pxTCB->xGenericListItem ), pxTCB );
 1001d3c:	84000415 	stw	r16,16(r16)

	/* Event lists are always in priority order. */
	listSET_LIST_ITEM_VALUE( &( pxTCB->xEventListItem ), ( TickType_t ) configMAX_PRIORITIES - ( TickType_t ) uxPriority ); /*lint !e961 MISRA exception as the casts are only redundant for some ports. */
 1001d40:	84800615 	stw	r18,24(r16)
	listSET_LIST_ITEM_OWNER( &( pxTCB->xEventListItem ), pxTCB );
 1001d44:	84000915 	stw	r16,36(r16)

	#if ( portCRITICAL_NESTING_IN_TCB == 1 )
	{
		pxTCB->uxCriticalNesting = ( UBaseType_t ) 0U;
 1001d48:	80000f15 	stw	zero,60(r16)
	#endif

	#if ( configUSE_TASK_NOTIFICATIONS == 1 )
	{
		pxTCB->ulNotifiedValue = 0;
		pxTCB->eNotifyState = eNotWaitingNotification;
 1001d4c:	80001315 	stw	zero,76(r16)
		{
			pxNewTCB->pxTopOfStack = pxPortInitialiseStack( pxTopOfStack, pxTaskCode, pvParameters, xRunPrivileged );
		}
		#else /* portUSING_MPU_WRAPPERS */
		{
			pxNewTCB->pxTopOfStack = pxPortInitialiseStack( pxTopOfStack, pxTaskCode, pvParameters );
 1001d50:	8809883a 	mov	r4,r17
 1001d54:	b00b883a 	mov	r5,r22
 1001d58:	a80d883a 	mov	r6,r21
 1001d5c:	10005b40 	call	10005b4 <pxPortInitialiseStack>
 1001d60:	80800015 	stw	r2,0(r16)
		}
		#endif /* portUSING_MPU_WRAPPERS */

		if( ( void * ) pxCreatedTask != NULL )
 1001d64:	a0000126 	beq	r20,zero,1001d6c <xTaskGenericCreate+0x148>
		{
			/* Pass the TCB out - in an anonymous way.  The calling function/
			task can use this as a handle to delete the task later if
			required.*/
			*pxCreatedTask = ( TaskHandle_t ) pxNewTCB;
 1001d68:	a4000015 	stw	r16,0(r20)
			mtCOVERAGE_TEST_MARKER();
		}

		/* Ensure interrupts don't access the task lists while they are being
		updated. */
		taskENTER_CRITICAL();
 1001d6c:	1001bb80 	call	1001bb8 <vTaskEnterCritical>
		{
			uxCurrentNumberOfTasks++;
 1001d70:	d0a01a17 	ldw	r2,-32664(gp)
 1001d74:	04804034 	movhi	r18,256
 1001d78:	9494f304 	addi	r18,r18,21452
 1001d7c:	10800044 	addi	r2,r2,1
 1001d80:	d0a01a15 	stw	r2,-32664(gp)
			if( pxCurrentTCB == NULL )
 1001d84:	d0a01e17 	ldw	r2,-32648(gp)
 1001d88:	10001e1e 	bne	r2,zero,1001e04 <xTaskGenericCreate+0x1e0>
			{
				/* There are no other tasks, or all the other tasks are in
				the suspended state - make this the current task. */
				pxCurrentTCB =  pxNewTCB;
 1001d8c:	d4201e15 	stw	r16,-32648(gp)

				if( uxCurrentNumberOfTasks == ( UBaseType_t ) 1 )
 1001d90:	d0e01a17 	ldw	r3,-32664(gp)
 1001d94:	00800044 	movi	r2,1
 1001d98:	1880201e 	bne	r3,r2,1001e1c <xTaskGenericCreate+0x1f8>
 1001d9c:	0023883a 	mov	r17,zero

static void prvInitialiseTaskLists( void )
{
UBaseType_t uxPriority;

	for( uxPriority = ( UBaseType_t ) 0U; uxPriority < ( UBaseType_t ) configMAX_PRIORITIES; uxPriority++ )
 1001da0:	05001904 	movi	r20,100
	{
		vListInitialise( &( pxReadyTasksLists[ uxPriority ] ) );
 1001da4:	9449883a 	add	r4,r18,r17
 1001da8:	8c400504 	addi	r17,r17,20
 1001dac:	10004a40 	call	10004a4 <vListInitialise>

static void prvInitialiseTaskLists( void )
{
UBaseType_t uxPriority;

	for( uxPriority = ( UBaseType_t ) 0U; uxPriority < ( UBaseType_t ) configMAX_PRIORITIES; uxPriority++ )
 1001db0:	8d3ffc1e 	bne	r17,r20,1001da4 <xTaskGenericCreate+0x180>
	{
		vListInitialise( &( pxReadyTasksLists[ uxPriority ] ) );
	}

	vListInitialise( &xDelayedTaskList1 );
 1001db4:	05004034 	movhi	r20,256
 1001db8:	a514ee04 	addi	r20,r20,21432
 1001dbc:	a009883a 	mov	r4,r20
	vListInitialise( &xDelayedTaskList2 );
 1001dc0:	04404034 	movhi	r17,256
	for( uxPriority = ( UBaseType_t ) 0U; uxPriority < ( UBaseType_t ) configMAX_PRIORITIES; uxPriority++ )
	{
		vListInitialise( &( pxReadyTasksLists[ uxPriority ] ) );
	}

	vListInitialise( &xDelayedTaskList1 );
 1001dc4:	10004a40 	call	10004a4 <vListInitialise>
	vListInitialise( &xDelayedTaskList2 );
 1001dc8:	8c54e904 	addi	r17,r17,21412
 1001dcc:	8809883a 	mov	r4,r17
 1001dd0:	10004a40 	call	10004a4 <vListInitialise>
	vListInitialise( &xPendingReadyList );
 1001dd4:	01004034 	movhi	r4,256
 1001dd8:	2114e404 	addi	r4,r4,21392
 1001ddc:	10004a40 	call	10004a4 <vListInitialise>

	#if ( INCLUDE_vTaskDelete == 1 )
	{
		vListInitialise( &xTasksWaitingTermination );
 1001de0:	01004034 	movhi	r4,256
 1001de4:	2114df04 	addi	r4,r4,21372
 1001de8:	10004a40 	call	10004a4 <vListInitialise>
	}
	#endif /* INCLUDE_vTaskDelete */

	#if ( INCLUDE_vTaskSuspend == 1 )
	{
		vListInitialise( &xSuspendedTaskList );
 1001dec:	01004034 	movhi	r4,256
 1001df0:	2114da04 	addi	r4,r4,21352
 1001df4:	10004a40 	call	10004a4 <vListInitialise>
	}
	#endif /* INCLUDE_vTaskSuspend */

	/* Start with pxDelayedTaskList using list1 and the pxOverflowDelayedTaskList
	using list2. */
	pxDelayedTaskList = &xDelayedTaskList1;
 1001df8:	d5201d15 	stw	r20,-32652(gp)
	pxOverflowDelayedTaskList = &xDelayedTaskList2;
 1001dfc:	d4601c15 	stw	r17,-32656(gp)
 1001e00:	00000606 	br	1001e1c <xTaskGenericCreate+0x1f8>
			else
			{
				/* If the scheduler is not already running, make this task the
				current task if it is the highest priority task to be created
				so far. */
				if( xSchedulerRunning == pdFALSE )
 1001e04:	d0a01717 	ldw	r2,-32676(gp)
 1001e08:	1000041e 	bne	r2,zero,1001e1c <xTaskGenericCreate+0x1f8>
				{
					if( pxCurrentTCB->uxPriority <= uxPriority )
 1001e0c:	d0a01e17 	ldw	r2,-32648(gp)
 1001e10:	10800b17 	ldw	r2,44(r2)
 1001e14:	98800136 	bltu	r19,r2,1001e1c <xTaskGenericCreate+0x1f8>
					{
						pxCurrentTCB = pxNewTCB;
 1001e18:	d4201e15 	stw	r16,-32648(gp)
				{
					mtCOVERAGE_TEST_MARKER();
				}
			}

			uxTaskNumber++;
 1001e1c:	d0a01317 	ldw	r2,-32692(gp)
				pxNewTCB->uxTCBNumber = uxTaskNumber;
			}
			#endif /* configUSE_TRACE_FACILITY */
			traceTASK_CREATE( pxNewTCB );

			prvAddTaskToReadyList( pxNewTCB );
 1001e20:	81000b17 	ldw	r4,44(r16)
				{
					mtCOVERAGE_TEST_MARKER();
				}
			}

			uxTaskNumber++;
 1001e24:	10800044 	addi	r2,r2,1
 1001e28:	d0a01315 	stw	r2,-32692(gp)
				pxNewTCB->uxTCBNumber = uxTaskNumber;
			}
			#endif /* configUSE_TRACE_FACILITY */
			traceTASK_CREATE( pxNewTCB );

			prvAddTaskToReadyList( pxNewTCB );
 1001e2c:	d0a01817 	ldw	r2,-32672(gp)
 1001e30:	1100012e 	bgeu	r2,r4,1001e38 <xTaskGenericCreate+0x214>
 1001e34:	d1201815 	stw	r4,-32672(gp)
 1001e38:	01400504 	movi	r5,20
 1001e3c:	1002a740 	call	1002a74 <__mulsi3>
 1001e40:	9089883a 	add	r4,r18,r2
 1001e44:	b80b883a 	mov	r5,r23
 1001e48:	10004cc0 	call	10004cc <vListInsertEnd>

			xReturn = pdPASS;
			portSETUP_TCB( pxNewTCB );
		}
		taskEXIT_CRITICAL();
 1001e4c:	1001be80 	call	1001be8 <vTaskExitCritical>
		traceTASK_CREATE_FAILED();
	}

	if( xReturn == pdPASS )
	{
		if( xSchedulerRunning != pdFALSE )
 1001e50:	d0a01717 	ldw	r2,-32676(gp)
 1001e54:	10000426 	beq	r2,zero,1001e68 <xTaskGenericCreate+0x244>
		{
			/* If the created task is of a higher priority than the current task
			then it should run now. */
			if( pxCurrentTCB->uxPriority < uxPriority )
 1001e58:	d0a01e17 	ldw	r2,-32648(gp)
 1001e5c:	10800b17 	ldw	r2,44(r2)
 1001e60:	14c0012e 	bgeu	r2,r19,1001e68 <xTaskGenericCreate+0x244>
			{
				taskYIELD_IF_USING_PREEMPTION();
 1001e64:	003b683a 	trap	0
 1001e68:	00800044 	movi	r2,1
 1001e6c:	00000106 	br	1001e74 <xTaskGenericCreate+0x250>
		}
		taskEXIT_CRITICAL();
	}
	else
	{
		xReturn = errCOULD_NOT_ALLOCATE_REQUIRED_MEMORY;
 1001e70:	00bfffc4 	movi	r2,-1
			mtCOVERAGE_TEST_MARKER();
		}
	}

	return xReturn;
}
 1001e74:	dfc00817 	ldw	ra,32(sp)
 1001e78:	ddc00717 	ldw	r23,28(sp)
 1001e7c:	dd800617 	ldw	r22,24(sp)
 1001e80:	dd400517 	ldw	r21,20(sp)
 1001e84:	dd000417 	ldw	r20,16(sp)
 1001e88:	dcc00317 	ldw	r19,12(sp)
 1001e8c:	dc800217 	ldw	r18,8(sp)
 1001e90:	dc400117 	ldw	r17,4(sp)
 1001e94:	dc000017 	ldw	r16,0(sp)
 1001e98:	dec00904 	addi	sp,sp,36
 1001e9c:	f800283a 	ret

01001ea0 <vTaskStartScheduler>:

#endif /* ( ( INCLUDE_xTaskResumeFromISR == 1 ) && ( INCLUDE_vTaskSuspend == 1 ) ) */
/*-----------------------------------------------------------*/

void vTaskStartScheduler( void )
{
 1001ea0:	defffb04 	addi	sp,sp,-20
		xReturn = xTaskCreate( prvIdleTask, "IDLE", tskIDLE_STACK_SIZE, ( void * ) NULL, ( tskIDLE_PRIORITY | portPRIVILEGE_BIT ), &xIdleTaskHandle ); /*lint !e961 MISRA exception, justified as it is not a redundant explicit cast to all supported compilers. */
	}
	#else
	{
		/* Create the idle task without storing its handle. */
		xReturn = xTaskCreate( prvIdleTask, "IDLE", tskIDLE_STACK_SIZE, ( void * ) NULL, ( tskIDLE_PRIORITY | portPRIVILEGE_BIT ), NULL );  /*lint !e961 MISRA exception, justified as it is not a redundant explicit cast to all supported compilers. */
 1001ea4:	01004034 	movhi	r4,256
 1001ea8:	01404034 	movhi	r5,256
 1001eac:	d8000015 	stw	zero,0(sp)
 1001eb0:	d8000115 	stw	zero,4(sp)
 1001eb4:	d8000215 	stw	zero,8(sp)
 1001eb8:	d8000315 	stw	zero,12(sp)
 1001ebc:	21091e04 	addi	r4,r4,9336
 1001ec0:	294cca04 	addi	r5,r5,13096
 1001ec4:	01810004 	movi	r6,1024
 1001ec8:	000f883a 	mov	r7,zero

#endif /* ( ( INCLUDE_xTaskResumeFromISR == 1 ) && ( INCLUDE_vTaskSuspend == 1 ) ) */
/*-----------------------------------------------------------*/

void vTaskStartScheduler( void )
{
 1001ecc:	dfc00415 	stw	ra,16(sp)
		xReturn = xTaskCreate( prvIdleTask, "IDLE", tskIDLE_STACK_SIZE, ( void * ) NULL, ( tskIDLE_PRIORITY | portPRIVILEGE_BIT ), &xIdleTaskHandle ); /*lint !e961 MISRA exception, justified as it is not a redundant explicit cast to all supported compilers. */
	}
	#else
	{
		/* Create the idle task without storing its handle. */
		xReturn = xTaskCreate( prvIdleTask, "IDLE", tskIDLE_STACK_SIZE, ( void * ) NULL, ( tskIDLE_PRIORITY | portPRIVILEGE_BIT ), NULL );  /*lint !e961 MISRA exception, justified as it is not a redundant explicit cast to all supported compilers. */
 1001ed0:	1001c240 	call	1001c24 <xTaskGenericCreate>
			mtCOVERAGE_TEST_MARKER();
		}
	}
	#endif /* configUSE_TIMERS */

	if( xReturn == pdPASS )
 1001ed4:	00c00044 	movi	r3,1
 1001ed8:	10c00b1e 	bne	r2,r3,1001f08 <vTaskStartScheduler+0x68>
static ALT_INLINE alt_irq_context ALT_ALWAYS_INLINE 
       alt_irq_disable_all (void)
{
  alt_irq_context context;

  NIOS2_READ_STATUS (context);
 1001edc:	0009303a 	rdctl	r4,status

  NIOS2_WRITE_STATUS (context & ~NIOS2_STATUS_PIE_MSK);
 1001ee0:	00ffff84 	movi	r3,-2
 1001ee4:	20c6703a 	and	r3,r4,r3
 1001ee8:	1801703a 	wrctl	status,r3
			structure specific to the task that will run first. */
			_impure_ptr = &( pxCurrentTCB->xNewLib_reent );
		}
		#endif /* configUSE_NEWLIB_REENTRANT */

		xNextTaskUnblockTime = portMAX_DELAY;
 1001eec:	00ffffc4 	movi	r3,-1
 1001ef0:	d0e01215 	stw	r3,-32696(gp)
		xSchedulerRunning = pdTRUE;
 1001ef4:	d0a01715 	stw	r2,-32676(gp)
		xTickCount = ( TickType_t ) 0U;
 1001ef8:	d0201915 	stw	zero,-32668(gp)
		/* This line will only be reached if the kernel could not be started,
		because there was not enough FreeRTOS heap to create the idle task
		or the timer task. */
		configASSERT( xReturn );
	}
}
 1001efc:	dfc00417 	ldw	ra,16(sp)
 1001f00:	dec00504 	addi	sp,sp,20
		the run time counter time base. */
		portCONFIGURE_TIMER_FOR_RUN_TIME_STATS();

		/* Setting up the timer tick is hardware specific and thus in the
		portable interface. */
		if( xPortStartScheduler() != pdFALSE )
 1001f04:	10006901 	jmpi	1000690 <xPortStartScheduler>
		/* This line will only be reached if the kernel could not be started,
		because there was not enough FreeRTOS heap to create the idle task
		or the timer task. */
		configASSERT( xReturn );
	}
}
 1001f08:	dfc00417 	ldw	ra,16(sp)
 1001f0c:	dec00504 	addi	sp,sp,20
 1001f10:	f800283a 	ret

01001f14 <vTaskDelete>:
/*-----------------------------------------------------------*/

#if ( INCLUDE_vTaskDelete == 1 )

	void vTaskDelete( TaskHandle_t xTaskToDelete )
	{
 1001f14:	defffd04 	addi	sp,sp,-12
 1001f18:	dc000015 	stw	r16,0(sp)
 1001f1c:	2021883a 	mov	r16,r4
 1001f20:	dfc00215 	stw	ra,8(sp)
 1001f24:	dc400115 	stw	r17,4(sp)
	TCB_t *pxTCB;

		taskENTER_CRITICAL();
 1001f28:	1001bb80 	call	1001bb8 <vTaskEnterCritical>
		{
			/* If null is passed in here then it is the calling task that is
			being deleted. */
			pxTCB = prvGetTCBFromHandle( xTaskToDelete );
 1001f2c:	8000011e 	bne	r16,zero,1001f34 <vTaskDelete+0x20>
 1001f30:	d4201e17 	ldw	r16,-32648(gp)

			/* Remove task from the ready list and place in the	termination list.
			This will stop the task from be scheduled.  The idle task will check
			the termination list and free up any memory allocated by the
			scheduler for the TCB and stack. */
			if( uxListRemove( &( pxTCB->xGenericListItem ) ) == ( UBaseType_t ) 0 )
 1001f34:	84400104 	addi	r17,r16,4
 1001f38:	8809883a 	mov	r4,r17
 1001f3c:	10005500 	call	1000550 <uxListRemove>
			{
				mtCOVERAGE_TEST_MARKER();
			}

			/* Is the task waiting on an event also? */
			if( listLIST_ITEM_CONTAINER( &( pxTCB->xEventListItem ) ) != NULL )
 1001f40:	80800a17 	ldw	r2,40(r16)
 1001f44:	10000226 	beq	r2,zero,1001f50 <vTaskDelete+0x3c>
			{
				( void ) uxListRemove( &( pxTCB->xEventListItem ) );
 1001f48:	81000604 	addi	r4,r16,24
 1001f4c:	10005500 	call	1000550 <uxListRemove>
			else
			{
				mtCOVERAGE_TEST_MARKER();
			}

			vListInsertEnd( &xTasksWaitingTermination, &( pxTCB->xGenericListItem ) );
 1001f50:	01004034 	movhi	r4,256
 1001f54:	2114df04 	addi	r4,r4,21372
 1001f58:	880b883a 	mov	r5,r17
 1001f5c:	10004cc0 	call	10004cc <vListInsertEnd>

			/* Increment the ucTasksDeleted variable so the idle task knows
			there is a task that has been deleted and that it should therefore
			check the xTasksWaitingTermination list. */
			++uxTasksDeleted;
 1001f60:	d0a01b17 	ldw	r2,-32660(gp)
 1001f64:	10800044 	addi	r2,r2,1
 1001f68:	d0a01b15 	stw	r2,-32660(gp)

			/* Increment the uxTaskNumberVariable also so kernel aware debuggers
			can detect that the task lists need re-generating. */
			uxTaskNumber++;
 1001f6c:	d0a01317 	ldw	r2,-32692(gp)
 1001f70:	10800044 	addi	r2,r2,1
 1001f74:	d0a01315 	stw	r2,-32692(gp)

			traceTASK_DELETE( pxTCB );
		}
		taskEXIT_CRITICAL();
 1001f78:	1001be80 	call	1001be8 <vTaskExitCritical>

		/* Force a reschedule if it is the currently running task that has just
		been deleted. */
		if( xSchedulerRunning != pdFALSE )
 1001f7c:	d0a01717 	ldw	r2,-32676(gp)
 1001f80:	10000b26 	beq	r2,zero,1001fb0 <vTaskDelete+0x9c>
		{
			if( pxTCB == pxCurrentTCB )
 1001f84:	d0a01e17 	ldw	r2,-32648(gp)
 1001f88:	8080021e 	bne	r16,r2,1001f94 <vTaskDelete+0x80>
				in which Windows specific clean up operations are performed,
				after which it is not possible to yield away from this task -
				hence xYieldPending is used to latch that a context switch is
				required. */
				portPRE_TASK_DELETE_HOOK( pxTCB, &xYieldPending );
				portYIELD_WITHIN_API();
 1001f8c:	003b683a 	trap	0
 1001f90:	00000706 	br	1001fb0 <vTaskDelete+0x9c>
			}
			else
			{
				/* Reset the next expected unblock time in case it referred to
				the task that has just been deleted. */
				taskENTER_CRITICAL();
 1001f94:	1001bb80 	call	1001bb8 <vTaskEnterCritical>
				{
					prvResetNextTaskUnblockTime();
 1001f98:	10014340 	call	1001434 <prvResetNextTaskUnblockTime>
				}
				taskEXIT_CRITICAL();
			}
		}
	}
 1001f9c:	dfc00217 	ldw	ra,8(sp)
 1001fa0:	dc400117 	ldw	r17,4(sp)
 1001fa4:	dc000017 	ldw	r16,0(sp)
 1001fa8:	dec00304 	addi	sp,sp,12
				the task that has just been deleted. */
				taskENTER_CRITICAL();
				{
					prvResetNextTaskUnblockTime();
				}
				taskEXIT_CRITICAL();
 1001fac:	1001be81 	jmpi	1001be8 <vTaskExitCritical>
			}
		}
	}
 1001fb0:	dfc00217 	ldw	ra,8(sp)
 1001fb4:	dc400117 	ldw	r17,4(sp)
 1001fb8:	dc000017 	ldw	r16,0(sp)
 1001fbc:	dec00304 	addi	sp,sp,12
 1001fc0:	f800283a 	ret

01001fc4 <uxTaskPriorityGet>:
/*-----------------------------------------------------------*/

#if ( INCLUDE_uxTaskPriorityGet == 1 )

	UBaseType_t uxTaskPriorityGet( TaskHandle_t xTask )
	{
 1001fc4:	defffe04 	addi	sp,sp,-8
 1001fc8:	dc000015 	stw	r16,0(sp)
 1001fcc:	2021883a 	mov	r16,r4
 1001fd0:	dfc00115 	stw	ra,4(sp)
	TCB_t *pxTCB;
	UBaseType_t uxReturn;

		taskENTER_CRITICAL();
 1001fd4:	1001bb80 	call	1001bb8 <vTaskEnterCritical>
		{
			/* If null is passed in here then it is the priority of the that
			called uxTaskPriorityGet() that is being queried. */
			pxTCB = prvGetTCBFromHandle( xTask );
 1001fd8:	8000011e 	bne	r16,zero,1001fe0 <uxTaskPriorityGet+0x1c>
 1001fdc:	d4201e17 	ldw	r16,-32648(gp)
			uxReturn = pxTCB->uxPriority;
 1001fe0:	84000b17 	ldw	r16,44(r16)
		}
		taskEXIT_CRITICAL();
 1001fe4:	1001be80 	call	1001be8 <vTaskExitCritical>

		return uxReturn;
	}
 1001fe8:	8005883a 	mov	r2,r16
 1001fec:	dfc00117 	ldw	ra,4(sp)
 1001ff0:	dc000017 	ldw	r16,0(sp)
 1001ff4:	dec00204 	addi	sp,sp,8
 1001ff8:	f800283a 	ret

01001ffc <vTaskPrioritySet>:
/*-----------------------------------------------------------*/

#if ( INCLUDE_vTaskPrioritySet == 1 )

	void vTaskPrioritySet( TaskHandle_t xTask, UBaseType_t uxNewPriority )
	{
 1001ffc:	defffb04 	addi	sp,sp,-20
 1002000:	dc400115 	stw	r17,4(sp)
 1002004:	dc000015 	stw	r16,0(sp)
 1002008:	dfc00415 	stw	ra,16(sp)
 100200c:	dcc00315 	stw	r19,12(sp)
 1002010:	dc800215 	stw	r18,8(sp)
 1002014:	00800104 	movi	r2,4
 1002018:	2021883a 	mov	r16,r4
 100201c:	2823883a 	mov	r17,r5
 1002020:	1140012e 	bgeu	r2,r5,1002028 <vTaskPrioritySet+0x2c>
 1002024:	1023883a 	mov	r17,r2
		else
		{
			mtCOVERAGE_TEST_MARKER();
		}

		taskENTER_CRITICAL();
 1002028:	1001bb80 	call	1001bb8 <vTaskEnterCritical>
		{
			/* If null is passed in here then it is the priority of the calling
			task that is being changed. */
			pxTCB = prvGetTCBFromHandle( xTask );
 100202c:	8000011e 	bne	r16,zero,1002034 <vTaskPrioritySet+0x38>
 1002030:	d4201e17 	ldw	r16,-32648(gp)

			traceTASK_PRIORITY_SET( pxTCB, uxNewPriority );

			#if ( configUSE_MUTEXES == 1 )
			{
				uxCurrentBasePriority = pxTCB->uxBasePriority;
 1002034:	80801017 	ldw	r2,64(r16)
			{
				uxCurrentBasePriority = pxTCB->uxPriority;
			}
			#endif

			if( uxCurrentBasePriority != uxNewPriority )
 1002038:	14402a26 	beq	r2,r17,10020e4 <vTaskPrioritySet+0xe8>
			{
				/* The priority change may have readied a task of higher
				priority than the calling task. */
				if( uxNewPriority > uxCurrentBasePriority )
 100203c:	1440062e 	bgeu	r2,r17,1002058 <vTaskPrioritySet+0x5c>
				{
					if( pxTCB != pxCurrentTCB )
 1002040:	d0e01e17 	ldw	r3,-32648(gp)
 1002044:	80c00726 	beq	r16,r3,1002064 <vTaskPrioritySet+0x68>
					{
						/* The priority of a task other than the currently
						running task is being raised.  Is the priority being
						raised above that of the running task? */
						if( uxNewPriority >= pxCurrentTCB->uxPriority )
 1002048:	d0e01e17 	ldw	r3,-32648(gp)
 100204c:	1c800b17 	ldw	r18,44(r3)
 1002050:	8ca5403a 	cmpgeu	r18,r17,r18
 1002054:	00000406 	br	1002068 <vTaskPrioritySet+0x6c>
						/* The priority of the running task is being raised,
						but the running task must already be the highest
						priority task able to run so no yield is required. */
					}
				}
				else if( pxTCB == pxCurrentTCB )
 1002058:	d4a01e17 	ldw	r18,-32648(gp)
 100205c:	84a5003a 	cmpeq	r18,r16,r18
 1002060:	00000106 	br	1002068 <vTaskPrioritySet+0x6c>

	void vTaskPrioritySet( TaskHandle_t xTask, UBaseType_t uxNewPriority )
	{
	TCB_t *pxTCB;
	UBaseType_t uxCurrentBasePriority, uxPriorityUsedOnEntry;
	BaseType_t xYieldRequired = pdFALSE;
 1002064:	0025883a 	mov	r18,zero
				}

				/* Remember the ready list the task might be referenced from
				before its uxPriority member is changed so the
				taskRESET_READY_PRIORITY() macro can function correctly. */
				uxPriorityUsedOnEntry = pxTCB->uxPriority;
 1002068:	81000b17 	ldw	r4,44(r16)

				#if ( configUSE_MUTEXES == 1 )
				{
					/* Only change the priority being used if the task is not
					currently using an inherited priority. */
					if( pxTCB->uxBasePriority == pxTCB->uxPriority )
 100206c:	1100011e 	bne	r2,r4,1002074 <vTaskPrioritySet+0x78>
					{
						pxTCB->uxPriority = uxNewPriority;
 1002070:	84400b15 	stw	r17,44(r16)
				}
				#endif

				/* Only reset the event list item value if the value is not
				being used for anything else. */
				if( ( listGET_LIST_ITEM_VALUE( &( pxTCB->xEventListItem ) ) & taskEVENT_LIST_ITEM_VALUE_IN_USE ) == 0UL )
 1002074:	80800617 	ldw	r2,24(r16)
					{
						mtCOVERAGE_TEST_MARKER();
					}

					/* The base priority gets set whatever. */
					pxTCB->uxBasePriority = uxNewPriority;
 1002078:	84401015 	stw	r17,64(r16)
				}
				#endif

				/* Only reset the event list item value if the value is not
				being used for anything else. */
				if( ( listGET_LIST_ITEM_VALUE( &( pxTCB->xEventListItem ) ) & taskEVENT_LIST_ITEM_VALUE_IN_USE ) == 0UL )
 100207c:	10000316 	blt	r2,zero,100208c <vTaskPrioritySet+0x90>
				{
					listSET_LIST_ITEM_VALUE( &( pxTCB->xEventListItem ), ( ( TickType_t ) configMAX_PRIORITIES - ( TickType_t ) uxNewPriority ) ); /*lint !e961 MISRA exception as the casts are only redundant for some ports. */
 1002080:	01400144 	movi	r5,5
 1002084:	2c63c83a 	sub	r17,r5,r17
 1002088:	84400615 	stw	r17,24(r16)

				/* If the task is in the blocked or suspended list we need do
				nothing more than change it's priority variable. However, if
				the task is in a ready list it needs to be removed and placed
				in the list appropriate to its new priority. */
				if( listIS_CONTAINED_WITHIN( &( pxReadyTasksLists[ uxPriorityUsedOnEntry ] ), &( pxTCB->xGenericListItem ) ) != pdFALSE )
 100208c:	01400504 	movi	r5,20
 1002090:	1002a740 	call	1002a74 <__mulsi3>
 1002094:	01004034 	movhi	r4,256
 1002098:	80c00517 	ldw	r3,20(r16)
 100209c:	2114f304 	addi	r4,r4,21452
 10020a0:	2085883a 	add	r2,r4,r2
 10020a4:	2023883a 	mov	r17,r4
 10020a8:	18800c1e 	bne	r3,r2,10020dc <vTaskPrioritySet+0xe0>
				{
					/* The task is currently in its ready list - remove before adding
					it to it's new ready list.  As we are in a critical section we
					can do this even if the scheduler is suspended. */
					if( uxListRemove( &( pxTCB->xGenericListItem ) ) == ( UBaseType_t ) 0 )
 10020ac:	84c00104 	addi	r19,r16,4
 10020b0:	9809883a 	mov	r4,r19
 10020b4:	10005500 	call	1000550 <uxListRemove>
					}
					else
					{
						mtCOVERAGE_TEST_MARKER();
					}
					prvAddTaskToReadyList( pxTCB );
 10020b8:	81000b17 	ldw	r4,44(r16)
 10020bc:	d0a01817 	ldw	r2,-32672(gp)
 10020c0:	1100012e 	bgeu	r2,r4,10020c8 <vTaskPrioritySet+0xcc>
 10020c4:	d1201815 	stw	r4,-32672(gp)
 10020c8:	01400504 	movi	r5,20
 10020cc:	1002a740 	call	1002a74 <__mulsi3>
 10020d0:	8889883a 	add	r4,r17,r2
 10020d4:	980b883a 	mov	r5,r19
 10020d8:	10004cc0 	call	10004cc <vListInsertEnd>
				else
				{
					mtCOVERAGE_TEST_MARKER();
				}

				if( xYieldRequired == pdTRUE )
 10020dc:	90000126 	beq	r18,zero,10020e4 <vTaskPrioritySet+0xe8>
				{
					taskYIELD_IF_USING_PREEMPTION();
 10020e0:	003b683a 	trap	0
				optimised task selection is not being used. */
				( void ) uxPriorityUsedOnEntry;
			}
		}
		taskEXIT_CRITICAL();
	}
 10020e4:	dfc00417 	ldw	ra,16(sp)
 10020e8:	dcc00317 	ldw	r19,12(sp)
 10020ec:	dc800217 	ldw	r18,8(sp)
 10020f0:	dc400117 	ldw	r17,4(sp)
 10020f4:	dc000017 	ldw	r16,0(sp)
 10020f8:	dec00504 	addi	sp,sp,20
				/* Remove compiler warning about unused variables when the port
				optimised task selection is not being used. */
				( void ) uxPriorityUsedOnEntry;
			}
		}
		taskEXIT_CRITICAL();
 10020fc:	1001be81 	jmpi	1001be8 <vTaskExitCritical>

01002100 <vTaskSuspend>:
/*-----------------------------------------------------------*/

#if ( INCLUDE_vTaskSuspend == 1 )

	void vTaskSuspend( TaskHandle_t xTaskToSuspend )
	{
 1002100:	defffc04 	addi	sp,sp,-16
 1002104:	dc000015 	stw	r16,0(sp)
 1002108:	2021883a 	mov	r16,r4
 100210c:	dfc00315 	stw	ra,12(sp)
 1002110:	dc800215 	stw	r18,8(sp)
 1002114:	dc400115 	stw	r17,4(sp)
	TCB_t *pxTCB;

		taskENTER_CRITICAL();
 1002118:	1001bb80 	call	1001bb8 <vTaskEnterCritical>
		{
			/* If null is passed in here then it is the running task that is
			being suspended. */
			pxTCB = prvGetTCBFromHandle( xTaskToSuspend );
 100211c:	8000011e 	bne	r16,zero,1002124 <vTaskSuspend+0x24>
 1002120:	d4201e17 	ldw	r16,-32648(gp)

			traceTASK_SUSPEND( pxTCB );

			/* Remove task from the ready/delayed list and place in the
			suspended list. */
			if( uxListRemove( &( pxTCB->xGenericListItem ) ) == ( UBaseType_t ) 0 )
 1002124:	84800104 	addi	r18,r16,4
 1002128:	9009883a 	mov	r4,r18
 100212c:	10005500 	call	1000550 <uxListRemove>
			{
				mtCOVERAGE_TEST_MARKER();
			}

			/* Is the task waiting on an event also? */
			if( listLIST_ITEM_CONTAINER( &( pxTCB->xEventListItem ) ) != NULL )
 1002130:	80800a17 	ldw	r2,40(r16)
 1002134:	10000226 	beq	r2,zero,1002140 <vTaskSuspend+0x40>
			{
				( void ) uxListRemove( &( pxTCB->xEventListItem ) );
 1002138:	81000604 	addi	r4,r16,24
 100213c:	10005500 	call	1000550 <uxListRemove>
			else
			{
				mtCOVERAGE_TEST_MARKER();
			}

			vListInsertEnd( &xSuspendedTaskList, &( pxTCB->xGenericListItem ) );
 1002140:	04404034 	movhi	r17,256
 1002144:	8c54da04 	addi	r17,r17,21352
 1002148:	8809883a 	mov	r4,r17
 100214c:	900b883a 	mov	r5,r18
 1002150:	10004cc0 	call	10004cc <vListInsertEnd>
		}
		taskEXIT_CRITICAL();
 1002154:	1001be80 	call	1001be8 <vTaskExitCritical>

		if( pxTCB == pxCurrentTCB )
 1002158:	d0a01e17 	ldw	r2,-32648(gp)
 100215c:	80800f1e 	bne	r16,r2,100219c <vTaskSuspend+0x9c>
		{
			if( xSchedulerRunning != pdFALSE )
 1002160:	d0a01717 	ldw	r2,-32676(gp)
 1002164:	10000226 	beq	r2,zero,1002170 <vTaskSuspend+0x70>
			{
				/* The current task has just been suspended. */
				configASSERT( uxSchedulerSuspended == 0 );
				portYIELD_WITHIN_API();
 1002168:	003b683a 	trap	0
 100216c:	00001506 	br	10021c4 <vTaskSuspend+0xc4>
			else
			{
				/* The scheduler is not running, but the task that was pointed
				to by pxCurrentTCB has just been suspended and pxCurrentTCB
				must be adjusted to point to a different task. */
				if( listCURRENT_LIST_LENGTH( &xSuspendedTaskList ) == uxCurrentNumberOfTasks )
 1002170:	d0a01a17 	ldw	r2,-32664(gp)
 1002174:	88c00017 	ldw	r3,0(r17)
 1002178:	1880021e 	bne	r3,r2,1002184 <vTaskSuspend+0x84>
				{
					/* No other tasks are ready, so set pxCurrentTCB back to
					NULL so when the next task is created pxCurrentTCB will
					be set to point to it no matter what its relative priority
					is. */
					pxCurrentTCB = NULL;
 100217c:	d0201e15 	stw	zero,-32648(gp)
 1002180:	00001006 	br	10021c4 <vTaskSuspend+0xc4>
			else
			{
				mtCOVERAGE_TEST_MARKER();
			}
		}
	}
 1002184:	dfc00317 	ldw	ra,12(sp)
 1002188:	dc800217 	ldw	r18,8(sp)
 100218c:	dc400117 	ldw	r17,4(sp)
 1002190:	dc000017 	ldw	r16,0(sp)
 1002194:	dec00404 	addi	sp,sp,16
					is. */
					pxCurrentTCB = NULL;
				}
				else
				{
					vTaskSwitchContext();
 1002198:	10017101 	jmpi	1001710 <vTaskSwitchContext>
				}
			}
		}
		else
		{
			if( xSchedulerRunning != pdFALSE )
 100219c:	d0a01717 	ldw	r2,-32676(gp)
 10021a0:	10000826 	beq	r2,zero,10021c4 <vTaskSuspend+0xc4>
			{
				/* A task other than the currently running task was suspended,
				reset the next expected unblock time in case it referred to the
				task that is now in the Suspended state. */
				taskENTER_CRITICAL();
 10021a4:	1001bb80 	call	1001bb8 <vTaskEnterCritical>
				{
					prvResetNextTaskUnblockTime();
 10021a8:	10014340 	call	1001434 <prvResetNextTaskUnblockTime>
			else
			{
				mtCOVERAGE_TEST_MARKER();
			}
		}
	}
 10021ac:	dfc00317 	ldw	ra,12(sp)
 10021b0:	dc800217 	ldw	r18,8(sp)
 10021b4:	dc400117 	ldw	r17,4(sp)
 10021b8:	dc000017 	ldw	r16,0(sp)
 10021bc:	dec00404 	addi	sp,sp,16
				task that is now in the Suspended state. */
				taskENTER_CRITICAL();
				{
					prvResetNextTaskUnblockTime();
				}
				taskEXIT_CRITICAL();
 10021c0:	1001be81 	jmpi	1001be8 <vTaskExitCritical>
			else
			{
				mtCOVERAGE_TEST_MARKER();
			}
		}
	}
 10021c4:	dfc00317 	ldw	ra,12(sp)
 10021c8:	dc800217 	ldw	r18,8(sp)
 10021cc:	dc400117 	ldw	r17,4(sp)
 10021d0:	dc000017 	ldw	r16,0(sp)
 10021d4:	dec00404 	addi	sp,sp,16
 10021d8:	f800283a 	ret

010021dc <vTaskResume>:
		/* It does not make sense to resume the calling task. */
		configASSERT( xTaskToResume );

		/* The parameter cannot be NULL as it is impossible to resume the
		currently executing task. */
		if( ( pxTCB != NULL ) && ( pxTCB != pxCurrentTCB ) )
 10021dc:	20002426 	beq	r4,zero,1002270 <vTaskResume+0x94>
 10021e0:	d0a01e17 	ldw	r2,-32648(gp)
 10021e4:	20802226 	beq	r4,r2,1002270 <vTaskResume+0x94>
/*-----------------------------------------------------------*/

#if ( INCLUDE_vTaskSuspend == 1 )

	void vTaskResume( TaskHandle_t xTaskToResume )
	{
 10021e8:	defffd04 	addi	sp,sp,-12
 10021ec:	dfc00215 	stw	ra,8(sp)
 10021f0:	dc000015 	stw	r16,0(sp)
 10021f4:	dc400115 	stw	r17,4(sp)
 10021f8:	2021883a 	mov	r16,r4

		/* The parameter cannot be NULL as it is impossible to resume the
		currently executing task. */
		if( ( pxTCB != NULL ) && ( pxTCB != pxCurrentTCB ) )
		{
			taskENTER_CRITICAL();
 10021fc:	1001bb80 	call	1001bb8 <vTaskEnterCritical>
			{
				if( prvTaskIsTaskSuspended( pxTCB ) == pdTRUE )
 1002200:	8009883a 	mov	r4,r16
 1002204:	10014080 	call	1001408 <prvTaskIsTaskSuspended>
 1002208:	00c00044 	movi	r3,1
 100220c:	10c0131e 	bne	r2,r3,100225c <vTaskResume+0x80>
				{
					traceTASK_RESUME( pxTCB );

					/* As we are in a critical section we can access the ready
					lists even if the scheduler is suspended. */
					( void ) uxListRemove(  &( pxTCB->xGenericListItem ) );
 1002210:	84400104 	addi	r17,r16,4
 1002214:	8809883a 	mov	r4,r17
 1002218:	10005500 	call	1000550 <uxListRemove>
					prvAddTaskToReadyList( pxTCB );
 100221c:	81000b17 	ldw	r4,44(r16)
 1002220:	d0a01817 	ldw	r2,-32672(gp)
 1002224:	1100012e 	bgeu	r2,r4,100222c <vTaskResume+0x50>
 1002228:	d1201815 	stw	r4,-32672(gp)
 100222c:	01400504 	movi	r5,20
 1002230:	1002a740 	call	1002a74 <__mulsi3>
 1002234:	01004034 	movhi	r4,256
 1002238:	2114f304 	addi	r4,r4,21452
 100223c:	2089883a 	add	r4,r4,r2
 1002240:	880b883a 	mov	r5,r17
 1002244:	10004cc0 	call	10004cc <vListInsertEnd>

					/* We may have just resumed a higher priority task. */
					if( pxTCB->uxPriority >= pxCurrentTCB->uxPriority )
 1002248:	d0a01e17 	ldw	r2,-32648(gp)
 100224c:	80c00b17 	ldw	r3,44(r16)
 1002250:	10800b17 	ldw	r2,44(r2)
 1002254:	18800136 	bltu	r3,r2,100225c <vTaskResume+0x80>
					{
						/* This yield may not cause the task just resumed to run,
						but will leave the lists in the correct state for the
						next yield. */
						taskYIELD_IF_USING_PREEMPTION();
 1002258:	003b683a 	trap	0
		}
		else
		{
			mtCOVERAGE_TEST_MARKER();
		}
	}
 100225c:	dfc00217 	ldw	ra,8(sp)
 1002260:	dc400117 	ldw	r17,4(sp)
 1002264:	dc000017 	ldw	r16,0(sp)
 1002268:	dec00304 	addi	sp,sp,12
				else
				{
					mtCOVERAGE_TEST_MARKER();
				}
			}
			taskEXIT_CRITICAL();
 100226c:	1001be81 	jmpi	1001be8 <vTaskExitCritical>
 1002270:	f800283a 	ret

01002274 <xTaskResumeAll>:

#endif /* configUSE_TICKLESS_IDLE */
/*----------------------------------------------------------*/

BaseType_t xTaskResumeAll( void )
{
 1002274:	defffa04 	addi	sp,sp,-24
 1002278:	dfc00515 	stw	ra,20(sp)
 100227c:	dd000415 	stw	r20,16(sp)
 1002280:	dcc00315 	stw	r19,12(sp)
 1002284:	dc800215 	stw	r18,8(sp)
 1002288:	dc400115 	stw	r17,4(sp)
 100228c:	dc000015 	stw	r16,0(sp)
	/* It is possible that an ISR caused a task to be removed from an event
	list while the scheduler was suspended.  If this was the case then the
	removed task will have been added to the xPendingReadyList.  Once the
	scheduler has been resumed it is safe to move all the pending ready
	tasks from this list into their appropriate ready list. */
	taskENTER_CRITICAL();
 1002290:	1001bb80 	call	1001bb8 <vTaskEnterCritical>
	{
		--uxSchedulerSuspended;
 1002294:	d0a01117 	ldw	r2,-32700(gp)
 1002298:	10bfffc4 	addi	r2,r2,-1
 100229c:	d0a01115 	stw	r2,-32700(gp)

		if( uxSchedulerSuspended == ( UBaseType_t ) pdFALSE )
 10022a0:	d0a01117 	ldw	r2,-32700(gp)
 10022a4:	10000226 	beq	r2,zero,10022b0 <xTaskResumeAll+0x3c>
/*----------------------------------------------------------*/

BaseType_t xTaskResumeAll( void )
{
TCB_t *pxTCB;
BaseType_t xAlreadyYielded = pdFALSE;
 10022a8:	0021883a 	mov	r16,zero
 10022ac:	00003006 	br	1002370 <xTaskResumeAll+0xfc>
	{
		--uxSchedulerSuspended;

		if( uxSchedulerSuspended == ( UBaseType_t ) pdFALSE )
		{
			if( uxCurrentNumberOfTasks > ( UBaseType_t ) 0U )
 10022b0:	d0a01a17 	ldw	r2,-32664(gp)
 10022b4:	103ffc26 	beq	r2,zero,10022a8 <xTaskResumeAll+0x34>
			{
				/* Move any readied tasks from the pending list into the
				appropriate ready list. */
				while( listLIST_IS_EMPTY( &xPendingReadyList ) == pdFALSE )
 10022b8:	04404034 	movhi	r17,256
				{
					pxTCB = ( TCB_t * ) listGET_OWNER_OF_HEAD_ENTRY( ( &xPendingReadyList ) );
					( void ) uxListRemove( &( pxTCB->xEventListItem ) );
					( void ) uxListRemove( &( pxTCB->xGenericListItem ) );
					prvAddTaskToReadyList( pxTCB );
 10022bc:	04c04034 	movhi	r19,256
		{
			if( uxCurrentNumberOfTasks > ( UBaseType_t ) 0U )
			{
				/* Move any readied tasks from the pending list into the
				appropriate ready list. */
				while( listLIST_IS_EMPTY( &xPendingReadyList ) == pdFALSE )
 10022c0:	8c54e404 	addi	r17,r17,21392
				{
					pxTCB = ( TCB_t * ) listGET_OWNER_OF_HEAD_ENTRY( ( &xPendingReadyList ) );
					( void ) uxListRemove( &( pxTCB->xEventListItem ) );
					( void ) uxListRemove( &( pxTCB->xGenericListItem ) );
					prvAddTaskToReadyList( pxTCB );
 10022c4:	9cd4f304 	addi	r19,r19,21452

					/* If the moved task has a priority higher than the current
					task then a yield must be performed. */
					if( pxTCB->uxPriority >= pxCurrentTCB->uxPriority )
					{
						xYieldPending = pdTRUE;
 10022c8:	05000044 	movi	r20,1
		{
			if( uxCurrentNumberOfTasks > ( UBaseType_t ) 0U )
			{
				/* Move any readied tasks from the pending list into the
				appropriate ready list. */
				while( listLIST_IS_EMPTY( &xPendingReadyList ) == pdFALSE )
 10022cc:	88800017 	ldw	r2,0(r17)
 10022d0:	10001626 	beq	r2,zero,100232c <xTaskResumeAll+0xb8>
				{
					pxTCB = ( TCB_t * ) listGET_OWNER_OF_HEAD_ENTRY( ( &xPendingReadyList ) );
 10022d4:	88800317 	ldw	r2,12(r17)
 10022d8:	14000317 	ldw	r16,12(r2)
					( void ) uxListRemove( &( pxTCB->xEventListItem ) );
 10022dc:	81000604 	addi	r4,r16,24
 10022e0:	10005500 	call	1000550 <uxListRemove>
					( void ) uxListRemove( &( pxTCB->xGenericListItem ) );
 10022e4:	84800104 	addi	r18,r16,4
 10022e8:	9009883a 	mov	r4,r18
 10022ec:	10005500 	call	1000550 <uxListRemove>
					prvAddTaskToReadyList( pxTCB );
 10022f0:	81000b17 	ldw	r4,44(r16)
 10022f4:	d0a01817 	ldw	r2,-32672(gp)
 10022f8:	1100012e 	bgeu	r2,r4,1002300 <xTaskResumeAll+0x8c>
 10022fc:	d1201815 	stw	r4,-32672(gp)
 1002300:	01400504 	movi	r5,20
 1002304:	1002a740 	call	1002a74 <__mulsi3>
 1002308:	9889883a 	add	r4,r19,r2
 100230c:	900b883a 	mov	r5,r18
 1002310:	10004cc0 	call	10004cc <vListInsertEnd>

					/* If the moved task has a priority higher than the current
					task then a yield must be performed. */
					if( pxTCB->uxPriority >= pxCurrentTCB->uxPriority )
 1002314:	d0a01e17 	ldw	r2,-32648(gp)
 1002318:	80c00b17 	ldw	r3,44(r16)
 100231c:	10800b17 	ldw	r2,44(r2)
 1002320:	18bfea36 	bltu	r3,r2,10022cc <xTaskResumeAll+0x58>
					{
						xYieldPending = pdTRUE;
 1002324:	d5201515 	stw	r20,-32684(gp)
 1002328:	003fe806 	br	10022cc <xTaskResumeAll+0x58>

				/* If any ticks occurred while the scheduler was suspended then
				they should be processed now.  This ensures the tick count does
				not	slip, and that any delayed tasks are resumed at the correct
				time. */
				if( uxPendedTicks > ( UBaseType_t ) 0U )
 100232c:	d0a01617 	ldw	r2,-32680(gp)
 1002330:	1000051e 	bne	r2,zero,1002348 <xTaskResumeAll+0xd4>
				else
				{
					mtCOVERAGE_TEST_MARKER();
				}

				if( xYieldPending == pdTRUE )
 1002334:	d4201517 	ldw	r16,-32684(gp)
 1002338:	00800044 	movi	r2,1
 100233c:	80bfda1e 	bne	r16,r2,10022a8 <xTaskResumeAll+0x34>
					#if( configUSE_PREEMPTION != 0 )
					{
						xAlreadyYielded = pdTRUE;
					}
					#endif
					taskYIELD_IF_USING_PREEMPTION();
 1002340:	003b683a 	trap	0
 1002344:	00000a06 	br	1002370 <xTaskResumeAll+0xfc>
				{
					while( uxPendedTicks > ( UBaseType_t ) 0U )
					{
						if( xTaskIncrementTick() != pdFALSE )
						{
							xYieldPending = pdTRUE;
 1002348:	04000044 	movi	r16,1
				they should be processed now.  This ensures the tick count does
				not	slip, and that any delayed tasks are resumed at the correct
				time. */
				if( uxPendedTicks > ( UBaseType_t ) 0U )
				{
					while( uxPendedTicks > ( UBaseType_t ) 0U )
 100234c:	d0a01617 	ldw	r2,-32680(gp)
 1002350:	103ff826 	beq	r2,zero,1002334 <xTaskResumeAll+0xc0>
					{
						if( xTaskIncrementTick() != pdFALSE )
 1002354:	10015b40 	call	10015b4 <xTaskIncrementTick>
 1002358:	10000126 	beq	r2,zero,1002360 <xTaskResumeAll+0xec>
						{
							xYieldPending = pdTRUE;
 100235c:	d4201515 	stw	r16,-32684(gp)
						}
						else
						{
							mtCOVERAGE_TEST_MARKER();
						}
						--uxPendedTicks;
 1002360:	d0a01617 	ldw	r2,-32680(gp)
 1002364:	10bfffc4 	addi	r2,r2,-1
 1002368:	d0a01615 	stw	r2,-32680(gp)
 100236c:	003ff706 	br	100234c <xTaskResumeAll+0xd8>
		else
		{
			mtCOVERAGE_TEST_MARKER();
		}
	}
	taskEXIT_CRITICAL();
 1002370:	1001be80 	call	1001be8 <vTaskExitCritical>

	return xAlreadyYielded;
}
 1002374:	8005883a 	mov	r2,r16
 1002378:	dfc00517 	ldw	ra,20(sp)
 100237c:	dd000417 	ldw	r20,16(sp)
 1002380:	dcc00317 	ldw	r19,12(sp)
 1002384:	dc800217 	ldw	r18,8(sp)
 1002388:	dc400117 	ldw	r17,4(sp)
 100238c:	dc000017 	ldw	r16,0(sp)
 1002390:	dec00604 	addi	sp,sp,24
 1002394:	f800283a 	ret

01002398 <vTaskDelayUntil>:
/*-----------------------------------------------------------*/

#if ( INCLUDE_vTaskDelayUntil == 1 )

	void vTaskDelayUntil( TickType_t * const pxPreviousWakeTime, const TickType_t xTimeIncrement )
	{
 1002398:	defffd04 	addi	sp,sp,-12
 100239c:	dc400115 	stw	r17,4(sp)
 10023a0:	dc000015 	stw	r16,0(sp)
 10023a4:	2023883a 	mov	r17,r4
 10023a8:	2821883a 	mov	r16,r5
 10023ac:	dfc00215 	stw	ra,8(sp)

		configASSERT( pxPreviousWakeTime );
		configASSERT( ( xTimeIncrement > 0U ) );
		configASSERT( uxSchedulerSuspended == 0 );

		vTaskSuspendAll();
 10023b0:	100158c0 	call	100158c <vTaskSuspendAll>
			/* Minor optimisation.  The tick count cannot change in this
			block. */
			const TickType_t xConstTickCount = xTickCount;

			/* Generate the tick time at which the task wants to wake. */
			xTimeToWake = *pxPreviousWakeTime + xTimeIncrement;
 10023b4:	88c00017 	ldw	r3,0(r17)

		vTaskSuspendAll();
		{
			/* Minor optimisation.  The tick count cannot change in this
			block. */
			const TickType_t xConstTickCount = xTickCount;
 10023b8:	d0a01917 	ldw	r2,-32668(gp)

			/* Generate the tick time at which the task wants to wake. */
			xTimeToWake = *pxPreviousWakeTime + xTimeIncrement;
 10023bc:	1c21883a 	add	r16,r3,r16

			if( xConstTickCount < *pxPreviousWakeTime )
 10023c0:	10c0022e 	bgeu	r2,r3,10023cc <vTaskDelayUntil+0x34>
				/* The tick count has overflowed since this function was
				lasted called.  In this case the only time we should ever
				actually delay is if the wake time has also	overflowed,
				and the wake time is greater than the tick time.  When this
				is the case it is as if neither time had overflowed. */
				if( ( xTimeToWake < *pxPreviousWakeTime ) && ( xTimeToWake > xConstTickCount ) )
 10023c4:	80c0042e 	bgeu	r16,r3,10023d8 <vTaskDelayUntil+0x40>
 10023c8:	00000106 	br	10023d0 <vTaskDelayUntil+0x38>
			else
			{
				/* The tick time has not overflowed.  In this case we will
				delay if either the wake time has overflowed, and/or the
				tick time is less than the wake time. */
				if( ( xTimeToWake < *pxPreviousWakeTime ) || ( xTimeToWake > xConstTickCount ) )
 10023cc:	80c00436 	bltu	r16,r3,10023e0 <vTaskDelayUntil+0x48>
 10023d0:	1405803a 	cmpltu	r2,r2,r16
 10023d4:	00000306 	br	10023e4 <vTaskDelayUntil+0x4c>
#if ( INCLUDE_vTaskDelayUntil == 1 )

	void vTaskDelayUntil( TickType_t * const pxPreviousWakeTime, const TickType_t xTimeIncrement )
	{
	TickType_t xTimeToWake;
	BaseType_t xAlreadyYielded, xShouldDelay = pdFALSE;
 10023d8:	0005883a 	mov	r2,zero
 10023dc:	00000106 	br	10023e4 <vTaskDelayUntil+0x4c>
				/* The tick time has not overflowed.  In this case we will
				delay if either the wake time has overflowed, and/or the
				tick time is less than the wake time. */
				if( ( xTimeToWake < *pxPreviousWakeTime ) || ( xTimeToWake > xConstTickCount ) )
				{
					xShouldDelay = pdTRUE;
 10023e0:	00800044 	movi	r2,1
					mtCOVERAGE_TEST_MARKER();
				}
			}

			/* Update the wake time ready for the next call. */
			*pxPreviousWakeTime = xTimeToWake;
 10023e4:	8c000015 	stw	r16,0(r17)

			if( xShouldDelay != pdFALSE )
 10023e8:	10000526 	beq	r2,zero,1002400 <vTaskDelayUntil+0x68>
			{
				traceTASK_DELAY_UNTIL();

				/* Remove the task from the ready list before adding it to the
				blocked list as the same list item is used for both lists. */
				if( uxListRemove( &( pxCurrentTCB->xGenericListItem ) ) == ( UBaseType_t ) 0 )
 10023ec:	d1201e17 	ldw	r4,-32648(gp)
 10023f0:	21000104 	addi	r4,r4,4
 10023f4:	10005500 	call	1000550 <uxListRemove>
				else
				{
					mtCOVERAGE_TEST_MARKER();
				}

				prvAddCurrentTaskToDelayedList( xTimeToWake );
 10023f8:	8009883a 	mov	r4,r16
 10023fc:	10014600 	call	1001460 <prvAddCurrentTaskToDelayedList>
			else
			{
				mtCOVERAGE_TEST_MARKER();
			}
		}
		xAlreadyYielded = xTaskResumeAll();
 1002400:	10022740 	call	1002274 <xTaskResumeAll>

		/* Force a reschedule if xTaskResumeAll has not already done so, we may
		have put ourselves to sleep. */
		if( xAlreadyYielded == pdFALSE )
 1002404:	1000011e 	bne	r2,zero,100240c <vTaskDelayUntil+0x74>
		{
			portYIELD_WITHIN_API();
 1002408:	003b683a 	trap	0
		}
		else
		{
			mtCOVERAGE_TEST_MARKER();
		}
	}
 100240c:	dfc00217 	ldw	ra,8(sp)
 1002410:	dc400117 	ldw	r17,4(sp)
 1002414:	dc000017 	ldw	r16,0(sp)
 1002418:	dec00304 	addi	sp,sp,12
 100241c:	f800283a 	ret

01002420 <vTaskDelay>:
	TickType_t xTimeToWake;
	BaseType_t xAlreadyYielded = pdFALSE;


		/* A delay time of zero just forces a reschedule. */
		if( xTicksToDelay > ( TickType_t ) 0U )
 1002420:	20001326 	beq	r4,zero,1002470 <vTaskDelay+0x50>
/*-----------------------------------------------------------*/

#if ( INCLUDE_vTaskDelay == 1 )

	void vTaskDelay( const TickType_t xTicksToDelay )
	{
 1002424:	defffe04 	addi	sp,sp,-8
 1002428:	dfc00115 	stw	ra,4(sp)
 100242c:	dc000015 	stw	r16,0(sp)
 1002430:	2021883a 	mov	r16,r4

		/* A delay time of zero just forces a reschedule. */
		if( xTicksToDelay > ( TickType_t ) 0U )
		{
			configASSERT( uxSchedulerSuspended == 0 );
			vTaskSuspendAll();
 1002434:	100158c0 	call	100158c <vTaskSuspendAll>
				This task cannot be in an event list as it is the currently
				executing task. */

				/* Calculate the time to wake - this may overflow but this is
				not a problem. */
				xTimeToWake = xTickCount + xTicksToDelay;
 1002438:	d1201917 	ldw	r4,-32668(gp)
 100243c:	8121883a 	add	r16,r16,r4

				/* We must remove ourselves from the ready list before adding
				ourselves to the blocked list as the same list item is used for
				both lists. */
				if( uxListRemove( &( pxCurrentTCB->xGenericListItem ) ) == ( UBaseType_t ) 0 )
 1002440:	d1201e17 	ldw	r4,-32648(gp)
 1002444:	21000104 	addi	r4,r4,4
 1002448:	10005500 	call	1000550 <uxListRemove>
				}
				else
				{
					mtCOVERAGE_TEST_MARKER();
				}
				prvAddCurrentTaskToDelayedList( xTimeToWake );
 100244c:	8009883a 	mov	r4,r16
 1002450:	10014600 	call	1001460 <prvAddCurrentTaskToDelayedList>
			}
			xAlreadyYielded = xTaskResumeAll();
 1002454:	10022740 	call	1002274 <xTaskResumeAll>
			mtCOVERAGE_TEST_MARKER();
		}

		/* Force a reschedule if xTaskResumeAll has not already done so, we may
		have put ourselves to sleep. */
		if( xAlreadyYielded == pdFALSE )
 1002458:	1000011e 	bne	r2,zero,1002460 <vTaskDelay+0x40>
		{
			portYIELD_WITHIN_API();
 100245c:	003b683a 	trap	0
		}
		else
		{
			mtCOVERAGE_TEST_MARKER();
		}
	}
 1002460:	dfc00117 	ldw	ra,4(sp)
 1002464:	dc000017 	ldw	r16,0(sp)
 1002468:	dec00204 	addi	sp,sp,8
 100246c:	f800283a 	ret

		/* Force a reschedule if xTaskResumeAll has not already done so, we may
		have put ourselves to sleep. */
		if( xAlreadyYielded == pdFALSE )
		{
			portYIELD_WITHIN_API();
 1002470:	003b683a 	trap	0
 1002474:	f800283a 	ret

01002478 <prvIdleTask>:
 *
 * void prvIdleTask( void *pvParameters );
 *
 */
static portTASK_FUNCTION( prvIdleTask, pvParameters )
{
 1002478:	defffd04 	addi	sp,sp,-12
 100247c:	dc400115 	stw	r17,4(sp)
		too often in the idle task. */
		while( uxTasksDeleted > ( UBaseType_t ) 0U )
		{
			vTaskSuspendAll();
			{
				xListIsEmpty = listLIST_IS_EMPTY( &xTasksWaitingTermination );
 1002480:	04404034 	movhi	r17,256
 *
 * void prvIdleTask( void *pvParameters );
 *
 */
static portTASK_FUNCTION( prvIdleTask, pvParameters )
{
 1002484:	dfc00215 	stw	ra,8(sp)
 1002488:	dc000015 	stw	r16,0(sp)
		too often in the idle task. */
		while( uxTasksDeleted > ( UBaseType_t ) 0U )
		{
			vTaskSuspendAll();
			{
				xListIsEmpty = listLIST_IS_EMPTY( &xTasksWaitingTermination );
 100248c:	8c54df04 	addi	r17,r17,21372
	{
		BaseType_t xListIsEmpty;

		/* ucTasksDeleted is used to prevent vTaskSuspendAll() being called
		too often in the idle task. */
		while( uxTasksDeleted > ( UBaseType_t ) 0U )
 1002490:	d0a01b17 	ldw	r2,-32660(gp)
 1002494:	103ffe26 	beq	r2,zero,1002490 <prvIdleTask+0x18>
		{
			vTaskSuspendAll();
 1002498:	100158c0 	call	100158c <vTaskSuspendAll>
			{
				xListIsEmpty = listLIST_IS_EMPTY( &xTasksWaitingTermination );
 100249c:	8c000017 	ldw	r16,0(r17)
			}
			( void ) xTaskResumeAll();
 10024a0:	10022740 	call	1002274 <xTaskResumeAll>

			if( xListIsEmpty == pdFALSE )
 10024a4:	803ffa26 	beq	r16,zero,1002490 <prvIdleTask+0x18>
			{
				TCB_t *pxTCB;

				taskENTER_CRITICAL();
 10024a8:	1001bb80 	call	1001bb8 <vTaskEnterCritical>
				{
					pxTCB = ( TCB_t * ) listGET_OWNER_OF_HEAD_ENTRY( ( &xTasksWaitingTermination ) );
 10024ac:	00804034 	movhi	r2,256
 10024b0:	1094df04 	addi	r2,r2,21372
 10024b4:	10800317 	ldw	r2,12(r2)
 10024b8:	14000317 	ldw	r16,12(r2)
					( void ) uxListRemove( &( pxTCB->xGenericListItem ) );
 10024bc:	81000104 	addi	r4,r16,4
 10024c0:	10005500 	call	1000550 <uxListRemove>
					--uxCurrentNumberOfTasks;
 10024c4:	d0a01a17 	ldw	r2,-32664(gp)
 10024c8:	10bfffc4 	addi	r2,r2,-1
 10024cc:	d0a01a15 	stw	r2,-32664(gp)
					--uxTasksDeleted;
 10024d0:	d0a01b17 	ldw	r2,-32660(gp)
 10024d4:	10bfffc4 	addi	r2,r2,-1
 10024d8:	d0a01b15 	stw	r2,-32660(gp)
				}
				taskEXIT_CRITICAL();
 10024dc:	1001be80 	call	1001be8 <vTaskExitCritical>
				vPortFreeAligned( pxTCB->pxStack );
			}
		}
		#else
		{
			vPortFreeAligned( pxTCB->pxStack );
 10024e0:	81000c17 	ldw	r4,48(r16)
 10024e4:	10007980 	call	1000798 <vPortFree>
		}
		#endif

		vPortFree( pxTCB );
 10024e8:	8009883a 	mov	r4,r16
 10024ec:	10007980 	call	1000798 <vPortFree>
 10024f0:	003fe706 	br	1002490 <prvIdleTask+0x18>

010024f4 <xTaskCheckForTimeOut>:
	pxTimeOut->xTimeOnEntering = xTickCount;
}
/*-----------------------------------------------------------*/

BaseType_t xTaskCheckForTimeOut( TimeOut_t * const pxTimeOut, TickType_t * const pxTicksToWait )
{
 10024f4:	defffd04 	addi	sp,sp,-12
 10024f8:	dc000115 	stw	r16,4(sp)
BaseType_t xReturn;

	configASSERT( pxTimeOut );
	configASSERT( pxTicksToWait );

	taskENTER_CRITICAL();
 10024fc:	d9000015 	stw	r4,0(sp)
	pxTimeOut->xTimeOnEntering = xTickCount;
}
/*-----------------------------------------------------------*/

BaseType_t xTaskCheckForTimeOut( TimeOut_t * const pxTimeOut, TickType_t * const pxTicksToWait )
{
 1002500:	2821883a 	mov	r16,r5
 1002504:	dfc00215 	stw	ra,8(sp)
BaseType_t xReturn;

	configASSERT( pxTimeOut );
	configASSERT( pxTicksToWait );

	taskENTER_CRITICAL();
 1002508:	1001bb80 	call	1001bb8 <vTaskEnterCritical>

		#if ( INCLUDE_vTaskSuspend == 1 )
			/* If INCLUDE_vTaskSuspend is set to 1 and the block time specified is
			the maximum block time then the task should block indefinitely, and
			therefore never time out. */
			if( *pxTicksToWait == portMAX_DELAY )
 100250c:	80800017 	ldw	r2,0(r16)
	configASSERT( pxTicksToWait );

	taskENTER_CRITICAL();
	{
		/* Minor optimisation.  The tick count cannot change in this block. */
		const TickType_t xConstTickCount = xTickCount;
 1002510:	d1a01917 	ldw	r6,-32668(gp)

		#if ( INCLUDE_vTaskSuspend == 1 )
			/* If INCLUDE_vTaskSuspend is set to 1 and the block time specified is
			the maximum block time then the task should block indefinitely, and
			therefore never time out. */
			if( *pxTicksToWait == portMAX_DELAY )
 1002514:	00ffffc4 	movi	r3,-1
 1002518:	d9000017 	ldw	r4,0(sp)
 100251c:	10c00c26 	beq	r2,r3,1002550 <xTaskCheckForTimeOut+0x5c>
				xReturn = pdFALSE;
			}
			else /* We are not blocking indefinitely, perform the checks below. */
		#endif

		if( ( xNumOfOverflows != pxTimeOut->xOverflowCount ) && ( xConstTickCount >= pxTimeOut->xTimeOnEntering ) ) /*lint !e525 Indentation preferred as is to make code within pre-processor directives clearer. */
 1002520:	d1601417 	ldw	r5,-32688(gp)
 1002524:	20c00017 	ldw	r3,0(r4)
 1002528:	28c00226 	beq	r5,r3,1002534 <xTaskCheckForTimeOut+0x40>
 100252c:	20c00117 	ldw	r3,4(r4)
 1002530:	30c0092e 	bgeu	r6,r3,1002558 <xTaskCheckForTimeOut+0x64>
			was called, but has also overflowed since vTaskSetTimeOut() was called.
			It must have wrapped all the way around and gone past us again. This
			passed since vTaskSetTimeout() was called. */
			xReturn = pdTRUE;
		}
		else if( ( xConstTickCount - pxTimeOut->xTimeOnEntering ) < *pxTicksToWait )
 1002534:	20c00117 	ldw	r3,4(r4)
 1002538:	30cbc83a 	sub	r5,r6,r3
 100253c:	2880062e 	bgeu	r5,r2,1002558 <xTaskCheckForTimeOut+0x64>
		{
			/* Not a genuine timeout. Adjust parameters for time remaining. */
			*pxTicksToWait -= ( xConstTickCount -  pxTimeOut->xTimeOnEntering );
 1002540:	1987c83a 	sub	r3,r3,r6
 1002544:	1885883a 	add	r2,r3,r2
 1002548:	80800015 	stw	r2,0(r16)
			vTaskSetTimeOutState( pxTimeOut );
 100254c:	10019e40 	call	10019e4 <vTaskSetTimeOutState>
			/* If INCLUDE_vTaskSuspend is set to 1 and the block time specified is
			the maximum block time then the task should block indefinitely, and
			therefore never time out. */
			if( *pxTicksToWait == portMAX_DELAY )
			{
				xReturn = pdFALSE;
 1002550:	0021883a 	mov	r16,zero
 1002554:	00000106 	br	100255c <xTaskCheckForTimeOut+0x68>
		{
			/* The tick count is greater than the time at which vTaskSetTimeout()
			was called, but has also overflowed since vTaskSetTimeOut() was called.
			It must have wrapped all the way around and gone past us again. This
			passed since vTaskSetTimeout() was called. */
			xReturn = pdTRUE;
 1002558:	04000044 	movi	r16,1
		else
		{
			xReturn = pdTRUE;
		}
	}
	taskEXIT_CRITICAL();
 100255c:	1001be80 	call	1001be8 <vTaskExitCritical>

	return xReturn;
}
 1002560:	8005883a 	mov	r2,r16
 1002564:	dfc00217 	ldw	ra,8(sp)
 1002568:	dc000117 	ldw	r16,4(sp)
 100256c:	dec00304 	addi	sp,sp,12
 1002570:	f800283a 	ret

01002574 <uxTaskResetEventItemValue>:

TickType_t uxTaskResetEventItemValue( void )
{
TickType_t uxReturn;

	uxReturn = listGET_LIST_ITEM_VALUE( &( pxCurrentTCB->xEventListItem ) );
 1002574:	d0a01e17 	ldw	r2,-32648(gp)

	/* Reset the event list item to its normal value - so it can be used with
	queues and semaphores. */
	listSET_LIST_ITEM_VALUE( &( pxCurrentTCB->xEventListItem ), ( ( TickType_t ) configMAX_PRIORITIES - ( TickType_t ) pxCurrentTCB->uxPriority ) ); /*lint !e961 MISRA exception as the casts are only redundant for some ports. */
 1002578:	d1201e17 	ldw	r4,-32648(gp)
 100257c:	d0e01e17 	ldw	r3,-32648(gp)

TickType_t uxTaskResetEventItemValue( void )
{
TickType_t uxReturn;

	uxReturn = listGET_LIST_ITEM_VALUE( &( pxCurrentTCB->xEventListItem ) );
 1002580:	10800617 	ldw	r2,24(r2)

	/* Reset the event list item to its normal value - so it can be used with
	queues and semaphores. */
	listSET_LIST_ITEM_VALUE( &( pxCurrentTCB->xEventListItem ), ( ( TickType_t ) configMAX_PRIORITIES - ( TickType_t ) pxCurrentTCB->uxPriority ) ); /*lint !e961 MISRA exception as the casts are only redundant for some ports. */
 1002584:	19400b17 	ldw	r5,44(r3)
 1002588:	00c00144 	movi	r3,5
 100258c:	1947c83a 	sub	r3,r3,r5
 1002590:	20c00615 	stw	r3,24(r4)

	return uxReturn;
}
 1002594:	f800283a 	ret

01002598 <pvTaskIncrementMutexHeldCount>:

	void *pvTaskIncrementMutexHeldCount( void )
	{
		/* If xSemaphoreCreateMutex() is called before any tasks have been created
		then pxCurrentTCB will be NULL. */
		if( pxCurrentTCB != NULL )
 1002598:	d0a01e17 	ldw	r2,-32648(gp)
 100259c:	10000426 	beq	r2,zero,10025b0 <pvTaskIncrementMutexHeldCount+0x18>
		{
			( pxCurrentTCB->uxMutexesHeld )++;
 10025a0:	d0e01e17 	ldw	r3,-32648(gp)
 10025a4:	18801117 	ldw	r2,68(r3)
 10025a8:	10800044 	addi	r2,r2,1
 10025ac:	18801115 	stw	r2,68(r3)
		}

		return pxCurrentTCB;
 10025b0:	d0a01e17 	ldw	r2,-32648(gp)
	}
 10025b4:	f800283a 	ret

010025b8 <ulTaskNotifyTake>:
/*-----------------------------------------------------------*/

#if( configUSE_TASK_NOTIFICATIONS == 1 )

	uint32_t ulTaskNotifyTake( BaseType_t xClearCountOnExit, TickType_t xTicksToWait )
	{
 10025b8:	defffd04 	addi	sp,sp,-12
 10025bc:	dc400115 	stw	r17,4(sp)
 10025c0:	dc000015 	stw	r16,0(sp)
 10025c4:	dfc00215 	stw	ra,8(sp)
 10025c8:	2023883a 	mov	r17,r4
 10025cc:	2821883a 	mov	r16,r5
	TickType_t xTimeToWake;
	uint32_t ulReturn;

		taskENTER_CRITICAL();
 10025d0:	1001bb80 	call	1001bb8 <vTaskEnterCritical>
		{
			/* Only block if the notification count is not already non-zero. */
			if( pxCurrentTCB->ulNotifiedValue == 0UL )
 10025d4:	d0a01e17 	ldw	r2,-32648(gp)
 10025d8:	10801217 	ldw	r2,72(r2)
 10025dc:	1000131e 	bne	r2,zero,100262c <ulTaskNotifyTake+0x74>
			{
				/* Mark this task as waiting for a notification. */
				pxCurrentTCB->eNotifyState = eWaitingNotification;
 10025e0:	d0a01e17 	ldw	r2,-32648(gp)
 10025e4:	00c00044 	movi	r3,1
 10025e8:	10c01315 	stw	r3,76(r2)

				if( xTicksToWait > ( TickType_t ) 0 )
 10025ec:	80000f26 	beq	r16,zero,100262c <ulTaskNotifyTake+0x74>
				{
					/* The task is going to block.  First it must be removed
					from the ready list. */
					if( uxListRemove( &( pxCurrentTCB->xGenericListItem ) ) == ( UBaseType_t ) 0 )
 10025f0:	d1201e17 	ldw	r4,-32648(gp)
 10025f4:	21000104 	addi	r4,r4,4
 10025f8:	10005500 	call	1000550 <uxListRemove>
						mtCOVERAGE_TEST_MARKER();
					}

					#if ( INCLUDE_vTaskSuspend == 1 )
					{
						if( xTicksToWait == portMAX_DELAY )
 10025fc:	00bfffc4 	movi	r2,-1
 1002600:	8080061e 	bne	r16,r2,100261c <ulTaskNotifyTake+0x64>
						{
							/* Add the task to the suspended task list instead
							of a delayed task list to ensure the task is not
							woken by a timing event.  It will block
							indefinitely. */
							vListInsertEnd( &xSuspendedTaskList, &( pxCurrentTCB->xGenericListItem ) );
 1002604:	d1601e17 	ldw	r5,-32648(gp)
 1002608:	01004034 	movhi	r4,256
 100260c:	2114da04 	addi	r4,r4,21352
 1002610:	29400104 	addi	r5,r5,4
 1002614:	10004cc0 	call	10004cc <vListInsertEnd>
 1002618:	00000306 	br	1002628 <ulTaskNotifyTake+0x70>
						{
							/* Calculate the time at which the task should be
							woken if no notification events occur.  This may
							overflow but this doesn't matter, the scheduler will
							handle it. */
							xTimeToWake = xTickCount + xTicksToWait;
 100261c:	d1201917 	ldw	r4,-32668(gp)
							prvAddCurrentTaskToDelayedList( xTimeToWake );
 1002620:	8109883a 	add	r4,r16,r4
 1002624:	10014600 	call	1001460 <prvAddCurrentTaskToDelayedList>

					/* All ports are written to allow a yield in a critical
					section (some will yield immediately, others wait until the
					critical section exits) - but it is not something that
					application code should ever do. */
					portYIELD_WITHIN_API();
 1002628:	003b683a 	trap	0
			else
			{
				mtCOVERAGE_TEST_MARKER();
			}
		}
		taskEXIT_CRITICAL();
 100262c:	1001be80 	call	1001be8 <vTaskExitCritical>

		taskENTER_CRITICAL();
 1002630:	1001bb80 	call	1001bb8 <vTaskEnterCritical>
		{
			traceTASK_NOTIFY_TAKE();
			ulReturn = pxCurrentTCB->ulNotifiedValue;
 1002634:	d0a01e17 	ldw	r2,-32648(gp)
 1002638:	14001217 	ldw	r16,72(r2)

			if( ulReturn != 0UL )
 100263c:	80000726 	beq	r16,zero,100265c <ulTaskNotifyTake+0xa4>
			{
				if( xClearCountOnExit != pdFALSE )
				{
					pxCurrentTCB->ulNotifiedValue = 0UL;
 1002640:	d0a01e17 	ldw	r2,-32648(gp)
			traceTASK_NOTIFY_TAKE();
			ulReturn = pxCurrentTCB->ulNotifiedValue;

			if( ulReturn != 0UL )
			{
				if( xClearCountOnExit != pdFALSE )
 1002644:	88000226 	beq	r17,zero,1002650 <ulTaskNotifyTake+0x98>
				{
					pxCurrentTCB->ulNotifiedValue = 0UL;
 1002648:	10001215 	stw	zero,72(r2)
 100264c:	00000306 	br	100265c <ulTaskNotifyTake+0xa4>
				}
				else
				{
					( pxCurrentTCB->ulNotifiedValue )--;
 1002650:	10c01217 	ldw	r3,72(r2)
 1002654:	18ffffc4 	addi	r3,r3,-1
 1002658:	10c01215 	stw	r3,72(r2)
			else
			{
				mtCOVERAGE_TEST_MARKER();
			}

			pxCurrentTCB->eNotifyState = eNotWaitingNotification;
 100265c:	d0a01e17 	ldw	r2,-32648(gp)
 1002660:	10001315 	stw	zero,76(r2)
		}
		taskEXIT_CRITICAL();
 1002664:	1001be80 	call	1001be8 <vTaskExitCritical>

		return ulReturn;
	}
 1002668:	8005883a 	mov	r2,r16
 100266c:	dfc00217 	ldw	ra,8(sp)
 1002670:	dc400117 	ldw	r17,4(sp)
 1002674:	dc000017 	ldw	r16,0(sp)
 1002678:	dec00304 	addi	sp,sp,12
 100267c:	f800283a 	ret

01002680 <xTaskNotifyWait>:
/*-----------------------------------------------------------*/

#if( configUSE_TASK_NOTIFICATIONS == 1 )

	BaseType_t xTaskNotifyWait( uint32_t ulBitsToClearOnEntry, uint32_t ulBitsToClearOnExit, uint32_t *pulNotificationValue, TickType_t xTicksToWait )
	{
 1002680:	defffb04 	addi	sp,sp,-20
 1002684:	dcc00315 	stw	r19,12(sp)
 1002688:	dc800215 	stw	r18,8(sp)
 100268c:	dc400115 	stw	r17,4(sp)
 1002690:	dc000015 	stw	r16,0(sp)
 1002694:	dfc00415 	stw	ra,16(sp)
 1002698:	2025883a 	mov	r18,r4
 100269c:	2823883a 	mov	r17,r5
 10026a0:	3027883a 	mov	r19,r6
 10026a4:	3821883a 	mov	r16,r7
	TickType_t xTimeToWake;
	BaseType_t xReturn;

		taskENTER_CRITICAL();
 10026a8:	1001bb80 	call	1001bb8 <vTaskEnterCritical>
		{
			/* Only block if a notification is not already pending. */
			if( pxCurrentTCB->eNotifyState != eNotified )
 10026ac:	d0a01e17 	ldw	r2,-32648(gp)
 10026b0:	10c01317 	ldw	r3,76(r2)
 10026b4:	00800084 	movi	r2,2
 10026b8:	18801826 	beq	r3,r2,100271c <xTaskNotifyWait+0x9c>
			{
				/* Clear bits in the task's notification value as bits may get
				set	by the notifying task or interrupt.  This can be used to
				clear the value to zero. */
				pxCurrentTCB->ulNotifiedValue &= ~ulBitsToClearOnEntry;
 10026bc:	d0e01e17 	ldw	r3,-32648(gp)
 10026c0:	0488303a 	nor	r4,zero,r18
 10026c4:	18801217 	ldw	r2,72(r3)
 10026c8:	2088703a 	and	r4,r4,r2
 10026cc:	19001215 	stw	r4,72(r3)

				/* Mark this task as waiting for a notification. */
				pxCurrentTCB->eNotifyState = eWaitingNotification;
 10026d0:	d0a01e17 	ldw	r2,-32648(gp)
 10026d4:	00c00044 	movi	r3,1
 10026d8:	10c01315 	stw	r3,76(r2)

				if( xTicksToWait > ( TickType_t ) 0 )
 10026dc:	80000f26 	beq	r16,zero,100271c <xTaskNotifyWait+0x9c>
				{
					/* The task is going to block.  First it must be removed
					from the	ready list. */
					if( uxListRemove( &( pxCurrentTCB->xGenericListItem ) ) == ( UBaseType_t ) 0 )
 10026e0:	d1201e17 	ldw	r4,-32648(gp)
 10026e4:	21000104 	addi	r4,r4,4
 10026e8:	10005500 	call	1000550 <uxListRemove>
						mtCOVERAGE_TEST_MARKER();
					}

					#if ( INCLUDE_vTaskSuspend == 1 )
					{
						if( xTicksToWait == portMAX_DELAY )
 10026ec:	00bfffc4 	movi	r2,-1
 10026f0:	8080061e 	bne	r16,r2,100270c <xTaskNotifyWait+0x8c>
						{
							/* Add the task to the suspended task list instead
							of a delayed task list to ensure the task is not
							woken by a timing event.  It will block
							indefinitely. */
							vListInsertEnd( &xSuspendedTaskList, &( pxCurrentTCB->xGenericListItem ) );
 10026f4:	d1601e17 	ldw	r5,-32648(gp)
 10026f8:	01004034 	movhi	r4,256
 10026fc:	2114da04 	addi	r4,r4,21352
 1002700:	29400104 	addi	r5,r5,4
 1002704:	10004cc0 	call	10004cc <vListInsertEnd>
 1002708:	00000306 	br	1002718 <xTaskNotifyWait+0x98>
						{
							/* Calculate the time at which the task should be
							woken if no notification events occur.  This may
							overflow but this doesn't matter, the scheduler will
							handle it. */
							xTimeToWake = xTickCount + xTicksToWait;
 100270c:	d1201917 	ldw	r4,-32668(gp)
							prvAddCurrentTaskToDelayedList( xTimeToWake );
 1002710:	8109883a 	add	r4,r16,r4
 1002714:	10014600 	call	1001460 <prvAddCurrentTaskToDelayedList>
					
					/* All ports are written to allow a yield in a critical
					section (some will yield immediately, others wait until the
					critical section exits) - but it is not something that
					application code should ever do. */
					portYIELD_WITHIN_API();
 1002718:	003b683a 	trap	0
			else
			{
				mtCOVERAGE_TEST_MARKER();
			}
		}
		taskEXIT_CRITICAL();
 100271c:	1001be80 	call	1001be8 <vTaskExitCritical>

		taskENTER_CRITICAL();
 1002720:	1001bb80 	call	1001bb8 <vTaskEnterCritical>
		{
			traceTASK_NOTIFY_WAIT();
			
			if( pulNotificationValue != NULL )
 1002724:	98000326 	beq	r19,zero,1002734 <xTaskNotifyWait+0xb4>
			{
				/* Output the current notification value, which may or may not
				have changed. */
				*pulNotificationValue = pxCurrentTCB->ulNotifiedValue;
 1002728:	d0a01e17 	ldw	r2,-32648(gp)
 100272c:	10801217 	ldw	r2,72(r2)
 1002730:	98800015 	stw	r2,0(r19)

			/* If eNotifyValue is set then either the task never entered the
			blocked state (because a notification was already pending) or the
			task unblocked because of a notification.  Otherwise the task
			unblocked because of a timeout. */
			if( pxCurrentTCB->eNotifyState == eWaitingNotification )
 1002734:	d0a01e17 	ldw	r2,-32648(gp)
 1002738:	04000044 	movi	r16,1
 100273c:	10801317 	ldw	r2,76(r2)
 1002740:	14000626 	beq	r2,r16,100275c <xTaskNotifyWait+0xdc>
			}
			else
			{
				/* A notification was already pending or a notification was
				received while the task was waiting. */
				pxCurrentTCB->ulNotifiedValue &= ~ulBitsToClearOnExit;
 1002744:	d0e01e17 	ldw	r3,-32648(gp)
 1002748:	044a303a 	nor	r5,zero,r17
 100274c:	18801217 	ldw	r2,72(r3)
 1002750:	288a703a 	and	r5,r5,r2
 1002754:	19401215 	stw	r5,72(r3)
 1002758:	00000106 	br	1002760 <xTaskNotifyWait+0xe0>
			task unblocked because of a notification.  Otherwise the task
			unblocked because of a timeout. */
			if( pxCurrentTCB->eNotifyState == eWaitingNotification )
			{
				/* A notification was not received. */
				xReturn = pdFALSE;
 100275c:	0021883a 	mov	r16,zero
				received while the task was waiting. */
				pxCurrentTCB->ulNotifiedValue &= ~ulBitsToClearOnExit;
				xReturn = pdTRUE;
			}

			pxCurrentTCB->eNotifyState = eNotWaitingNotification;
 1002760:	d0a01e17 	ldw	r2,-32648(gp)
 1002764:	10001315 	stw	zero,76(r2)
		}
		taskEXIT_CRITICAL();
 1002768:	1001be80 	call	1001be8 <vTaskExitCritical>

		return xReturn;
	}
 100276c:	8005883a 	mov	r2,r16
 1002770:	dfc00417 	ldw	ra,16(sp)
 1002774:	dcc00317 	ldw	r19,12(sp)
 1002778:	dc800217 	ldw	r18,8(sp)
 100277c:	dc400117 	ldw	r17,4(sp)
 1002780:	dc000017 	ldw	r16,0(sp)
 1002784:	dec00504 	addi	sp,sp,20
 1002788:	f800283a 	ret

0100278c <xTaskGenericNotify>:
/*-----------------------------------------------------------*/

#if( configUSE_TASK_NOTIFICATIONS == 1 )

	BaseType_t xTaskGenericNotify( TaskHandle_t xTaskToNotify, uint32_t ulValue, eNotifyAction eAction, uint32_t *pulPreviousNotificationValue )
	{
 100278c:	defffb04 	addi	sp,sp,-20
 1002790:	dcc00315 	stw	r19,12(sp)
 1002794:	3827883a 	mov	r19,r7
 1002798:	dc800215 	stw	r18,8(sp)
 100279c:	dc400115 	stw	r17,4(sp)
 10027a0:	dc000015 	stw	r16,0(sp)
 10027a4:	dfc00415 	stw	ra,16(sp)
 10027a8:	2021883a 	mov	r16,r4
 10027ac:	2825883a 	mov	r18,r5
 10027b0:	3023883a 	mov	r17,r6
	BaseType_t xReturn = pdPASS;

		configASSERT( xTaskToNotify );
		pxTCB = ( TCB_t * ) xTaskToNotify;

		taskENTER_CRITICAL();
 10027b4:	1001bb80 	call	1001bb8 <vTaskEnterCritical>
		{
			if( pulPreviousNotificationValue != NULL )
 10027b8:	98000226 	beq	r19,zero,10027c4 <xTaskGenericNotify+0x38>
			{
				*pulPreviousNotificationValue = pxTCB->ulNotifiedValue;
 10027bc:	80801217 	ldw	r2,72(r16)
 10027c0:	98800015 	stw	r2,0(r19)
			}

			eOriginalNotifyState = pxTCB->eNotifyState;
 10027c4:	80c01317 	ldw	r3,76(r16)

			pxTCB->eNotifyState = eNotified;
 10027c8:	00800084 	movi	r2,2
 10027cc:	80801315 	stw	r2,76(r16)

			switch( eAction )
 10027d0:	88800b26 	beq	r17,r2,1002800 <xTaskGenericNotify+0x74>
 10027d4:	14400536 	bltu	r2,r17,10027ec <xTaskGenericNotify+0x60>
 10027d8:	00800044 	movi	r2,1
 10027dc:	88800e1e 	bne	r17,r2,1002818 <xTaskGenericNotify+0x8c>
			{
				case eSetBits	:
					pxTCB->ulNotifiedValue |= ulValue;
 10027e0:	81401217 	ldw	r5,72(r16)
 10027e4:	9164b03a 	or	r18,r18,r5
 10027e8:	00000a06 	br	1002814 <xTaskGenericNotify+0x88>

			eOriginalNotifyState = pxTCB->eNotifyState;

			pxTCB->eNotifyState = eNotified;

			switch( eAction )
 10027ec:	010000c4 	movi	r4,3
 10027f0:	89000826 	beq	r17,r4,1002814 <xTaskGenericNotify+0x88>
 10027f4:	01000104 	movi	r4,4
 10027f8:	89000526 	beq	r17,r4,1002810 <xTaskGenericNotify+0x84>
 10027fc:	00000606 	br	1002818 <xTaskGenericNotify+0x8c>
				case eSetBits	:
					pxTCB->ulNotifiedValue |= ulValue;
					break;

				case eIncrement	:
					( pxTCB->ulNotifiedValue )++;
 1002800:	80801217 	ldw	r2,72(r16)
 1002804:	10800044 	addi	r2,r2,1
 1002808:	80801215 	stw	r2,72(r16)
					break;
 100280c:	00000206 	br	1002818 <xTaskGenericNotify+0x8c>
				case eSetValueWithOverwrite	:
					pxTCB->ulNotifiedValue = ulValue;
					break;

				case eSetValueWithoutOverwrite :
					if( eOriginalNotifyState != eNotified )
 1002810:	18801826 	beq	r3,r2,1002874 <xTaskGenericNotify+0xe8>
					{
						pxTCB->ulNotifiedValue = ulValue;
 1002814:	84801215 	stw	r18,72(r16)

			traceTASK_NOTIFY();

			/* If the task is in the blocked state specifically to wait for a
			notification then unblock it now. */
			if( eOriginalNotifyState == eWaitingNotification )
 1002818:	00800044 	movi	r2,1
 100281c:	1880131e 	bne	r3,r2,100286c <xTaskGenericNotify+0xe0>
			{
				( void ) uxListRemove( &( pxTCB->xGenericListItem ) );
 1002820:	84400104 	addi	r17,r16,4
 1002824:	8809883a 	mov	r4,r17
 1002828:	10005500 	call	1000550 <uxListRemove>
				prvAddTaskToReadyList( pxTCB );
 100282c:	81000b17 	ldw	r4,44(r16)
 1002830:	d0a01817 	ldw	r2,-32672(gp)
 1002834:	1100012e 	bgeu	r2,r4,100283c <xTaskGenericNotify+0xb0>
 1002838:	d1201815 	stw	r4,-32672(gp)
 100283c:	01400504 	movi	r5,20
 1002840:	1002a740 	call	1002a74 <__mulsi3>
 1002844:	01004034 	movhi	r4,256
 1002848:	2114f304 	addi	r4,r4,21452
 100284c:	2089883a 	add	r4,r4,r2
 1002850:	880b883a 	mov	r5,r17
 1002854:	10004cc0 	call	10004cc <vListInsertEnd>
					earliest possible time. */
					prvResetNextTaskUnblockTime();
				}
				#endif

				if( pxTCB->uxPriority > pxCurrentTCB->uxPriority )
 1002858:	d0e01e17 	ldw	r3,-32648(gp)
 100285c:	80800b17 	ldw	r2,44(r16)
 1002860:	18c00b17 	ldw	r3,44(r3)
 1002864:	1880012e 	bgeu	r3,r2,100286c <xTaskGenericNotify+0xe0>
				{
					/* The notified task has a priority above the currently
					executing task so a yield is required. */
					taskYIELD_IF_USING_PREEMPTION();
 1002868:	003b683a 	trap	0
 100286c:	04000044 	movi	r16,1
 1002870:	00000106 	br	1002878 <xTaskGenericNotify+0xec>
						pxTCB->ulNotifiedValue = ulValue;
					}
					else
					{
						/* The value could not be written to the task. */
						xReturn = pdFAIL;
 1002874:	0021883a 	mov	r16,zero
			else
			{
				mtCOVERAGE_TEST_MARKER();
			}
		}
		taskEXIT_CRITICAL();
 1002878:	1001be80 	call	1001be8 <vTaskExitCritical>

		return xReturn;
	}
 100287c:	8005883a 	mov	r2,r16
 1002880:	dfc00417 	ldw	ra,16(sp)
 1002884:	dcc00317 	ldw	r19,12(sp)
 1002888:	dc800217 	ldw	r18,8(sp)
 100288c:	dc400117 	ldw	r17,4(sp)
 1002890:	dc000017 	ldw	r16,0(sp)
 1002894:	dec00504 	addi	sp,sp,20
 1002898:	f800283a 	ret

0100289c <xTaskGenericNotifyFromISR>:
/*-----------------------------------------------------------*/

#if( configUSE_TASK_NOTIFICATIONS == 1 )

	BaseType_t xTaskGenericNotifyFromISR( TaskHandle_t xTaskToNotify, uint32_t ulValue, eNotifyAction eAction, uint32_t *pulPreviousNotificationValue, BaseType_t *pxHigherPriorityTaskWoken )
	{
 100289c:	defffc04 	addi	sp,sp,-16
 10028a0:	dc400115 	stw	r17,4(sp)
 10028a4:	dfc00315 	stw	ra,12(sp)
 10028a8:	dc800215 	stw	r18,8(sp)
 10028ac:	dc000015 	stw	r16,0(sp)
 10028b0:	dc400417 	ldw	r17,16(sp)

		pxTCB = ( TCB_t * ) xTaskToNotify;

		uxSavedInterruptStatus = portSET_INTERRUPT_MASK_FROM_ISR();
		{
			if( pulPreviousNotificationValue != NULL )
 10028b4:	38000226 	beq	r7,zero,10028c0 <xTaskGenericNotifyFromISR+0x24>
			{
				*pulPreviousNotificationValue = pxTCB->ulNotifiedValue;
 10028b8:	20801217 	ldw	r2,72(r4)
 10028bc:	38800015 	stw	r2,0(r7)
			}

			eOriginalNotifyState = pxTCB->eNotifyState;
 10028c0:	20c01317 	ldw	r3,76(r4)
			pxTCB->eNotifyState = eNotified;
 10028c4:	00800084 	movi	r2,2
 10028c8:	20801315 	stw	r2,76(r4)

			switch( eAction )
 10028cc:	30800b26 	beq	r6,r2,10028fc <xTaskGenericNotifyFromISR+0x60>
 10028d0:	11800536 	bltu	r2,r6,10028e8 <xTaskGenericNotifyFromISR+0x4c>
 10028d4:	00800044 	movi	r2,1
 10028d8:	30800e1e 	bne	r6,r2,1002914 <xTaskGenericNotifyFromISR+0x78>
			{
				case eSetBits	:
					pxTCB->ulNotifiedValue |= ulValue;
 10028dc:	20801217 	ldw	r2,72(r4)
 10028e0:	288ab03a 	or	r5,r5,r2
 10028e4:	00000a06 	br	1002910 <xTaskGenericNotifyFromISR+0x74>
			}

			eOriginalNotifyState = pxTCB->eNotifyState;
			pxTCB->eNotifyState = eNotified;

			switch( eAction )
 10028e8:	01c000c4 	movi	r7,3
 10028ec:	31c00826 	beq	r6,r7,1002910 <xTaskGenericNotifyFromISR+0x74>
 10028f0:	01c00104 	movi	r7,4
 10028f4:	31c00526 	beq	r6,r7,100290c <xTaskGenericNotifyFromISR+0x70>
 10028f8:	00000606 	br	1002914 <xTaskGenericNotifyFromISR+0x78>
				case eSetBits	:
					pxTCB->ulNotifiedValue |= ulValue;
					break;

				case eIncrement	:
					( pxTCB->ulNotifiedValue )++;
 10028fc:	20801217 	ldw	r2,72(r4)
 1002900:	10800044 	addi	r2,r2,1
 1002904:	20801215 	stw	r2,72(r4)
					break;
 1002908:	00000206 	br	1002914 <xTaskGenericNotifyFromISR+0x78>
				case eSetValueWithOverwrite	:
					pxTCB->ulNotifiedValue = ulValue;
					break;

				case eSetValueWithoutOverwrite :
					if( eOriginalNotifyState != eNotified )
 100290c:	18802226 	beq	r3,r2,1002998 <xTaskGenericNotifyFromISR+0xfc>
					{
						pxTCB->ulNotifiedValue = ulValue;
 1002910:	21401215 	stw	r5,72(r4)

			traceTASK_NOTIFY_FROM_ISR();
			
			/* If the task is in the blocked state specifically to wait for a
			notification then unblock it now. */
			if( eOriginalNotifyState == eWaitingNotification )
 1002914:	00800044 	movi	r2,1
 1002918:	18800226 	beq	r3,r2,1002924 <xTaskGenericNotifyFromISR+0x88>
/*-----------------------------------------------------------*/

#if( configUSE_TASK_NOTIFICATIONS == 1 )

	BaseType_t xTaskGenericNotifyFromISR( TaskHandle_t xTaskToNotify, uint32_t ulValue, eNotifyAction eAction, uint32_t *pulPreviousNotificationValue, BaseType_t *pxHigherPriorityTaskWoken )
	{
 100291c:	00800044 	movi	r2,1
 1002920:	00001e06 	br	100299c <xTaskGenericNotifyFromISR+0x100>
			if( eOriginalNotifyState == eWaitingNotification )
			{
				/* The task should not have been on an event list. */
				configASSERT( listLIST_ITEM_CONTAINER( &( pxTCB->xEventListItem ) ) == NULL );

				if( uxSchedulerSuspended == ( UBaseType_t ) pdFALSE )
 1002924:	d0a01117 	ldw	r2,-32700(gp)
 1002928:	2021883a 	mov	r16,r4
 100292c:	10000e1e 	bne	r2,zero,1002968 <xTaskGenericNotifyFromISR+0xcc>
				{
					( void ) uxListRemove( &( pxTCB->xGenericListItem ) );
 1002930:	24800104 	addi	r18,r4,4
 1002934:	9009883a 	mov	r4,r18
 1002938:	10005500 	call	1000550 <uxListRemove>
					prvAddTaskToReadyList( pxTCB );
 100293c:	81000b17 	ldw	r4,44(r16)
 1002940:	d0a01817 	ldw	r2,-32672(gp)
 1002944:	1100012e 	bgeu	r2,r4,100294c <xTaskGenericNotifyFromISR+0xb0>
 1002948:	d1201815 	stw	r4,-32672(gp)
 100294c:	01400504 	movi	r5,20
 1002950:	1002a740 	call	1002a74 <__mulsi3>
 1002954:	01004034 	movhi	r4,256
 1002958:	2114f304 	addi	r4,r4,21452
 100295c:	2089883a 	add	r4,r4,r2
 1002960:	900b883a 	mov	r5,r18
 1002964:	00000306 	br	1002974 <xTaskGenericNotifyFromISR+0xd8>
				}
				else
				{
					/* The delayed and ready lists cannot be accessed, so hold
					this task pending until the scheduler is resumed. */
					vListInsertEnd( &( xPendingReadyList ), &( pxTCB->xEventListItem ) );
 1002968:	01004034 	movhi	r4,256
 100296c:	2114e404 	addi	r4,r4,21392
 1002970:	81400604 	addi	r5,r16,24
 1002974:	10004cc0 	call	10004cc <vListInsertEnd>
				}

				if( pxTCB->uxPriority > pxCurrentTCB->uxPriority )
 1002978:	d0e01e17 	ldw	r3,-32648(gp)
 100297c:	80800b17 	ldw	r2,44(r16)
 1002980:	18c00b17 	ldw	r3,44(r3)
 1002984:	18bfe52e 	bgeu	r3,r2,100291c <xTaskGenericNotifyFromISR+0x80>
				{
					/* The notified task has a priority above the currently
					executing task so a yield is required. */
					if( pxHigherPriorityTaskWoken != NULL )
 1002988:	883fe426 	beq	r17,zero,100291c <xTaskGenericNotifyFromISR+0x80>
					{
						*pxHigherPriorityTaskWoken = pdTRUE;
 100298c:	00800044 	movi	r2,1
 1002990:	88800015 	stw	r2,0(r17)
 1002994:	00000106 	br	100299c <xTaskGenericNotifyFromISR+0x100>
						pxTCB->ulNotifiedValue = ulValue;
					}
					else
					{
						/* The value could not be written to the task. */
						xReturn = pdFAIL;
 1002998:	0005883a 	mov	r2,zero
			}
		}
		portCLEAR_INTERRUPT_MASK_FROM_ISR( uxSavedInterruptStatus );

		return xReturn;
	}
 100299c:	dfc00317 	ldw	ra,12(sp)
 10029a0:	dc800217 	ldw	r18,8(sp)
 10029a4:	dc400117 	ldw	r17,4(sp)
 10029a8:	dc000017 	ldw	r16,0(sp)
 10029ac:	dec00404 	addi	sp,sp,16
 10029b0:	f800283a 	ret

010029b4 <vTaskNotifyGiveFromISR>:
		pxTCB = ( TCB_t * ) xTaskToNotify;

		uxSavedInterruptStatus = portSET_INTERRUPT_MASK_FROM_ISR();
		{
			eOriginalNotifyState = pxTCB->eNotifyState;
			pxTCB->eNotifyState = eNotified;
 10029b4:	00800084 	movi	r2,2

		pxTCB = ( TCB_t * ) xTaskToNotify;

		uxSavedInterruptStatus = portSET_INTERRUPT_MASK_FROM_ISR();
		{
			eOriginalNotifyState = pxTCB->eNotifyState;
 10029b8:	20c01317 	ldw	r3,76(r4)
			pxTCB->eNotifyState = eNotified;
 10029bc:	20801315 	stw	r2,76(r4)

			/* 'Giving' is equivalent to incrementing a count in a counting
			semaphore. */
			( pxTCB->ulNotifiedValue )++;
 10029c0:	20801217 	ldw	r2,72(r4)
 10029c4:	10800044 	addi	r2,r2,1
 10029c8:	20801215 	stw	r2,72(r4)
			
			traceTASK_NOTIFY_GIVE_FROM_ISR();

			/* If the task is in the blocked state specifically to wait for a
			notification then unblock it now. */
			if( eOriginalNotifyState == eWaitingNotification )
 10029cc:	00800044 	movi	r2,1
 10029d0:	1880271e 	bne	r3,r2,1002a70 <vTaskNotifyGiveFromISR+0xbc>
			{
				/* The task should not have been on an event list. */
				configASSERT( listLIST_ITEM_CONTAINER( &( pxTCB->xEventListItem ) ) == NULL );

				if( uxSchedulerSuspended == ( UBaseType_t ) pdFALSE )
 10029d4:	d0a01117 	ldw	r2,-32700(gp)
/*-----------------------------------------------------------*/

#if( configUSE_TASK_NOTIFICATIONS == 1 )

	void vTaskNotifyGiveFromISR( TaskHandle_t xTaskToNotify, BaseType_t *pxHigherPriorityTaskWoken )
	{
 10029d8:	defffc04 	addi	sp,sp,-16
 10029dc:	dc400115 	stw	r17,4(sp)
 10029e0:	dc000015 	stw	r16,0(sp)
 10029e4:	dfc00315 	stw	ra,12(sp)
 10029e8:	dc800215 	stw	r18,8(sp)
 10029ec:	2823883a 	mov	r17,r5
 10029f0:	2021883a 	mov	r16,r4
			if( eOriginalNotifyState == eWaitingNotification )
			{
				/* The task should not have been on an event list. */
				configASSERT( listLIST_ITEM_CONTAINER( &( pxTCB->xEventListItem ) ) == NULL );

				if( uxSchedulerSuspended == ( UBaseType_t ) pdFALSE )
 10029f4:	10000e1e 	bne	r2,zero,1002a30 <vTaskNotifyGiveFromISR+0x7c>
				{
					( void ) uxListRemove( &( pxTCB->xGenericListItem ) );
 10029f8:	24800104 	addi	r18,r4,4
 10029fc:	9009883a 	mov	r4,r18
 1002a00:	10005500 	call	1000550 <uxListRemove>
					prvAddTaskToReadyList( pxTCB );
 1002a04:	81000b17 	ldw	r4,44(r16)
 1002a08:	d0a01817 	ldw	r2,-32672(gp)
 1002a0c:	1100012e 	bgeu	r2,r4,1002a14 <vTaskNotifyGiveFromISR+0x60>
 1002a10:	d1201815 	stw	r4,-32672(gp)
 1002a14:	01400504 	movi	r5,20
 1002a18:	1002a740 	call	1002a74 <__mulsi3>
 1002a1c:	01004034 	movhi	r4,256
 1002a20:	2114f304 	addi	r4,r4,21452
 1002a24:	2089883a 	add	r4,r4,r2
 1002a28:	900b883a 	mov	r5,r18
 1002a2c:	00000306 	br	1002a3c <vTaskNotifyGiveFromISR+0x88>
				}
				else
				{
					/* The delayed and ready lists cannot be accessed, so hold
					this task pending until the scheduler is resumed. */
					vListInsertEnd( &( xPendingReadyList ), &( pxTCB->xEventListItem ) );
 1002a30:	01004034 	movhi	r4,256
 1002a34:	2114e404 	addi	r4,r4,21392
 1002a38:	81400604 	addi	r5,r16,24
 1002a3c:	10004cc0 	call	10004cc <vListInsertEnd>
				}

				if( pxTCB->uxPriority > pxCurrentTCB->uxPriority )
 1002a40:	d0e01e17 	ldw	r3,-32648(gp)
 1002a44:	80800b17 	ldw	r2,44(r16)
 1002a48:	18c00b17 	ldw	r3,44(r3)
 1002a4c:	1880032e 	bgeu	r3,r2,1002a5c <vTaskNotifyGiveFromISR+0xa8>
				{
					/* The notified task has a priority above the currently
					executing task so a yield is required. */
					if( pxHigherPriorityTaskWoken != NULL )
 1002a50:	88000226 	beq	r17,zero,1002a5c <vTaskNotifyGiveFromISR+0xa8>
					{
						*pxHigherPriorityTaskWoken = pdTRUE;
 1002a54:	00800044 	movi	r2,1
 1002a58:	88800015 	stw	r2,0(r17)
					mtCOVERAGE_TEST_MARKER();
				}
			}
		}
		portCLEAR_INTERRUPT_MASK_FROM_ISR( uxSavedInterruptStatus );
	}
 1002a5c:	dfc00317 	ldw	ra,12(sp)
 1002a60:	dc800217 	ldw	r18,8(sp)
 1002a64:	dc400117 	ldw	r17,4(sp)
 1002a68:	dc000017 	ldw	r16,0(sp)
 1002a6c:	dec00404 	addi	sp,sp,16
 1002a70:	f800283a 	ret

01002a74 <__mulsi3>:
 1002a74:	0005883a 	mov	r2,zero
 1002a78:	20000726 	beq	r4,zero,1002a98 <__mulsi3+0x24>
 1002a7c:	20c0004c 	andi	r3,r4,1
 1002a80:	2008d07a 	srli	r4,r4,1
 1002a84:	18000126 	beq	r3,zero,1002a8c <__mulsi3+0x18>
 1002a88:	1145883a 	add	r2,r2,r5
 1002a8c:	294b883a 	add	r5,r5,r5
 1002a90:	203ffa1e 	bne	r4,zero,1002a7c <__mulsi3+0x8>
 1002a94:	f800283a 	ret
 1002a98:	f800283a 	ret

01002a9c <memcpy>:
 1002a9c:	2005883a 	mov	r2,r4
 1002aa0:	0007883a 	mov	r3,zero
 1002aa4:	19800626 	beq	r3,r6,1002ac0 <memcpy+0x24>
 1002aa8:	28c9883a 	add	r4,r5,r3
 1002aac:	21c00003 	ldbu	r7,0(r4)
 1002ab0:	10c9883a 	add	r4,r2,r3
 1002ab4:	18c00044 	addi	r3,r3,1
 1002ab8:	21c00005 	stb	r7,0(r4)
 1002abc:	003ff906 	br	1002aa4 <memcpy+0x8>
 1002ac0:	f800283a 	ret

01002ac4 <memset>:
 1002ac4:	2005883a 	mov	r2,r4
 1002ac8:	2007883a 	mov	r3,r4
 1002acc:	218d883a 	add	r6,r4,r6
 1002ad0:	19800326 	beq	r3,r6,1002ae0 <memset+0x1c>
 1002ad4:	19400005 	stb	r5,0(r3)
 1002ad8:	18c00044 	addi	r3,r3,1
 1002adc:	003ffc06 	br	1002ad0 <memset+0xc>
 1002ae0:	f800283a 	ret

01002ae4 <alt_load>:
 * there is no bootloader, so this application is responsible for loading to
 * RAM any sections that are required.
 */  

void alt_load (void)
{
 1002ae4:	deffff04 	addi	sp,sp,-4
 1002ae8:	01004034 	movhi	r4,256
 1002aec:	01404034 	movhi	r5,256
 1002af0:	dfc00015 	stw	ra,0(sp)
 1002af4:	210ccc04 	addi	r4,r4,13104
 1002af8:	294cd504 	addi	r5,r5,13140

static void ALT_INLINE alt_load_section (alt_u32* from, 
                                         alt_u32* to, 
                                         alt_u32* end)
{
  if (to != from)
 1002afc:	2140061e 	bne	r4,r5,1002b18 <alt_load+0x34>
 1002b00:	01004034 	movhi	r4,256
 1002b04:	01404034 	movhi	r5,256
 1002b08:	21000804 	addi	r4,r4,32
 1002b0c:	29400804 	addi	r5,r5,32
 1002b10:	2140141e 	bne	r4,r5,1002b64 <alt_load+0x80>
 1002b14:	00000d06 	br	1002b4c <alt_load+0x68>
 1002b18:	00c04034 	movhi	r3,256
 1002b1c:	18ccd504 	addi	r3,r3,13140
 1002b20:	00bfff04 	movi	r2,-4
 1002b24:	1907c83a 	sub	r3,r3,r4
 1002b28:	1886703a 	and	r3,r3,r2
 1002b2c:	0005883a 	mov	r2,zero
  {
    while( to != end )
 1002b30:	10fff326 	beq	r2,r3,1002b00 <alt_load+0x1c>
 1002b34:	114f883a 	add	r7,r2,r5
    {
      *to++ = *from++;
 1002b38:	39c00017 	ldw	r7,0(r7)
 1002b3c:	110d883a 	add	r6,r2,r4
 1002b40:	10800104 	addi	r2,r2,4
 1002b44:	31c00015 	stw	r7,0(r6)
 1002b48:	003ff906 	br	1002b30 <alt_load+0x4c>
 1002b4c:	01004034 	movhi	r4,256
 1002b50:	01404034 	movhi	r5,256
 1002b54:	210c9704 	addi	r4,r4,12892
 1002b58:	294c9704 	addi	r5,r5,12892

static void ALT_INLINE alt_load_section (alt_u32* from, 
                                         alt_u32* to, 
                                         alt_u32* end)
{
  if (to != from)
 1002b5c:	2140121e 	bne	r4,r5,1002ba8 <alt_load+0xc4>
 1002b60:	00000d06 	br	1002b98 <alt_load+0xb4>
 1002b64:	00c04034 	movhi	r3,256
 1002b68:	18c07704 	addi	r3,r3,476
 1002b6c:	00bfff04 	movi	r2,-4
 1002b70:	1907c83a 	sub	r3,r3,r4
 1002b74:	1886703a 	and	r3,r3,r2
 1002b78:	0005883a 	mov	r2,zero
  {
    while( to != end )
 1002b7c:	10fff326 	beq	r2,r3,1002b4c <alt_load+0x68>
 1002b80:	114f883a 	add	r7,r2,r5
    {
      *to++ = *from++;
 1002b84:	39c00017 	ldw	r7,0(r7)
 1002b88:	110d883a 	add	r6,r2,r4
 1002b8c:	10800104 	addi	r2,r2,4
 1002b90:	31c00015 	stw	r7,0(r6)
 1002b94:	003ff906 	br	1002b7c <alt_load+0x98>
  
  /*
   * Now ensure that the caches are in synch.
   */
  
  alt_dcache_flush_all();
 1002b98:	1002fe80 	call	1002fe8 <alt_dcache_flush_all>
  alt_icache_flush_all();
}
 1002b9c:	dfc00017 	ldw	ra,0(sp)
 1002ba0:	dec00104 	addi	sp,sp,4
  /*
   * Now ensure that the caches are in synch.
   */
  
  alt_dcache_flush_all();
  alt_icache_flush_all();
 1002ba4:	10030d81 	jmpi	10030d8 <alt_icache_flush_all>
 1002ba8:	00c04034 	movhi	r3,256
 1002bac:	18cccc04 	addi	r3,r3,13104
 1002bb0:	00bfff04 	movi	r2,-4
 1002bb4:	1907c83a 	sub	r3,r3,r4
 1002bb8:	1886703a 	and	r3,r3,r2

static void ALT_INLINE alt_load_section (alt_u32* from, 
                                         alt_u32* to, 
                                         alt_u32* end)
{
  if (to != from)
 1002bbc:	0005883a 	mov	r2,zero
  {
    while( to != end )
 1002bc0:	10fff526 	beq	r2,r3,1002b98 <alt_load+0xb4>
 1002bc4:	114f883a 	add	r7,r2,r5
    {
      *to++ = *from++;
 1002bc8:	39c00017 	ldw	r7,0(r7)
 1002bcc:	110d883a 	add	r6,r2,r4
 1002bd0:	10800104 	addi	r2,r2,4
 1002bd4:	31c00015 	stw	r7,0(r6)
 1002bd8:	003ff906 	br	1002bc0 <alt_load+0xdc>

01002bdc <alt_main>:
 * devices/filesystems/components in the system; and call the entry point for
 * the users application, i.e. main().
 */

void alt_main (void)
{
 1002bdc:	deffff04 	addi	sp,sp,-4
#endif

  /* ALT LOG - please see HAL/sys/alt_log_printf.h for details */
  ALT_LOG_PRINT_BOOT("[alt_main.c] Entering alt_main, calling alt_irq_init.\r\n");
  /* Initialize the interrupt controller. */
  alt_irq_init (NULL);
 1002be0:	0009883a 	mov	r4,zero
 * devices/filesystems/components in the system; and call the entry point for
 * the users application, i.e. main().
 */

void alt_main (void)
{
 1002be4:	dfc00015 	stw	ra,0(sp)
#endif

  /* ALT LOG - please see HAL/sys/alt_log_printf.h for details */
  ALT_LOG_PRINT_BOOT("[alt_main.c] Entering alt_main, calling alt_irq_init.\r\n");
  /* Initialize the interrupt controller. */
  alt_irq_init (NULL);
 1002be8:	1002df80 	call	1002df8 <alt_irq_init>
  ALT_LOG_PRINT_BOOT("[alt_main.c] Done OS Init, calling alt_sem_create.\r\n");
  ALT_SEM_CREATE (&alt_fd_list_lock, 1);

  /* Initialize the device drivers/software components. */
  ALT_LOG_PRINT_BOOT("[alt_main.c] Calling alt_sys_init.\r\n");
  alt_sys_init();
 1002bec:	1002e180 	call	1002e18 <alt_sys_init>
   */

  ALT_LOG_PRINT_BOOT("[alt_main.c] Calling main.\r\n");

#ifdef ALT_NO_EXIT
  main (alt_argc, alt_argv, alt_envp);
 1002bf0:	d1202217 	ldw	r4,-32632(gp)
 1002bf4:	d1602117 	ldw	r5,-32636(gp)
 1002bf8:	d1a02017 	ldw	r6,-32640(gp)
  close(STDOUT_FILENO);
  exit (result);
#endif

  ALT_LOG_PRINT_BOOT("[alt_main.c] After main - we should not be here?.\r\n");
}
 1002bfc:	dfc00017 	ldw	ra,0(sp)
 1002c00:	dec00104 	addi	sp,sp,4
   */

  ALT_LOG_PRINT_BOOT("[alt_main.c] Calling main.\r\n");

#ifdef ALT_NO_EXIT
  main (alt_argc, alt_argv, alt_envp);
 1002c04:	10013681 	jmpi	1001368 <main>

01002c08 <alt_printf>:
/* 
 * ALT printf function 
 */
void 
alt_printf(const char* fmt, ... )
{
 1002c08:	defff204 	addi	sp,sp,-56
 1002c0c:	dfc00a15 	stw	ra,40(sp)
 1002c10:	df000915 	stw	fp,36(sp)
 1002c14:	ddc00815 	stw	r23,32(sp)
 1002c18:	dd800715 	stw	r22,28(sp)
 1002c1c:	dd400615 	stw	r21,24(sp)
 1002c20:	dd000515 	stw	r20,20(sp)
 1002c24:	dcc00415 	stw	r19,16(sp)
 1002c28:	dc800315 	stw	r18,12(sp)
 1002c2c:	dc400215 	stw	r17,8(sp)
 1002c30:	dc000115 	stw	r16,4(sp)
 1002c34:	d9400b15 	stw	r5,44(sp)
 1002c38:	d9800c15 	stw	r6,48(sp)
 1002c3c:	d9c00d15 	stw	r7,52(sp)
    w = fmt;
    while ((c = *w++) != 0)
    {
        /* If not a format escape character, just print  */
        /* character.  Otherwise, process format string. */
        if (c != '%')
 1002c40:	04000944 	movi	r16,37
/* 
 * ALT printf function 
 */
void 
alt_printf(const char* fmt, ... )
{
 1002c44:	2005883a 	mov	r2,r4
	va_list args;
	va_start(args, fmt);
 1002c48:	dd400b04 	addi	r21,sp,44
                if (c == '%')
                {
                    /* Process "%" escape sequence. */
                    alt_putchar(c);
                } 
                else if (c == 'c')
 1002c4c:	048018c4 	movi	r18,99
                {
                    int v = va_arg(args, int);
                    alt_putchar(v);
                }
                else if (c == 'x')
 1002c50:	04c01e04 	movi	r19,120
                        else
                            c = 'a' + digit - 10;
                        alt_putchar(c);
                    }
                }
                else if (c == 's')
 1002c54:	05001cc4 	movi	r20,115
    const char *w;
    char c;

    /* Process format string. */
    w = fmt;
    while ((c = *w++) != 0)
 1002c58:	11000007 	ldb	r4,0(r2)
 1002c5c:	20003926 	beq	r4,zero,1002d44 <alt_printf+0x13c>
    {
        /* If not a format escape character, just print  */
        /* character.  Otherwise, process format string. */
        if (c != '%')
 1002c60:	24000226 	beq	r4,r16,1002c6c <alt_printf+0x64>
    const char *w;
    char c;

    /* Process format string. */
    w = fmt;
    while ((c = *w++) != 0)
 1002c64:	14400044 	addi	r17,r2,1
 1002c68:	00001106 	br	1002cb0 <alt_printf+0xa8>
        }
        else
        {
            /* Get format character.  If none     */
            /* available, processing is complete. */
            if ((c = *w++) != 0)
 1002c6c:	14400084 	addi	r17,r2,2
 1002c70:	10800047 	ldb	r2,1(r2)
 1002c74:	10003326 	beq	r2,zero,1002d44 <alt_printf+0x13c>
            {
                if (c == '%')
 1002c78:	1400021e 	bne	r2,r16,1002c84 <alt_printf+0x7c>
                {
                    /* Process "%" escape sequence. */
                    alt_putchar(c);
 1002c7c:	8009883a 	mov	r4,r16
 1002c80:	00000b06 	br	1002cb0 <alt_printf+0xa8>
                } 
                else if (c == 'c')
 1002c84:	1480051e 	bne	r2,r18,1002c9c <alt_printf+0x94>
                {
                    int v = va_arg(args, int);
                    alt_putchar(v);
 1002c88:	a9000017 	ldw	r4,0(r21)
                    /* Process "%" escape sequence. */
                    alt_putchar(c);
                } 
                else if (c == 'c')
                {
                    int v = va_arg(args, int);
 1002c8c:	ad800104 	addi	r22,r21,4
 1002c90:	b02b883a 	mov	r21,r22
                    alt_putchar(v);
 1002c94:	1002d740 	call	1002d74 <alt_putchar>
 1002c98:	00002806 	br	1002d3c <alt_printf+0x134>
                }
                else if (c == 'x')
 1002c9c:	14c01f1e 	bne	r2,r19,1002d1c <alt_printf+0x114>
                {
                    /* Process hexadecimal number format. */
                    unsigned long v = va_arg(args, unsigned long);
 1002ca0:	adc00017 	ldw	r23,0(r21)
 1002ca4:	ad400104 	addi	r21,r21,4
                    unsigned long digit;
                    int digit_shift;

                    /* If the number value is zero, just print and continue. */
                    if (v == 0)
 1002ca8:	b800031e 	bne	r23,zero,1002cb8 <alt_printf+0xb0>
                    {
                        alt_putchar('0');
 1002cac:	01000c04 	movi	r4,48
 1002cb0:	1002d740 	call	1002d74 <alt_putchar>
                        continue;
 1002cb4:	00002106 	br	1002d3c <alt_printf+0x134>
 1002cb8:	05800704 	movi	r22,28
                    }

                    /* Find first non-zero digit. */
                    digit_shift = 28;
                    while (!(v & (0xF << digit_shift)))
 1002cbc:	00c003c4 	movi	r3,15
 1002cc0:	1d84983a 	sll	r2,r3,r22
 1002cc4:	15c4703a 	and	r2,r2,r23
 1002cc8:	1000021e 	bne	r2,zero,1002cd4 <alt_printf+0xcc>
                        digit_shift -= 4;
 1002ccc:	b5bfff04 	addi	r22,r22,-4
 1002cd0:	003ffb06 	br	1002cc0 <alt_printf+0xb8>

                    /* Print digits. */
                    for (; digit_shift >= 0; digit_shift -= 4)
                    {
                        digit = (v & (0xF << digit_shift)) >> digit_shift;
 1002cd4:	070003c4 	movi	fp,15
                        if (digit <= 9)
 1002cd8:	00c00244 	movi	r3,9
                    digit_shift = 28;
                    while (!(v & (0xF << digit_shift)))
                        digit_shift -= 4;

                    /* Print digits. */
                    for (; digit_shift >= 0; digit_shift -= 4)
 1002cdc:	b0001716 	blt	r22,zero,1002d3c <alt_printf+0x134>
                    {
                        digit = (v & (0xF << digit_shift)) >> digit_shift;
 1002ce0:	e584983a 	sll	r2,fp,r22
 1002ce4:	15c4703a 	and	r2,r2,r23
 1002ce8:	1584d83a 	srl	r2,r2,r22
                        if (digit <= 9)
 1002cec:	18800236 	bltu	r3,r2,1002cf8 <alt_printf+0xf0>
                            c = '0' + digit;
 1002cf0:	11000c04 	addi	r4,r2,48
 1002cf4:	00000106 	br	1002cfc <alt_printf+0xf4>
                        else
                            c = 'a' + digit - 10;
 1002cf8:	110015c4 	addi	r4,r2,87
                        alt_putchar(c);
 1002cfc:	21003fcc 	andi	r4,r4,255
 1002d00:	2100201c 	xori	r4,r4,128
 1002d04:	213fe004 	addi	r4,r4,-128
 1002d08:	d8c00015 	stw	r3,0(sp)
 1002d0c:	1002d740 	call	1002d74 <alt_putchar>
                    digit_shift = 28;
                    while (!(v & (0xF << digit_shift)))
                        digit_shift -= 4;

                    /* Print digits. */
                    for (; digit_shift >= 0; digit_shift -= 4)
 1002d10:	b5bfff04 	addi	r22,r22,-4
 1002d14:	d8c00017 	ldw	r3,0(sp)
 1002d18:	003ff006 	br	1002cdc <alt_printf+0xd4>
                        else
                            c = 'a' + digit - 10;
                        alt_putchar(c);
                    }
                }
                else if (c == 's')
 1002d1c:	1500071e 	bne	r2,r20,1002d3c <alt_printf+0x134>
                {
                    /* Process string format. */
                    char *s = va_arg(args, char *);
 1002d20:	ad800017 	ldw	r22,0(r21)
 1002d24:	ad400104 	addi	r21,r21,4

                    while(*s)
 1002d28:	b1000007 	ldb	r4,0(r22)
 1002d2c:	20000326 	beq	r4,zero,1002d3c <alt_printf+0x134>
                      alt_putchar(*s++);
 1002d30:	b5800044 	addi	r22,r22,1
 1002d34:	1002d740 	call	1002d74 <alt_putchar>
 1002d38:	003ffb06 	br	1002d28 <alt_printf+0x120>
                    /* Process "%" escape sequence. */
                    alt_putchar(c);
                } 
                else if (c == 'c')
                {
                    int v = va_arg(args, int);
 1002d3c:	8805883a 	mov	r2,r17
 1002d40:	003fc506 	br	1002c58 <alt_printf+0x50>
            {
                break;
            }
        }
    }
}
 1002d44:	dfc00a17 	ldw	ra,40(sp)
 1002d48:	df000917 	ldw	fp,36(sp)
 1002d4c:	ddc00817 	ldw	r23,32(sp)
 1002d50:	dd800717 	ldw	r22,28(sp)
 1002d54:	dd400617 	ldw	r21,24(sp)
 1002d58:	dd000517 	ldw	r20,20(sp)
 1002d5c:	dcc00417 	ldw	r19,16(sp)
 1002d60:	dc800317 	ldw	r18,12(sp)
 1002d64:	dc400217 	ldw	r17,8(sp)
 1002d68:	dc000117 	ldw	r16,4(sp)
 1002d6c:	dec00e04 	addi	sp,sp,56
 1002d70:	f800283a 	ret

01002d74 <alt_putchar>:
 * Uses the ALT_DRIVER_WRITE() macro to call directly to driver if available.
 * Otherwise, uses newlib provided putchar() routine.
 */
int 
alt_putchar(int c)
{
 1002d74:	defffd04 	addi	sp,sp,-12
 1002d78:	dc000115 	stw	r16,4(sp)
#ifdef ALT_USE_DIRECT_DRIVERS
    ALT_DRIVER_WRITE_EXTERNS(ALT_STDOUT_DEV);
    char        c1 = (char)(c & 0xff);
 1002d7c:	d9000005 	stb	r4,0(sp)
 * Uses the ALT_DRIVER_WRITE() macro to call directly to driver if available.
 * Otherwise, uses newlib provided putchar() routine.
 */
int 
alt_putchar(int c)
{
 1002d80:	2021883a 	mov	r16,r4
#ifdef ALT_USE_DIRECT_DRIVERS
    ALT_DRIVER_WRITE_EXTERNS(ALT_STDOUT_DEV);
    char        c1 = (char)(c & 0xff);

    if (ALT_DRIVER_WRITE(ALT_STDOUT_DEV, &c1, 1, 0) == -1) {
 1002d84:	01004034 	movhi	r4,256
 1002d88:	210cd104 	addi	r4,r4,13124
 1002d8c:	d80b883a 	mov	r5,sp
 1002d90:	01800044 	movi	r6,1
 1002d94:	000f883a 	mov	r7,zero
 * Uses the ALT_DRIVER_WRITE() macro to call directly to driver if available.
 * Otherwise, uses newlib provided putchar() routine.
 */
int 
alt_putchar(int c)
{
 1002d98:	dfc00215 	stw	ra,8(sp)
#ifdef ALT_USE_DIRECT_DRIVERS
    ALT_DRIVER_WRITE_EXTERNS(ALT_STDOUT_DEV);
    char        c1 = (char)(c & 0xff);

    if (ALT_DRIVER_WRITE(ALT_STDOUT_DEV, &c1, 1, 0) == -1) {
 1002d9c:	1002e2c0 	call	1002e2c <altera_avalon_jtag_uart_write>
 1002da0:	00ffffc4 	movi	r3,-1
 1002da4:	10c00126 	beq	r2,r3,1002dac <alt_putchar+0x38>
        return -1;
    }
    return c;
 1002da8:	8005883a 	mov	r2,r16
#else
    return putchar(c);
#endif
}
 1002dac:	dfc00217 	ldw	ra,8(sp)
 1002db0:	dc000117 	ldw	r16,4(sp)
 1002db4:	dec00304 	addi	sp,sp,12
 1002db8:	f800283a 	ret

01002dbc <alt_putstr>:
 * Uses the ALT_DRIVER_WRITE() macro to call directly to driver if available.
 * Otherwise, uses newlib provided fputs() routine.
 */
int 
alt_putstr(const char* str)
{
 1002dbc:	defffe04 	addi	sp,sp,-8
 1002dc0:	dc000015 	stw	r16,0(sp)
 1002dc4:	dfc00115 	stw	ra,4(sp)
 1002dc8:	2021883a 	mov	r16,r4
#ifdef ALT_USE_DIRECT_DRIVERS
    ALT_DRIVER_WRITE_EXTERNS(ALT_STDOUT_DEV);
    return ALT_DRIVER_WRITE(ALT_STDOUT_DEV, str, strlen(str), 0);
 1002dcc:	10031140 	call	1003114 <strlen>
 1002dd0:	01004034 	movhi	r4,256
 1002dd4:	210cd104 	addi	r4,r4,13124
 1002dd8:	800b883a 	mov	r5,r16
 1002ddc:	100d883a 	mov	r6,r2
 1002de0:	000f883a 	mov	r7,zero
#else
    return fputs(str, stdout);
#endif
}
 1002de4:	dfc00117 	ldw	ra,4(sp)
 1002de8:	dc000017 	ldw	r16,0(sp)
 1002dec:	dec00204 	addi	sp,sp,8
int 
alt_putstr(const char* str)
{
#ifdef ALT_USE_DIRECT_DRIVERS
    ALT_DRIVER_WRITE_EXTERNS(ALT_STDOUT_DEV);
    return ALT_DRIVER_WRITE(ALT_STDOUT_DEV, str, strlen(str), 0);
 1002df0:	1002e2c1 	jmpi	1002e2c <altera_avalon_jtag_uart_write>

01002df4 <usleep>:
int ALT_USLEEP (useconds_t us)
#else
unsigned int ALT_USLEEP (unsigned int us)
#endif
{
  return alt_busy_sleep(us);
 1002df4:	1002f601 	jmpi	1002f60 <alt_busy_sleep>

01002df8 <alt_irq_init>:
 * The "base" parameter is ignored and only
 * present for backwards-compatibility.
 */

void alt_irq_init ( const void* base )
{
 1002df8:	deffff04 	addi	sp,sp,-4
 1002dfc:	dfc00015 	stw	ra,0(sp)
    ALTERA_NIOS2_QSYS_IRQ_INIT ( NIOS2_QSYS_1, nios2_qsys_1);
 1002e00:	10030dc0 	call	10030dc <altera_nios2_qsys_irq_init>
 * alt_irq_cpu_enable_interrupts() enables the CPU to start taking interrupts.
 */
static ALT_INLINE void ALT_ALWAYS_INLINE 
       alt_irq_cpu_enable_interrupts (void)
{
    NIOS2_WRITE_STATUS(NIOS2_STATUS_PIE_MSK
 1002e04:	00800044 	movi	r2,1
 1002e08:	1001703a 	wrctl	status,r2
    alt_irq_cpu_enable_interrupts();
}
 1002e0c:	dfc00017 	ldw	ra,0(sp)
 1002e10:	dec00104 	addi	sp,sp,4
 1002e14:	f800283a 	ret

01002e18 <alt_sys_init>:
  int ret_code;
  extern alt_llist alt_mutex_list;
  ret_code = ALT_SEM_CREATE (&dev->lock, 1);
  if (!ret_code)
  {
    ret_code = alt_dev_llist_insert((alt_dev_llist*) dev, &alt_mutex_list);
 1002e18:	01004034 	movhi	r4,256
 1002e1c:	01404034 	movhi	r5,256
 1002e20:	210ccc04 	addi	r4,r4,13104
 1002e24:	294cd204 	addi	r5,r5,13128
 1002e28:	1002fec1 	jmpi	1002fec <alt_dev_llist_insert>

01002e2c <altera_avalon_jtag_uart_write>:
 */

int altera_avalon_jtag_uart_write(altera_avalon_jtag_uart_state* sp, 
  const char * ptr, int count, int flags)
{
  unsigned int base = sp->base;
 1002e2c:	21000017 	ldw	r4,0(r4)
 * one FIFOs worth of data.  But you said you didn't want to use interrupts :-)
 */

int altera_avalon_jtag_uart_write(altera_avalon_jtag_uart_state* sp, 
  const char * ptr, int count, int flags)
{
 1002e30:	3005883a 	mov	r2,r6
  unsigned int base = sp->base;

  const char * end = ptr + count;
 1002e34:	298d883a 	add	r6,r5,r6

  while (ptr < end)
    if ((IORD_ALTERA_AVALON_JTAG_UART_CONTROL(base) & ALTERA_AVALON_JTAG_UART_CONTROL_WSPACE_MSK) != 0)
 1002e38:	21c00104 	addi	r7,r4,4
{
  unsigned int base = sp->base;

  const char * end = ptr + count;

  while (ptr < end)
 1002e3c:	2980072e 	bgeu	r5,r6,1002e5c <altera_avalon_jtag_uart_write+0x30>
    if ((IORD_ALTERA_AVALON_JTAG_UART_CONTROL(base) & ALTERA_AVALON_JTAG_UART_CONTROL_WSPACE_MSK) != 0)
 1002e40:	38c00037 	ldwio	r3,0(r7)
 1002e44:	18ffffec 	andhi	r3,r3,65535
 1002e48:	183ffc26 	beq	r3,zero,1002e3c <altera_avalon_jtag_uart_write+0x10>
      IOWR_ALTERA_AVALON_JTAG_UART_DATA(base, *ptr++);
 1002e4c:	28c00007 	ldb	r3,0(r5)
 1002e50:	20c00035 	stwio	r3,0(r4)
 1002e54:	29400044 	addi	r5,r5,1
 1002e58:	003ff806 	br	1002e3c <altera_avalon_jtag_uart_write+0x10>

  return count;
}
 1002e5c:	f800283a 	ret

01002e60 <altera_avalon_mutex_open>:
 * Search the list of registered mutexes for one with the supplied name.
 *
 * The return value will be NULL on failure, and non-NULL otherwise.
 */
alt_mutex_dev* altera_avalon_mutex_open (const char* name)
{
 1002e60:	defffe04 	addi	sp,sp,-8
  alt_mutex_dev* dev;

  dev = (alt_mutex_dev*) alt_find_dev (name, &alt_mutex_list);
 1002e64:	d1600204 	addi	r5,gp,-32760
 * Search the list of registered mutexes for one with the supplied name.
 *
 * The return value will be NULL on failure, and non-NULL otherwise.
 */
alt_mutex_dev* altera_avalon_mutex_open (const char* name)
{
 1002e68:	dc000015 	stw	r16,0(sp)
 1002e6c:	dfc00115 	stw	ra,4(sp)
  alt_mutex_dev* dev;

  dev = (alt_mutex_dev*) alt_find_dev (name, &alt_mutex_list);
 1002e70:	10030640 	call	1003064 <alt_find_dev>
 1002e74:	1021883a 	mov	r16,r2

  if (NULL == dev)
 1002e78:	10000a1e 	bne	r2,zero,1002ea4 <altera_avalon_mutex_open+0x44>

extern int errno;

static ALT_INLINE int* alt_get_errno(void)
{
  return ((alt_errno) ? alt_errno() : &errno);
 1002e7c:	00804034 	movhi	r2,256
 1002e80:	108cd404 	addi	r2,r2,13136
 1002e84:	10800017 	ldw	r2,0(r2)
 1002e88:	10000226 	beq	r2,zero,1002e94 <altera_avalon_mutex_open+0x34>
 1002e8c:	103ee83a 	callr	r2
 1002e90:	00000206 	br	1002e9c <altera_avalon_mutex_open+0x3c>
 1002e94:	00804034 	movhi	r2,256
 1002e98:	108cf304 	addi	r2,r2,13260
  {
    ALT_ERRNO = ENODEV;
 1002e9c:	00c004c4 	movi	r3,19
 1002ea0:	10c00015 	stw	r3,0(r2)
  }

  return dev;
}
 1002ea4:	8005883a 	mov	r2,r16
 1002ea8:	dfc00117 	ldw	ra,4(sp)
 1002eac:	dc000017 	ldw	r16,0(sp)
 1002eb0:	dec00204 	addi	sp,sp,8
 1002eb4:	f800283a 	ret

01002eb8 <altera_avalon_mutex_close>:
 * altera_avalon_mutex_close - Does nothing at the moment, but included for 
 * completeness
 *
 */
void altera_avalon_mutex_close (alt_mutex_dev* dev)
{
 1002eb8:	f800283a 	ret

01002ebc <altera_avalon_mutex_lock>:
static int alt_mutex_trylock( alt_mutex_dev* dev, alt_u32 value )
{
  alt_u32 id, data, check;
  int ret_code = -1;

  NIOS2_READ_CPUID(id);
 1002ebc:	0005317a 	rdctl	r2,cpuid

  /* the data we want the mutex to hold */
  data = (id << ALTERA_AVALON_MUTEX_MUTEX_OWNER_OFST) | value;
 1002ec0:	1004943a 	slli	r2,r2,16

  /* attempt to write to the mutex */
  IOWR_ALTERA_AVALON_MUTEX_MUTEX(dev->mutex_base, data);
 1002ec4:	20c00317 	ldw	r3,12(r4)
  int ret_code = -1;

  NIOS2_READ_CPUID(id);

  /* the data we want the mutex to hold */
  data = (id << ALTERA_AVALON_MUTEX_MUTEX_OWNER_OFST) | value;
 1002ec8:	1144b03a 	or	r2,r2,r5

  /* attempt to write to the mutex */
  IOWR_ALTERA_AVALON_MUTEX_MUTEX(dev->mutex_base, data);
 1002ecc:	18800035 	stwio	r2,0(r3)
  
  check = IORD_ALTERA_AVALON_MUTEX_MUTEX(dev->mutex_base);
 1002ed0:	20c00317 	ldw	r3,12(r4)
 1002ed4:	18c00037 	ldwio	r3,0(r3)

  if ( check == data)
 1002ed8:	18bff81e 	bne	r3,r2,1002ebc <altera_avalon_mutex_lock>
   */

  ALT_SEM_PEND (dev->lock, 0);

  while ( alt_mutex_trylock( dev, value ) != 0);
}
 1002edc:	f800283a 	ret

01002ee0 <altera_avalon_mutex_trylock>:
static int alt_mutex_trylock( alt_mutex_dev* dev, alt_u32 value )
{
  alt_u32 id, data, check;
  int ret_code = -1;

  NIOS2_READ_CPUID(id);
 1002ee0:	0005317a 	rdctl	r2,cpuid

  /* the data we want the mutex to hold */
  data = (id << ALTERA_AVALON_MUTEX_MUTEX_OWNER_OFST) | value;
 1002ee4:	1004943a 	slli	r2,r2,16
 1002ee8:	114ab03a 	or	r5,r2,r5

  /* attempt to write to the mutex */
  IOWR_ALTERA_AVALON_MUTEX_MUTEX(dev->mutex_base, data);
 1002eec:	20800317 	ldw	r2,12(r4)
 1002ef0:	11400035 	stwio	r5,0(r2)
  
  check = IORD_ALTERA_AVALON_MUTEX_MUTEX(dev->mutex_base);
 1002ef4:	20800317 	ldw	r2,12(r4)
 1002ef8:	10800037 	ldwio	r2,0(r2)

  if ( check == data)
 1002efc:	1144c03a 	cmpne	r2,r2,r5
  {
    ALT_SEM_POST (dev->lock);
  }

  return ret_code;
}
 1002f00:	0085c83a 	sub	r2,zero,r2
 1002f04:	f800283a 	ret

01002f08 <altera_avalon_mutex_unlock>:
 *
 */
void altera_avalon_mutex_unlock( alt_mutex_dev* dev )
{
  alt_u32 id;
  NIOS2_READ_CPUID(id);
 1002f08:	0005317a 	rdctl	r2,cpuid

  /*
  * This Mutex has been claimed and released since Reset so clear the Reset bit
  * This MUST happen before we release the MUTEX
  */
  IOWR_ALTERA_AVALON_MUTEX_RESET(dev->mutex_base, 
 1002f0c:	20c00317 	ldw	r3,12(r4)
 1002f10:	01400044 	movi	r5,1
 1002f14:	19400135 	stwio	r5,4(r3)
                                  ALTERA_AVALON_MUTEX_RESET_RESET_MSK);
  IOWR_ALTERA_AVALON_MUTEX_MUTEX(dev->mutex_base, 
 1002f18:	1004943a 	slli	r2,r2,16
 1002f1c:	20c00317 	ldw	r3,12(r4)
 1002f20:	18800035 	stwio	r2,0(r3)
 1002f24:	f800283a 	ret

01002f28 <altera_avalon_mutex_is_mine>:
int altera_avalon_mutex_is_mine( alt_mutex_dev* dev )
{
  alt_u32 id, data, owner, value;
  int ret_code = 0;

  NIOS2_READ_CPUID(id);
 1002f28:	0007317a 	rdctl	r3,cpuid

  /* retrieve the contents of the mutex */
  data = IORD_ALTERA_AVALON_MUTEX_MUTEX(dev->mutex_base);
 1002f2c:	20800317 	ldw	r2,12(r4)
 1002f30:	10800037 	ldwio	r2,0(r2)
  owner = (data & ALTERA_AVALON_MUTEX_MUTEX_OWNER_MSK) >> 
 1002f34:	1008d43a 	srli	r4,r2,16
              ALTERA_AVALON_MUTEX_MUTEX_OWNER_OFST;

  if (owner == id) 
 1002f38:	20c0031e 	bne	r4,r3,1002f48 <altera_avalon_mutex_is_mine+0x20>
  {
    value = (data & ALTERA_AVALON_MUTEX_MUTEX_VALUE_MSK) >> 
 1002f3c:	10bfffcc 	andi	r2,r2,65535
                  ALTERA_AVALON_MUTEX_MUTEX_VALUE_OFST;
    if (value != 0)
 1002f40:	1004c03a 	cmpne	r2,r2,zero
 1002f44:	f800283a 	ret
 *  returns non zero if the mutex is owned by this CPU
 */
int altera_avalon_mutex_is_mine( alt_mutex_dev* dev )
{
  alt_u32 id, data, owner, value;
  int ret_code = 0;
 1002f48:	0005883a 	mov	r2,zero
      ret_code = 1;
    }
  }

  return ret_code;
}
 1002f4c:	f800283a 	ret

01002f50 <altera_avalon_mutex_first_lock>:
int altera_avalon_mutex_first_lock( alt_mutex_dev* dev )
{
  alt_u32 data;
  int ret_code = 0;

  data = IORD_ALTERA_AVALON_MUTEX_RESET(dev->mutex_base);
 1002f50:	20800317 	ldw	r2,12(r4)
 1002f54:	10800137 	ldwio	r2,4(r2)
  {
    ret_code = 1;
  }

  return ret_code;
}
 1002f58:	1080004c 	andi	r2,r2,1
 1002f5c:	f800283a 	ret

01002f60 <alt_busy_sleep>:
  {
    cycles_per_loop = 3;
  }
  

  big_loops = us / (INT_MAX/
 1002f60:	014666b4 	movhi	r5,6554
#include "alt_types.h"

#include "priv/alt_busy_sleep.h"

unsigned int alt_busy_sleep (unsigned int us)
{
 1002f64:	defffe04 	addi	sp,sp,-8
  {
    cycles_per_loop = 3;
  }
  

  big_loops = us / (INT_MAX/
 1002f68:	29666644 	addi	r5,r5,-26215
#include "alt_types.h"

#include "priv/alt_busy_sleep.h"

unsigned int alt_busy_sleep (unsigned int us)
{
 1002f6c:	dc000015 	stw	r16,0(sp)
 1002f70:	dfc00115 	stw	ra,4(sp)
 1002f74:	2021883a 	mov	r16,r4
  {
    cycles_per_loop = 3;
  }
  

  big_loops = us / (INT_MAX/
 1002f78:	100324c0 	call	100324c <__udivsi3>
  (ALT_CPU_FREQ/(cycles_per_loop * 1000000)));

  if (big_loops)
 1002f7c:	10001026 	beq	r2,zero,1002fc0 <alt_busy_sleep+0x60>
      /*
      * Do NOT Try to single step the asm statement below 
      * (single step will never return)
      * Step out of this function or set a breakpoint after the asm statements
      */
      __asm__ volatile (
 1002f80:	01600034 	movhi	r5,32768
        "\n1:"
        "\n\t.pushsection .debug_alt_sim_info"
        "\n\t.int 4, 0, 0b, 1b"
        "\n\t.popsection"
        :: "r" (INT_MAX));
      us -= (INT_MAX/(ALT_CPU_FREQ/
 1002f84:	013999b4 	movhi	r4,58982
  

  big_loops = us / (INT_MAX/
  (ALT_CPU_FREQ/(cycles_per_loop * 1000000)));

  if (big_loops)
 1002f88:	0007883a 	mov	r3,zero
      /*
      * Do NOT Try to single step the asm statement below 
      * (single step will never return)
      * Step out of this function or set a breakpoint after the asm statements
      */
      __asm__ volatile (
 1002f8c:	297fffc4 	addi	r5,r5,-1
        "\n1:"
        "\n\t.pushsection .debug_alt_sim_info"
        "\n\t.int 4, 0, 0b, 1b"
        "\n\t.popsection"
        :: "r" (INT_MAX));
      us -= (INT_MAX/(ALT_CPU_FREQ/
 1002f90:	211999c4 	addi	r4,r4,26215
      /*
      * Do NOT Try to single step the asm statement below 
      * (single step will never return)
      * Step out of this function or set a breakpoint after the asm statements
      */
      __asm__ volatile (
 1002f94:	297fffc4 	addi	r5,r5,-1
 1002f98:	283ffe1e 	bne	r5,zero,1002f94 <alt_busy_sleep+0x34>
  big_loops = us / (INT_MAX/
  (ALT_CPU_FREQ/(cycles_per_loop * 1000000)));

  if (big_loops)
  {
    for(i=0;i<big_loops;i++)
 1002f9c:	18c00044 	addi	r3,r3,1
        "\n1:"
        "\n\t.pushsection .debug_alt_sim_info"
        "\n\t.int 4, 0, 0b, 1b"
        "\n\t.popsection"
        :: "r" (INT_MAX));
      us -= (INT_MAX/(ALT_CPU_FREQ/
 1002fa0:	8121883a 	add	r16,r16,r4
  big_loops = us / (INT_MAX/
  (ALT_CPU_FREQ/(cycles_per_loop * 1000000)));

  if (big_loops)
  {
    for(i=0;i<big_loops;i++)
 1002fa4:	18bffb16 	blt	r3,r2,1002f94 <alt_busy_sleep+0x34>
      "\n\tbne %0,zero,0b"
      "\n1:"
      "\n\t.pushsection .debug_alt_sim_info"
      "\n\t.int 4, 0, 0b, 1b"
      "\n\t.popsection"
      :: "r" (us*(ALT_CPU_FREQ/(cycles_per_loop * 1000000))));
 1002fa8:	8009883a 	mov	r4,r16
 1002fac:	01400144 	movi	r5,5
 1002fb0:	1002a740 	call	1002a74 <__mulsi3>
    /*
    * Do NOT Try to single step the asm statement below 
    * (single step will never return)
    * Step out of this function or set a breakpoint after the asm statements
    */
    __asm__ volatile (
 1002fb4:	10bfffc4 	addi	r2,r2,-1
 1002fb8:	103ffe1e 	bne	r2,zero,1002fb4 <alt_busy_sleep+0x54>
 1002fbc:	00000506 	br	1002fd4 <alt_busy_sleep+0x74>
      "\n\tbgt %0,zero,0b"
      "\n1:"
      "\n\t.pushsection .debug_alt_sim_info"
      "\n\t.int 4, 0, 0b, 1b"
      "\n\t.popsection"
      :: "r" (us*(ALT_CPU_FREQ/(cycles_per_loop * 1000000))));
 1002fc0:	8009883a 	mov	r4,r16
 1002fc4:	01400144 	movi	r5,5
 1002fc8:	1002a740 	call	1002a74 <__mulsi3>
    /*
    * Do NOT Try to single step the asm statement below 
    * (single step will never return)
    * Step out of this function or set a breakpoint after the asm statements
    */
    __asm__ volatile (
 1002fcc:	10bfffc4 	addi	r2,r2,-1
 1002fd0:	00bffe16 	blt	zero,r2,1002fcc <alt_busy_sleep+0x6c>
      "\n\t.popsection"
      :: "r" (us*(ALT_CPU_FREQ/(cycles_per_loop * 1000000))));
  }
#endif /* #ifndef ALT_SIM_OPTIMIZE */
  return 0;
}
 1002fd4:	0005883a 	mov	r2,zero
 1002fd8:	dfc00117 	ldw	ra,4(sp)
 1002fdc:	dc000017 	ldw	r16,0(sp)
 1002fe0:	dec00204 	addi	sp,sp,8
 1002fe4:	f800283a 	ret

01002fe8 <alt_dcache_flush_all>:
/*
 * alt_dcache_flush_all() is called to flush the entire data cache.
 */

void alt_dcache_flush_all (void)
{
 1002fe8:	f800283a 	ret

01002fec <alt_dev_llist_insert>:
{
  /*
   * check that the device exists, and that it has a valid name.
   */

  if (!dev || !dev->name)
 1002fec:	20000226 	beq	r4,zero,1002ff8 <alt_dev_llist_insert+0xc>
 1002ff0:	20800217 	ldw	r2,8(r4)
 1002ff4:	1000131e 	bne	r2,zero,1003044 <alt_dev_llist_insert+0x58>
 1002ff8:	00804034 	movhi	r2,256
 1002ffc:	108cd404 	addi	r2,r2,13136
 1003000:	10800017 	ldw	r2,0(r2)
 1003004:	10000926 	beq	r2,zero,100302c <alt_dev_llist_insert+0x40>
/*
 *
 */

int alt_dev_llist_insert (alt_dev_llist* dev, alt_llist* list)
{
 1003008:	deffff04 	addi	sp,sp,-4
 100300c:	dfc00015 	stw	ra,0(sp)
 1003010:	103ee83a 	callr	r2
   * check that the device exists, and that it has a valid name.
   */

  if (!dev || !dev->name)
  {
    ALT_ERRNO = EINVAL;
 1003014:	00c00584 	movi	r3,22
 1003018:	10c00015 	stw	r3,0(r2)
    return -EINVAL;
 100301c:	00bffa84 	movi	r2,-22
   */
  
  alt_llist_insert(list, &dev->llist);

  return 0;  
}
 1003020:	dfc00017 	ldw	ra,0(sp)
 1003024:	dec00104 	addi	sp,sp,4
 1003028:	f800283a 	ret
 100302c:	00804034 	movhi	r2,256
 1003030:	108cf304 	addi	r2,r2,13260
   * check that the device exists, and that it has a valid name.
   */

  if (!dev || !dev->name)
  {
    ALT_ERRNO = EINVAL;
 1003034:	00c00584 	movi	r3,22
 1003038:	10c00015 	stw	r3,0(r2)
    return -EINVAL;
 100303c:	00bffa84 	movi	r2,-22
   */
  
  alt_llist_insert(list, &dev->llist);

  return 0;  
}
 1003040:	f800283a 	ret

static ALT_INLINE void ALT_ALWAYS_INLINE alt_llist_insert(alt_llist* list, 
                alt_llist* entry)
{
  entry->previous = list;
  entry->next     = list->next;
 1003044:	28800017 	ldw	r2,0(r5)
 */

static ALT_INLINE void ALT_ALWAYS_INLINE alt_llist_insert(alt_llist* list, 
                alt_llist* entry)
{
  entry->previous = list;
 1003048:	21400115 	stw	r5,4(r4)
  entry->next     = list->next;
 100304c:	20800015 	stw	r2,0(r4)

  list->next->previous = entry;
 1003050:	28800017 	ldw	r2,0(r5)
 1003054:	11000115 	stw	r4,4(r2)
  list->next           = entry;
 1003058:	29000015 	stw	r4,0(r5)
   * register the device.
   */
  
  alt_llist_insert(list, &dev->llist);

  return 0;  
 100305c:	0005883a 	mov	r2,zero
 1003060:	f800283a 	ret

01003064 <alt_find_dev>:
 * "name" must be an exact match for the devices registered name for a match to
 * be found.
 */
 
alt_dev* alt_find_dev(const char* name, alt_llist* llist)
{
 1003064:	defffb04 	addi	sp,sp,-20
 1003068:	dcc00315 	stw	r19,12(sp)
 100306c:	dc800215 	stw	r18,8(sp)
 1003070:	dc400115 	stw	r17,4(sp)
 1003074:	dc000015 	stw	r16,0(sp)
 1003078:	dfc00415 	stw	ra,16(sp)
 100307c:	2027883a 	mov	r19,r4
 1003080:	2823883a 	mov	r17,r5
  alt_dev* next = (alt_dev*) llist->next;
 1003084:	2c000017 	ldw	r16,0(r5)
  alt_32 len;

  len  = strlen(name) + 1;
 1003088:	10031140 	call	1003114 <strlen>
 100308c:	14800044 	addi	r18,r2,1
  /*
   * Check each list entry in turn, until a match is found, or we reach the
   * end of the list (i.e. next winds up pointing back to the list head).
   */ 

  while (next != (alt_dev*) llist)
 1003090:	84400726 	beq	r16,r17,10030b0 <alt_find_dev+0x4c>
    /* 
     * memcmp() is used here rather than strcmp() in order to reduce the size
     * of the executable.
     */

    if (!memcmp (next->name, name, len))
 1003094:	81000217 	ldw	r4,8(r16)
 1003098:	980b883a 	mov	r5,r19
 100309c:	900d883a 	mov	r6,r18
 10030a0:	10030e40 	call	10030e4 <memcmp>
 10030a4:	10000426 	beq	r2,zero,10030b8 <alt_find_dev+0x54>
    {
      /* match found */

      return next;
    }
    next = (alt_dev*) next->llist.next;
 10030a8:	84000017 	ldw	r16,0(r16)
 10030ac:	003ff806 	br	1003090 <alt_find_dev+0x2c>
  }
  
  /* No match found */
  
  return NULL;
 10030b0:	0005883a 	mov	r2,zero
 10030b4:	00000106 	br	10030bc <alt_find_dev+0x58>
 10030b8:	8005883a 	mov	r2,r16
}
 10030bc:	dfc00417 	ldw	ra,16(sp)
 10030c0:	dcc00317 	ldw	r19,12(sp)
 10030c4:	dc800217 	ldw	r18,8(sp)
 10030c8:	dc400117 	ldw	r17,4(sp)
 10030cc:	dc000017 	ldw	r16,0(sp)
 10030d0:	dec00504 	addi	sp,sp,20
 10030d4:	f800283a 	ret

010030d8 <alt_icache_flush_all>:
/*
 * alt_icache_flush_all() is called to flush the entire instruction cache.
 */

void alt_icache_flush_all (void)
{
 10030d8:	f800283a 	ret

010030dc <altera_nios2_qsys_irq_init>:
 * To initialize the internal interrupt controller, just clear the IENABLE
 * register so that all possible IRQs are disabled.
 */
void altera_nios2_qsys_irq_init(void) 
{
    NIOS2_WRITE_IENABLE(0);
 10030dc:	000170fa 	wrctl	ienable,zero
 10030e0:	f800283a 	ret

010030e4 <memcmp>:
 10030e4:	218d883a 	add	r6,r4,r6
 10030e8:	21800826 	beq	r4,r6,100310c <memcmp+0x28>
 10030ec:	20800003 	ldbu	r2,0(r4)
 10030f0:	28c00003 	ldbu	r3,0(r5)
 10030f4:	10c00226 	beq	r2,r3,1003100 <memcmp+0x1c>
 10030f8:	10c5c83a 	sub	r2,r2,r3
 10030fc:	f800283a 	ret
 1003100:	21000044 	addi	r4,r4,1
 1003104:	29400044 	addi	r5,r5,1
 1003108:	003ff706 	br	10030e8 <memcmp+0x4>
 100310c:	0005883a 	mov	r2,zero
 1003110:	f800283a 	ret

01003114 <strlen>:
 1003114:	2005883a 	mov	r2,r4
 1003118:	10c00007 	ldb	r3,0(r2)
 100311c:	18000226 	beq	r3,zero,1003128 <strlen+0x14>
 1003120:	10800044 	addi	r2,r2,1
 1003124:	003ffc06 	br	1003118 <strlen+0x4>
 1003128:	1105c83a 	sub	r2,r2,r4
 100312c:	f800283a 	ret

01003130 <udivmodsi4>:
 1003130:	2900182e 	bgeu	r5,r4,1003194 <udivmodsi4+0x64>
 1003134:	28001716 	blt	r5,zero,1003194 <udivmodsi4+0x64>
 1003138:	00800804 	movi	r2,32
 100313c:	00c00044 	movi	r3,1
 1003140:	00000206 	br	100314c <udivmodsi4+0x1c>
 1003144:	10001126 	beq	r2,zero,100318c <udivmodsi4+0x5c>
 1003148:	28000516 	blt	r5,zero,1003160 <udivmodsi4+0x30>
 100314c:	294b883a 	add	r5,r5,r5
 1003150:	10bfffc4 	addi	r2,r2,-1
 1003154:	18c7883a 	add	r3,r3,r3
 1003158:	293ffa36 	bltu	r5,r4,1003144 <udivmodsi4+0x14>
 100315c:	18000b26 	beq	r3,zero,100318c <udivmodsi4+0x5c>
 1003160:	0005883a 	mov	r2,zero
 1003164:	21400236 	bltu	r4,r5,1003170 <udivmodsi4+0x40>
 1003168:	2149c83a 	sub	r4,r4,r5
 100316c:	10c4b03a 	or	r2,r2,r3
 1003170:	1806d07a 	srli	r3,r3,1
 1003174:	280ad07a 	srli	r5,r5,1
 1003178:	183ffa1e 	bne	r3,zero,1003164 <udivmodsi4+0x34>
 100317c:	3000011e 	bne	r6,zero,1003184 <udivmodsi4+0x54>
 1003180:	f800283a 	ret
 1003184:	2005883a 	mov	r2,r4
 1003188:	f800283a 	ret
 100318c:	0005883a 	mov	r2,zero
 1003190:	003ffa06 	br	100317c <udivmodsi4+0x4c>
 1003194:	00c00044 	movi	r3,1
 1003198:	003ff106 	br	1003160 <udivmodsi4+0x30>

0100319c <__divsi3>:
 100319c:	defffe04 	addi	sp,sp,-8
 10031a0:	dfc00115 	stw	ra,4(sp)
 10031a4:	dc000015 	stw	r16,0(sp)
 10031a8:	20000b16 	blt	r4,zero,10031d8 <__divsi3+0x3c>
 10031ac:	0021883a 	mov	r16,zero
 10031b0:	28000c16 	blt	r5,zero,10031e4 <__divsi3+0x48>
 10031b4:	000d883a 	mov	r6,zero
 10031b8:	10031300 	call	1003130 <udivmodsi4>
 10031bc:	0407c83a 	sub	r3,zero,r16
 10031c0:	1884f03a 	xor	r2,r3,r2
 10031c4:	1405883a 	add	r2,r2,r16
 10031c8:	dfc00117 	ldw	ra,4(sp)
 10031cc:	dc000017 	ldw	r16,0(sp)
 10031d0:	dec00204 	addi	sp,sp,8
 10031d4:	f800283a 	ret
 10031d8:	0109c83a 	sub	r4,zero,r4
 10031dc:	04000044 	movi	r16,1
 10031e0:	283ff40e 	bge	r5,zero,10031b4 <__divsi3+0x18>
 10031e4:	014bc83a 	sub	r5,zero,r5
 10031e8:	8400005c 	xori	r16,r16,1
 10031ec:	003ff106 	br	10031b4 <__divsi3+0x18>

010031f0 <__modsi3>:
 10031f0:	defffd04 	addi	sp,sp,-12
 10031f4:	dfc00215 	stw	ra,8(sp)
 10031f8:	dc400115 	stw	r17,4(sp)
 10031fc:	dc000015 	stw	r16,0(sp)
 1003200:	20000c16 	blt	r4,zero,1003234 <__modsi3+0x44>
 1003204:	0023883a 	mov	r17,zero
 1003208:	0021883a 	mov	r16,zero
 100320c:	28000d16 	blt	r5,zero,1003244 <__modsi3+0x54>
 1003210:	01800044 	movi	r6,1
 1003214:	10031300 	call	1003130 <udivmodsi4>
 1003218:	1404f03a 	xor	r2,r2,r16
 100321c:	8885883a 	add	r2,r17,r2
 1003220:	dfc00217 	ldw	ra,8(sp)
 1003224:	dc400117 	ldw	r17,4(sp)
 1003228:	dc000017 	ldw	r16,0(sp)
 100322c:	dec00304 	addi	sp,sp,12
 1003230:	f800283a 	ret
 1003234:	0109c83a 	sub	r4,zero,r4
 1003238:	04400044 	movi	r17,1
 100323c:	043fffc4 	movi	r16,-1
 1003240:	283ff30e 	bge	r5,zero,1003210 <__modsi3+0x20>
 1003244:	014bc83a 	sub	r5,zero,r5
 1003248:	003ff106 	br	1003210 <__modsi3+0x20>

0100324c <__udivsi3>:
 100324c:	000d883a 	mov	r6,zero
 1003250:	10031301 	jmpi	1003130 <udivmodsi4>

01003254 <__umodsi3>:
 1003254:	01800044 	movi	r6,1
 1003258:	10031301 	jmpi	1003130 <udivmodsi4>
