
master.elf:     file format elf32-littlenios2
master.elf
architecture: nios2:r1, flags 0x00000112:
EXEC_P, HAS_SYMS, D_PAGED
start address 0x000001dc

Program Header:
    LOAD off    0x00001000 vaddr 0x00000000 paddr 0x00000000 align 2**12
         filesz 0x00000020 memsz 0x00000020 flags r-x
    LOAD off    0x00001020 vaddr 0x00000020 paddr 0x00000020 align 2**12
         filesz 0x00002fb8 memsz 0x00002fb8 flags r-x
    LOAD off    0x00003fd8 vaddr 0x00002fd8 paddr 0x00002ffc align 2**12
         filesz 0x00000024 memsz 0x00000024 flags rw-
    LOAD off    0x00004020 vaddr 0x00003020 paddr 0x00003020 align 2**12
         filesz 0x00000000 memsz 0x00002560 flags rw-

Sections:
Idx Name          Size      VMA       LMA       File off  Algn
  0 .entry        00000020  00000000  00000000  00001000  2**5
                  CONTENTS, ALLOC, LOAD, READONLY, CODE
  1 .exceptions   000001bc  00000020  00000020  00001020  2**2
                  CONTENTS, ALLOC, LOAD, READONLY, CODE
  2 .text         00002d6c  000001dc  000001dc  000011dc  2**2
                  CONTENTS, ALLOC, LOAD, READONLY, CODE
  3 .rodata       00000090  00002f48  00002f48  00003f48  2**2
                  CONTENTS, ALLOC, LOAD, READONLY, DATA
  4 .rwdata       00000024  00002fd8  00002ffc  00003fd8  2**2
                  CONTENTS, ALLOC, LOAD, DATA, SMALL_DATA
  5 .bss          00002560  00003020  00003020  00004020  2**2
                  ALLOC, SMALL_DATA
  6 .onchip_memory2_0 00000000  00005580  00005580  00003ffc  2**0
                  CONTENTS
  7 .memory_buff  00000000  00010000  00010000  00003ffc  2**0
                  CONTENTS
  8 .comment      00000023  00000000  00000000  00003ffc  2**0
                  CONTENTS, READONLY
  9 .debug_aranges 00000448  00000000  00000000  00004020  2**3
                  CONTENTS, READONLY, DEBUGGING
 10 .debug_info   000063ab  00000000  00000000  00004468  2**0
                  CONTENTS, READONLY, DEBUGGING
 11 .debug_abbrev 00002166  00000000  00000000  0000a813  2**0
                  CONTENTS, READONLY, DEBUGGING
 12 .debug_line   000029c8  00000000  00000000  0000c979  2**0
                  CONTENTS, READONLY, DEBUGGING
 13 .debug_frame  00000e90  00000000  00000000  0000f344  2**2
                  CONTENTS, READONLY, DEBUGGING
 14 .debug_str    00001de2  00000000  00000000  000101d4  2**0
                  CONTENTS, READONLY, DEBUGGING
 15 .debug_loc    00002e16  00000000  00000000  00011fb6  2**0
                  CONTENTS, READONLY, DEBUGGING
 16 .debug_alt_sim_info 00000010  00000000  00000000  00014dcc  2**2
                  CONTENTS, READONLY, DEBUGGING
 17 .debug_ranges 000001e0  00000000  00000000  00014de0  2**3
                  CONTENTS, READONLY, DEBUGGING
 18 .thread_model 00000003  00000000  00000000  000173a7  2**0
                  CONTENTS, READONLY
 19 .cpu          0000000c  00000000  00000000  000173aa  2**0
                  CONTENTS, READONLY
 20 .qsys         00000001  00000000  00000000  000173b6  2**0
                  CONTENTS, READONLY
 21 .simulation_enabled 00000001  00000000  00000000  000173b7  2**0
                  CONTENTS, READONLY
 22 .stderr_dev   0000000b  00000000  00000000  000173b8  2**0
                  CONTENTS, READONLY
 23 .stdin_dev    0000000b  00000000  00000000  000173c3  2**0
                  CONTENTS, READONLY
 24 .stdout_dev   0000000b  00000000  00000000  000173ce  2**0
                  CONTENTS, READONLY
 25 .sopc_system_name 0000000b  00000000  00000000  000173d9  2**0
                  CONTENTS, READONLY
 26 .quartus_project_dir 0000002b  00000000  00000000  000173e4  2**0
                  CONTENTS, READONLY
 27 .jdi          0000a38c  00000000  00000000  0001740f  2**0
                  CONTENTS, READONLY
 28 .sopcinfo     0005f8dc  00000000  00000000  0002179b  2**0
                  CONTENTS, READONLY
SYMBOL TABLE:
00000000 l    d  .entry	00000000 .entry
00000020 l    d  .exceptions	00000000 .exceptions
000001dc l    d  .text	00000000 .text
00002f48 l    d  .rodata	00000000 .rodata
00002fd8 l    d  .rwdata	00000000 .rwdata
00003020 l    d  .bss	00000000 .bss
00005580 l    d  .onchip_memory2_0	00000000 .onchip_memory2_0
00010000 l    d  .memory_buff	00000000 .memory_buff
00000000 l    d  .comment	00000000 .comment
00000000 l    d  .debug_aranges	00000000 .debug_aranges
00000000 l    d  .debug_info	00000000 .debug_info
00000000 l    d  .debug_abbrev	00000000 .debug_abbrev
00000000 l    d  .debug_line	00000000 .debug_line
00000000 l    d  .debug_frame	00000000 .debug_frame
00000000 l    d  .debug_str	00000000 .debug_str
00000000 l    d  .debug_loc	00000000 .debug_loc
00000000 l    d  .debug_alt_sim_info	00000000 .debug_alt_sim_info
00000000 l    d  .debug_ranges	00000000 .debug_ranges
00000000 l    df *ABS*	00000000 ../master_bsp//obj/HAL/src/crt0.o
00000214 l       .text	00000000 alt_after_alt_main
00000000 l    df *ABS*	00000000 obj/default/portable/GCC/NiosII/port_asm.o
00000020 l       .exceptions	00000000 save_context
0000009c l       .exceptions	00000000 save_sp_to_pxCurrentTCB
000000ac l       .exceptions	00000000 hw_irq_test
00000150 l       .exceptions	00000000 soft_exceptions
000000c0 l       .exceptions	00000000 hw_irq_handler
000000d4 l       .exceptions	00000000 restore_context
0000016c l       .exceptions	00000000 call_scheduler
00000000 l    df *ABS*	00000000 alt_irq_handler.c
00000000 l    df *ABS*	00000000 asym.c
00003020 l     O .bss	00000004 mutex
00000000 l    df *ABS*	00000000 croutine.c
00000000 l    df *ABS*	00000000 list.c
00000000 l    df *ABS*	00000000 master.c
00000000 l    df *ABS*	00000000 port.c
00000000 l    df *ABS*	00000000 heap_1.c
00003024 l     O .bss	00000004 pucAlignedHeap.2415
00003078 l     O .bss	00002340 ucHeap
00003028 l     O .bss	00000004 xNextFreeByte
00000000 l    df *ABS*	00000000 queue.c
00000738 l     F .text	000000d8 prvCopyDataToQueue
00000810 l     F .text	00000038 prvCopyDataFromQueue
00000848 l     F .text	000000ac prvUnlockQueue
00000000 l    df *ABS*	00000000 tasks.c
00001180 l     F .text	0000002c prvTaskIsTaskSuspended
000053b8 l     O .bss	00000014 xSuspendedTaskList
000053e0 l     O .bss	00000014 xPendingReadyList
000011ac l     F .text	0000002c prvResetNextTaskUnblockTime
0000305c l     O .bss	00000004 pxDelayedTaskList
00003030 l     O .bss	00000004 xNextTaskUnblockTime
000011d8 l     F .text	0000005c prvAddCurrentTaskToDelayedList
0000304c l     O .bss	00000004 xTickCount
00003058 l     O .bss	00000004 pxOverflowDelayedTaskList
0000302c l     O .bss	00000004 uxSchedulerSuspended
00003048 l     O .bss	00000004 uxTopReadyPriority
0000541c l     O .bss	00000064 pxReadyTasksLists
00003044 l     O .bss	00000004 xSchedulerRunning
00003050 l     O .bss	00000004 uxCurrentNumberOfTasks
00003038 l     O .bss	00000004 xNumOfOverflows
00003040 l     O .bss	00000004 uxPendedTicks
0000303c l     O .bss	00000004 xYieldPending
00005408 l     O .bss	00000014 xDelayedTaskList1
000053f4 l     O .bss	00000014 xDelayedTaskList2
000053cc l     O .bss	00000014 xTasksWaitingTermination
00003034 l     O .bss	00000004 uxTaskNumber
000021f0 l     F .text	0000007c prvIdleTask
00003054 l     O .bss	00000004 uxTasksDeleted
00000000 l    df *ABS*	00000000 timers.c
00000000 l    df *ABS*	00000000 lib2-divmod.c
000027ec l     F .text	0000006c udivmodsi4
00000000 l    df *ABS*	00000000 lib2-mul.c
00000000 l    df *ABS*	00000000 memcpy.c
00000000 l    df *ABS*	00000000 memset.c
00000000 l    df *ABS*	00000000 alt_irq_vars.c
00000000 l    df *ABS*	00000000 alt_load.c
00000000 l    df *ABS*	00000000 alt_main.c
00000000 l    df *ABS*	00000000 alt_printf.c
00000000 l    df *ABS*	00000000 alt_putchar.c
00000000 l    df *ABS*	00000000 alt_putstr.c
00000000 l    df *ABS*	00000000 alt_sys_init.c
00002fd8 l     O .rwdata	00000010 mutex_0
00000000 l    df *ABS*	00000000 altera_avalon_jtag_uart_write.c
00000000 l    df *ABS*	00000000 altera_avalon_mutex.c
00000000 l    df *ABS*	00000000 alt_dcache_flush_all.c
00000000 l    df *ABS*	00000000 alt_dev_llist_insert.c
00000000 l    df *ABS*	00000000 alt_errno.c
00000000 l    df *ABS*	00000000 alt_find_dev.c
00000000 l    df *ABS*	00000000 alt_icache_flush_all.c
00000000 l    df *ABS*	00000000 altera_nios2_qsys_irq.c
00000000 l    df *ABS*	00000000 int_errno.c
00000000 l    df *ABS*	00000000 memcmp.c
00000000 l    df *ABS*	00000000 strlen.c
00002a80 g     F .text	0000002c alt_main
00005480 g     O .bss	00000100 alt_irq
000000c4 g       .exceptions	00000000 restore_sp_from_pxCurrentTCB
000015b8 g     F .text	00000074 vTaskPlaceOnUnorderedEventList
00000728 g     F .text	00000010 xPortGetFreeHeapSize
00002ffc g       *ABS*	00000000 __flash_rwdata_start
00001d3c g     F .text	00000038 uxTaskPriorityGet
000003b4 g     F .text	000000cc masterTask
00001930 g     F .text	00000030 vTaskEnterCritical
00000cc8 g     F .text	00000090 xQueueGenericSendFromISR
00002d80 g     F .text	00000028 altera_avalon_mutex_trylock
00002c60 g     F .text	00000038 alt_putstr
00000000  w      *UND*	00000000 __errno
00000000 g     F .entry	0000000c __reset
00000c68 g     F .text	00000060 xQueueGiveMutexRecursive
00003060 g     O .bss	00000004 pxCurrentTCB
00000258 g     F .text	00000018 xAsymReqQueuInit
00002dc8 g     F .text	00000028 altera_avalon_mutex_is_mine
00000020 g       *ABS*	00000000 __flash_exceptions_start
00003074 g     O .bss	00000004 errno
0000306c g     O .bss	00000004 alt_argv
0000afe8 g       *ABS*	00000000 _gp
00001d74 g     F .text	00000104 vTaskPrioritySet
00000604 g     F .text	0000008c xPortStartScheduler
000012ec g     F .text	00000018 vTaskEndScheduler
00002e7c g     F .text	00000074 alt_find_dev
00002940 g     F .text	00000028 memcpy
00001550 g     F .text	00000068 vTaskPlaceOnEventList
0000199c g     F .text	0000027c xTaskGenericCreate
000010a0 g     F .text	00000048 xQueuePeekFromISR
0000071c g     F .text	00000004 vPortFree
00000000 g       *ABS*	00000000 __alt_mem_onchip_memory2_0
00002908 g     F .text	00000008 .hidden __udivsi3
0000177c g     F .text	00000034 uxTaskGetStackHighWaterMark
000002f8 g     F .text	00000030 vListInsertEnd
00001244 g     F .text	000000a8 xTaskResumeFromISR
000002f0 g     F .text	00000008 vListInitialiseItem
000004f8 g     F .text	00000030 vPortSysTickHandler
00001234 g     F .text	00000010 uxTaskPriorityGetFromISR
0000056c g     F .text	00000098 alt_irq_register
00002df0 g     F .text	00000010 altera_avalon_mutex_first_lock
00005580 g       *ABS*	00000000 __bss_end
00000690 g     F .text	0000008c pvPortMalloc
00001160 g     F .text	00000004 vQueueDelete
00000568 g     F .text	00000004 vPortEndScheduler
000002d0 g     F .text	00000020 vListInitialise
00003064 g     O .bss	00000004 alt_irq_active
0000017c g     F .exceptions	00000060 alt_irq_handler
00001314 g     F .text	00000008 xTaskGetTickCount
00000a6c g     F .text	0000017c xQueueGenericSend
00002d00 g     F .text	00000058 altera_avalon_mutex_open
00002e00 g     F .text	00000004 alt_dcache_flush_all
00001894 g     F .text	0000009c xTaskPriorityDisinherit
00002ffc g       *ABS*	00000000 __ram_rwdata_end
0000162c g     F .text	000000a4 xTaskRemoveFromEventList
00002ff0 g     O .rwdata	00000008 alt_mutex_list
00002fd8 g       *ABS*	00000000 __ram_rodata_end
00002fec g     O .rwdata	00000004 jtag_uart_0
00002910 g     F .text	00000008 .hidden __umodsi3
00005580 g       *ABS*	00000000 end
00001c8c g     F .text	000000b0 vTaskDelete
00002310 g     F .text	00000020 pvTaskIncrementMutexHeldCount
00005650 g       *ABS*	00000000 __alt_stack_pointer
00002ccc g     F .text	00000034 altera_avalon_jtag_uart_write
0000226c g     F .text	00000080 xTaskCheckForTimeOut
00002aac g     F .text	0000016c alt_printf
00002330 g     F .text	000000c8 ulTaskNotifyTake
000001dc g     F .text	0000003c _start
00001304 g     F .text	00000010 vTaskSuspendAll
0000131c g     F .text	00000008 xTaskGetTickCountFromISR
00002cb8 g     F .text	00000014 alt_sys_init
0000037c g     F .text	00000038 uxListRemove
00002da8 g     F .text	00000020 altera_avalon_mutex_unlock
000017b8 g     F .text	000000dc vTaskPriorityInherit
00002918 g     F .text	00000028 .hidden __mulsi3
00002fd8 g       *ABS*	00000000 __ram_rwdata_start
00002f48 g       *ABS*	00000000 __ram_rodata_start
00001f54 g     F .text	00000098 vTaskResume
00001488 g     F .text	000000c8 vTaskSwitchContext
000023f8 g     F .text	0000010c xTaskNotifyWait
00002efc g     F .text	00000030 memcmp
00005580 g       *ABS*	00000000 __alt_stack_base
00001e78 g     F .text	000000dc vTaskSuspend
00001324 g     F .text	00000008 uxTaskGetNumberOfTasks
00000000         *UND*	00000000 save_context
00002e04 g     F .text	00000078 alt_dev_llist_insert
00000f90 g     F .text	00000084 xQueueTakeMutexRecursive
00002504 g     F .text	00000110 xTaskGenericNotify
00003020 g       *ABS*	00000000 __bss_start
00002968 g     F .text	00000020 memset
00000480 g     F .text	00000078 main
000002b0 g     F .text	00000020 xAsymGetReq
00003068 g     O .bss	00000004 alt_envp
00000328 g     F .text	00000054 vListInsert
00002d5c g     F .text	00000024 altera_avalon_mutex_lock
00002ff8 g     O .rwdata	00000004 alt_errno
00002110 g     F .text	00000088 vTaskDelayUntil
00001014 g     F .text	0000008c xQueueReceiveFromISR
000017b0 g     F .text	00000008 xTaskGetCurrentTaskHandle
00002858 g     F .text	00000054 .hidden __divsi3
000009ac g     F .text	0000008c xQueueGenericCreate
00000a38 g     F .text	00000034 xQueueCreateCountingSemaphore
00002f48 g       *ABS*	00000000 __flash_rodata_start
00002614 g     F .text	00000118 xTaskGenericNotifyFromISR
00002c98 g     F .text	00000020 alt_irq_init
000016d0 g     F .text	0000008c xTaskRemoveFromUnorderedEventList
00001fec g     F .text	00000124 xTaskResumeAll
00001118 g     F .text	00000040 uxQueueSpacesAvailable
00001c18 g     F .text	00000074 vTaskStartScheduler
00001170 g     F .text	00000010 xQueueIsQueueFullFromISR
00003070 g     O .bss	00000004 alt_argc
00001770 g     F .text	0000000c vTaskMissedYield
000010e8 g     F .text	00000030 uxQueueMessagesWaiting
00000de8 g     F .text	000001a8 xQueueGenericReceive
0000132c g     F .text	0000015c xTaskIncrementTick
00000020 g       *ABS*	00000000 __ram_exceptions_start
000008f4 g     F .text	000000b8 xQueueGenericReset
00002ffc g       *ABS*	00000000 _edata
00005580 g       *ABS*	00000000 _end
000001dc g       *ABS*	00000000 __ram_exceptions_end
00000720 g     F .text	00000008 vPortInitialiseBlocks
00002ef4 g     F .text	00000008 altera_nios2_qsys_irq_init
000028ac g     F .text	0000005c .hidden __modsi3
00002198 g     F .text	00000058 vTaskDelay
00005650 g       *ABS*	00000000 __alt_data_end
00010000 g       *ABS*	00000000 __alt_mem_memory_buff
0000000c g       .entry	00000000 _exit
00001960 g     F .text	0000003c vTaskExitCritical
00002f2c g     F .text	0000001c strlen
00000528 g     F .text	00000040 pxPortInitialiseStack
00002c18 g     F .text	00000048 alt_putchar
00002ef0 g     F .text	00000004 alt_icache_flush_all
0000175c g     F .text	00000014 vTaskSetTimeOutState
00002fe8 g     O .rwdata	00000004 alt_priority_mask
00000270 g     F .text	00000040 xAsymSendReq
00002d58 g     F .text	00000004 altera_avalon_mutex_close
00001158 g     F .text	00000008 uxQueueMessagesWaitingFromISR
00001164 g     F .text	0000000c xQueueIsQueueEmptyFromISR
00000218 g     F .text	00000040 xAsymMutexInit
000022ec g     F .text	00000024 uxTaskResetEventItemValue
00000be8 g     F .text	00000080 xQueueCreateMutex
0000272c g     F .text	000000c0 vTaskNotifyGiveFromISR
00002988 g     F .text	000000f8 alt_load
00000d58 g     F .text	00000090 xQueueGiveFromISR



Disassembly of section .entry:

00000000 <__reset>:
 * Jump to the _start entry point in the .text section if reset code
 * is allowed or if optimizing for RTL simulation.
 */
#if defined(ALT_ALLOW_CODE_AT_RESET) || defined(ALT_SIM_OPTIMIZE)
    /* Jump to the _start entry point in the .text section. */
    movhi r1, %hi(_start)
   0:	00400034 	movhi	at,0
    ori r1, r1, %lo(_start)
   4:	08407714 	ori	at,at,476
    jmp r1
   8:	0800683a 	jmp	at

0000000c <_exit>:
	...

Disassembly of section .exceptions:

00000020 <save_context>:
# Entry point for exceptions.
.section .exceptions.entry, "xa"

# Save the entire context of a task.
save_context:
	addi	ea, ea, -4			# Point to the next instruction.
  20:	ef7fff04 	addi	ea,ea,-4
	addi	sp,	sp, -116		# Create space on the stack.
  24:	deffe304 	addi	sp,sp,-116
	stw		ra, 0(sp)
  28:	dfc00015 	stw	ra,0(sp)
								# Leave a gap for muldiv 0
	stw		at, 8(sp)
  2c:	d8400215 	stw	at,8(sp)
	stw		r2, 12(sp)
  30:	d8800315 	stw	r2,12(sp)
	stw		r3, 16(sp)
  34:	d8c00415 	stw	r3,16(sp)
	stw		r4, 20(sp)
  38:	d9000515 	stw	r4,20(sp)
	stw		r5, 24(sp)
  3c:	d9400615 	stw	r5,24(sp)
	stw		r6, 28(sp)
  40:	d9800715 	stw	r6,28(sp)
	stw		r7, 32(sp)
  44:	d9c00815 	stw	r7,32(sp)
	stw		r8, 36(sp)
  48:	da000915 	stw	r8,36(sp)
	stw		r9, 40(sp)
  4c:	da400a15 	stw	r9,40(sp)
	stw		r10, 44(sp)
  50:	da800b15 	stw	r10,44(sp)
	stw		r11, 48(sp)
  54:	dac00c15 	stw	r11,48(sp)
	stw		r12, 52(sp)
  58:	db000d15 	stw	r12,52(sp)
	stw		r13, 56(sp)
  5c:	db400e15 	stw	r13,56(sp)
	stw		r14, 60(sp)
  60:	db800f15 	stw	r14,60(sp)
	stw		r15, 64(sp)
  64:	dbc01015 	stw	r15,64(sp)
	rdctl	r5, estatus 		# Save the eStatus
  68:	000b307a 	rdctl	r5,estatus
	stw		r5, 68(sp)
  6c:	d9401115 	stw	r5,68(sp)
	stw		ea, 72(sp)			# Save the PC
  70:	df401215 	stw	ea,72(sp)
	stw		r16, 76(sp)			# Save the remaining registers
  74:	dc001315 	stw	r16,76(sp)
	stw		r17, 80(sp)
  78:	dc401415 	stw	r17,80(sp)
	stw		r18, 84(sp)
  7c:	dc801515 	stw	r18,84(sp)
	stw		r19, 88(sp)
  80:	dcc01615 	stw	r19,88(sp)
	stw		r20, 92(sp)
  84:	dd001715 	stw	r20,92(sp)
	stw		r21, 96(sp)
  88:	dd401815 	stw	r21,96(sp)
	stw		r22, 100(sp)
  8c:	dd801915 	stw	r22,100(sp)
	stw		r23, 104(sp)
  90:	ddc01a15 	stw	r23,104(sp)
	stw		gp, 108(sp)
  94:	de801b15 	stw	gp,108(sp)
	stw		fp, 112(sp)
  98:	df001c15 	stw	fp,112(sp)

0000009c <save_sp_to_pxCurrentTCB>:
  9c:	06000034 	movhi	et,0

save_sp_to_pxCurrentTCB:
	movia	et, pxCurrentTCB	# Load the address of the pxCurrentTCB pointer
  a0:	c60c1804 	addi	et,et,12384
	ldw		et, (et)			# Load the value of the pxCurrentTCB pointer
  a4:	c6000017 	ldw	et,0(et)
	stw		sp, (et)			# Store the stack pointer into the top of the TCB
  a8:	c6c00015 	stw	sp,0(et)

000000ac <hw_irq_test>:
hw_irq_test:
	/*
     * Test to see if the exception was a software exception or caused
     * by an external interrupt, and vector accordingly.
     */
    rdctl	r4, ipending		# Load the Pending Interrupts indication
  ac:	0009313a 	rdctl	r4,ipending
	rdctl	r5, estatus 		# Load the eStatus (enabled interrupts).
  b0:	000b307a 	rdctl	r5,estatus
    andi	r2, r5, 1			# Are interrupts enabled globally.
  b4:	2880004c 	andi	r2,r5,1
    beq		r2, zero, soft_exceptions		# Interrupts are not enabled.
  b8:	10002526 	beq	r2,zero,150 <soft_exceptions>
    beq		r4, zero, soft_exceptions		# There are no interrupts triggered.
  bc:	20002426 	beq	r4,zero,150 <soft_exceptions>

000000c0 <hw_irq_handler>:

	.section .exceptions.irqhandler, "xa"
hw_irq_handler:
	call	alt_irq_handler					# Call the alt_irq_handler to deliver to the registered interrupt handler.
  c0:	000017c0 	call	17c <alt_irq_handler>

000000c4 <restore_sp_from_pxCurrentTCB>:
  c4:	06000034 	movhi	et,0

    .section .exceptions.irqreturn, "xa"
restore_sp_from_pxCurrentTCB:
	movia	et, pxCurrentTCB		# Load the address of the pxCurrentTCB pointer
  c8:	c60c1804 	addi	et,et,12384
	ldw		et, (et)				# Load the value of the pxCurrentTCB pointer
  cc:	c6000017 	ldw	et,0(et)
	ldw		sp, (et)				# Load the stack pointer with the top value of the TCB
  d0:	c6c00017 	ldw	sp,0(et)

000000d4 <restore_context>:

restore_context:
	ldw		ra, 0(sp)		# Restore the registers.
  d4:	dfc00017 	ldw	ra,0(sp)
							# Leave a gap for muldiv 0.
	ldw		at, 8(sp)
  d8:	d8400217 	ldw	at,8(sp)
	ldw		r2, 12(sp)
  dc:	d8800317 	ldw	r2,12(sp)
	ldw		r3, 16(sp)
  e0:	d8c00417 	ldw	r3,16(sp)
	ldw		r4, 20(sp)
  e4:	d9000517 	ldw	r4,20(sp)
	ldw		r5, 24(sp)
  e8:	d9400617 	ldw	r5,24(sp)
	ldw		r6, 28(sp)
  ec:	d9800717 	ldw	r6,28(sp)
	ldw		r7, 32(sp)
  f0:	d9c00817 	ldw	r7,32(sp)
	ldw		r8, 36(sp)
  f4:	da000917 	ldw	r8,36(sp)
	ldw		r9, 40(sp)
  f8:	da400a17 	ldw	r9,40(sp)
	ldw		r10, 44(sp)
  fc:	da800b17 	ldw	r10,44(sp)
	ldw		r11, 48(sp)
 100:	dac00c17 	ldw	r11,48(sp)
	ldw		r12, 52(sp)
 104:	db000d17 	ldw	r12,52(sp)
	ldw		r13, 56(sp)
 108:	db400e17 	ldw	r13,56(sp)
	ldw		r14, 60(sp)
 10c:	db800f17 	ldw	r14,60(sp)
	ldw		r15, 64(sp)
 110:	dbc01017 	ldw	r15,64(sp)
	ldw		et, 68(sp)		# Load the eStatus
 114:	de001117 	ldw	et,68(sp)
	wrctl	estatus, et 	# Write the eStatus
 118:	c001707a 	wrctl	estatus,et
	ldw		ea, 72(sp)		# Load the Program Counter
 11c:	df401217 	ldw	ea,72(sp)
	ldw		r16, 76(sp)
 120:	dc001317 	ldw	r16,76(sp)
	ldw		r17, 80(sp)
 124:	dc401417 	ldw	r17,80(sp)
	ldw		r18, 84(sp)
 128:	dc801517 	ldw	r18,84(sp)
	ldw		r19, 88(sp)
 12c:	dcc01617 	ldw	r19,88(sp)
	ldw		r20, 92(sp)
 130:	dd001717 	ldw	r20,92(sp)
	ldw		r21, 96(sp)
 134:	dd401817 	ldw	r21,96(sp)
	ldw		r22, 100(sp)
 138:	dd801917 	ldw	r22,100(sp)
	ldw		r23, 104(sp)
 13c:	ddc01a17 	ldw	r23,104(sp)
	ldw		gp, 108(sp)
 140:	de801b17 	ldw	gp,108(sp)
	ldw		fp, 112(sp)
 144:	df001c17 	ldw	fp,112(sp)
	addi	sp,	sp, 116		# Release stack space
 148:	dec01d04 	addi	sp,sp,116

    eret					# Return to address ea, loading eStatus into Status.
 14c:	ef80083a 	eret

00000150 <soft_exceptions>:

	.section .exceptions.soft, "xa"
soft_exceptions:
	ldw		et, 0(ea)				# Load the instruction where the interrupt occured.
 150:	ee000017 	ldw	et,0(ea)
	movhi	at, %hi(0x003B683A)		# Load the registers with the trap instruction code
 154:	00400ef4 	movhi	at,59
	ori		at, at, %lo(0x003B683A)
 158:	085a0e94 	ori	at,at,26682
   	cmpne	et, et, at				# Compare the trap instruction code to the last excuted instruction
 15c:	c070c03a 	cmpne	et,et,at
  	beq		et, r0, call_scheduler	# its a trap so switchcontext
 160:	c0000226 	beq	et,zero,16c <call_scheduler>
  	break							# This is an un-implemented instruction or muldiv problem.
 164:	003da03a 	break	0
  	br		restore_context			# its something else
 168:	003fda06 	br	d4 <restore_context>

0000016c <call_scheduler>:

call_scheduler:
	addi	ea, ea, 4						# A trap was called, increment the program counter so it is not called again.
 16c:	ef400104 	addi	ea,ea,4
	stw		ea, 72(sp)						# Save the new program counter to the context.
 170:	df401215 	stw	ea,72(sp)
	call	vTaskSwitchContext				# Pick the next context.
 174:	00014880 	call	1488 <vTaskSwitchContext>
	br		restore_sp_from_pxCurrentTCB	# Switch in the task context and restore.
 178:	003fd206 	br	c4 <restore_sp_from_pxCurrentTCB>

0000017c <alt_irq_handler>:
 * instruction is present if the macro ALT_CI_INTERRUPT_VECTOR defined.
 */

void alt_irq_handler (void) __attribute__ ((section (".exceptions")));
void alt_irq_handler (void)
{
 17c:	defffe04 	addi	sp,sp,-8
 180:	dfc00115 	stw	ra,4(sp)
 184:	dc000015 	stw	r16,0(sp)
#ifndef NIOS2_EIC_PRESENT
static ALT_INLINE alt_u32 ALT_ALWAYS_INLINE alt_irq_pending (void)
{
  alt_u32 active;

  NIOS2_READ_IPENDING (active);
 188:	0007313a 	rdctl	r3,ipending
      if (active & mask)
      { 
#ifdef ALT_ENHANCED_INTERRUPT_API_PRESENT
        alt_irq[i].handler(alt_irq[i].context); 
#else
        alt_irq[i].handler(alt_irq[i].context, i); 
 18c:	04000034 	movhi	r16,0
 190:	84152004 	addi	r16,r16,21632

  active = alt_irq_pending ();

  do
  {
    i = 0;
 194:	000b883a 	mov	r5,zero
    mask = 1;
 198:	00800044 	movi	r2,1
     * called to clear the interrupt condition.
     */

    do
    {
      if (active & mask)
 19c:	10c8703a 	and	r4,r2,r3
 1a0:	20000b26 	beq	r4,zero,1d0 <alt_irq_handler+0x54>
      { 
#ifdef ALT_ENHANCED_INTERRUPT_API_PRESENT
        alt_irq[i].handler(alt_irq[i].context); 
#else
        alt_irq[i].handler(alt_irq[i].context, i); 
 1a4:	280490fa 	slli	r2,r5,3
 1a8:	8085883a 	add	r2,r16,r2
 1ac:	10c00017 	ldw	r3,0(r2)
 1b0:	11000117 	ldw	r4,4(r2)
 1b4:	183ee83a 	callr	r3
 1b8:	0007313a 	rdctl	r3,ipending

    } while (1);

    active = alt_irq_pending ();
    
  } while (active);
 1bc:	183ff51e 	bne	r3,zero,194 <alt_irq_handler+0x18>
  /*
   * Notify the operating system that interrupt processing is complete.
   */ 

  ALT_OS_INT_EXIT();
}
 1c0:	dfc00117 	ldw	ra,4(sp)
 1c4:	dc000017 	ldw	r16,0(sp)
 1c8:	dec00204 	addi	sp,sp,8
 1cc:	f800283a 	ret
#else
        alt_irq[i].handler(alt_irq[i].context, i); 
#endif
        break;
      }
      mask <<= 1;
 1d0:	1085883a 	add	r2,r2,r2
      i++;
 1d4:	29400044 	addi	r5,r5,1

    } while (1);
 1d8:	003ff006 	br	19c <alt_irq_handler+0x20>

Disassembly of section .text:

000001dc <_start>:

    /*
     * Now that the caches are initialized, set up the stack pointer and global pointer.
     * The values provided by the linker are assumed to be correctly aligned.
     */
    movhi sp, %hi(__alt_stack_pointer)
     1dc:	06c00034 	movhi	sp,0
    ori sp, sp, %lo(__alt_stack_pointer)
     1e0:	ded59414 	ori	sp,sp,22096
    movhi gp, %hi(_gp)
     1e4:	06800034 	movhi	gp,0
    ori gp, gp, %lo(_gp)
     1e8:	d6abfa14 	ori	gp,gp,45032
 */
#ifndef ALT_SIM_OPTIMIZE
    /* Log that the BSS is about to be cleared. */
    ALT_LOG_PUTS(alt_log_msg_bss)

    movhi r2, %hi(__bss_start)
     1ec:	00800034 	movhi	r2,0
    ori r2, r2, %lo(__bss_start)
     1f0:	108c0814 	ori	r2,r2,12320

    movhi r3, %hi(__bss_end)
     1f4:	00c00034 	movhi	r3,0
    ori r3, r3, %lo(__bss_end)
     1f8:	18d56014 	ori	r3,r3,21888

    beq r2, r3, 1f
     1fc:	10c00326 	beq	r2,r3,20c <_start+0x30>

0:
    stw zero, (r2)
     200:	10000015 	stw	zero,0(r2)
    addi r2, r2, 4
     204:	10800104 	addi	r2,r2,4
    bltu r2, r3, 0b
     208:	10fffd36 	bltu	r2,r3,200 <_start+0x24>
     * section aren't defined until alt_load() has been called).
     */
    mov   et, zero
#endif

    call alt_load
     20c:	00029880 	call	2988 <alt_load>

    /* Log that alt_main is about to be called. */
    ALT_LOG_PUTS(alt_log_msg_alt_main)

    /* Call the C entry point. It should never return. */
    call alt_main
     210:	0002a800 	call	2a80 <alt_main>

00000214 <alt_after_alt_main>:

    /* Wait in infinite loop in case alt_main does return. */
alt_after_alt_main:
    br alt_after_alt_main
     214:	003fff06 	br	214 <alt_after_alt_main>

00000218 <xAsymMutexInit>:
 * Initiate the Mutex
 */

bool_t xAsymMutexInit(){

	if(!altera_avalon_mutex_open(MUTEX_0_NAME)) {
     218:	01000034 	movhi	r4,0

/**
 * Initiate the Mutex
 */

bool_t xAsymMutexInit(){
     21c:	deffff04 	addi	sp,sp,-4

	if(!altera_avalon_mutex_open(MUTEX_0_NAME)) {
     220:	210bd204 	addi	r4,r4,12104

/**
 * Initiate the Mutex
 */

bool_t xAsymMutexInit(){
     224:	dfc00015 	stw	ra,0(sp)

	if(!altera_avalon_mutex_open(MUTEX_0_NAME)) {
     228:	0002d000 	call	2d00 <altera_avalon_mutex_open>
     22c:	10000626 	beq	r2,zero,248 <xAsymMutexInit+0x30>
		/* Failed to instantiate mutex */
		return xFalse;
	  }

	 mutex = altera_avalon_mutex_open(MUTEX_0_NAME);
     230:	01000034 	movhi	r4,0
     234:	210bd204 	addi	r4,r4,12104
     238:	0002d000 	call	2d00 <altera_avalon_mutex_open>
     23c:	d0a00e15 	stw	r2,-32712(gp)
	 return xTrue;
     240:	00800044 	movi	r2,1
     244:	00000106 	br	24c <xAsymMutexInit+0x34>

bool_t xAsymMutexInit(){

	if(!altera_avalon_mutex_open(MUTEX_0_NAME)) {
		/* Failed to instantiate mutex */
		return xFalse;
     248:	0005883a 	mov	r2,zero
	  }

	 mutex = altera_avalon_mutex_open(MUTEX_0_NAME);
	 return xTrue;
}
     24c:	dfc00017 	ldw	ra,0(sp)
     250:	dec00104 	addi	sp,sp,4
     254:	f800283a 	ret

00000258 <xAsymReqQueuInit>:

bool_t xAsymReqQueuInit(){
	xReqQueue->uxNumberOfItems = 0;
     258:	00800074 	movhi	r2,1
     25c:	10000005 	stb	zero,0(r2)
	xReqQueue->xToAdd = 0;
     260:	10000845 	stb	zero,33(r2)
	xReqQueue->xToServe = 0;
     264:	10000885 	stb	zero,34(r2)
	return xTrue;
}
     268:	00800044 	movi	r2,1
     26c:	f800283a 	ret

00000270 <xAsymSendReq>:

bool_t xAsymSendReq( int8_t xReqValue ){
	/* TODO: add mutex */
	xReqQueue->pxItems[ xReqQueue->xToAdd ].xItemValue = xReqValue;
     270:	00c00074 	movhi	r3,1
     274:	19400843 	ldbu	r5,33(r3)
     278:	28803fcc 	andi	r2,r5,255
     27c:	1080201c 	xori	r2,r2,128
     280:	10bfe004 	addi	r2,r2,-128
     284:	1085883a 	add	r2,r2,r2
     288:	10c5883a 	add	r2,r2,r3
     28c:	11000045 	stb	r4,1(r2)
	xReqQueue->pxItems[ xReqQueue->xToAdd ].xServed = 0;
     290:	10000085 	stb	zero,2(r2)
	xReqQueue->xToAdd++;
	xReqQueue->uxNumberOfItems++;
     294:	18800003 	ldbu	r2,0(r3)

bool_t xAsymSendReq( int8_t xReqValue ){
	/* TODO: add mutex */
	xReqQueue->pxItems[ xReqQueue->xToAdd ].xItemValue = xReqValue;
	xReqQueue->pxItems[ xReqQueue->xToAdd ].xServed = 0;
	xReqQueue->xToAdd++;
     298:	29400044 	addi	r5,r5,1
     29c:	19400845 	stb	r5,33(r3)
	xReqQueue->uxNumberOfItems++;
     2a0:	10800044 	addi	r2,r2,1
     2a4:	18800005 	stb	r2,0(r3)
	return xTrue;
}
     2a8:	00800044 	movi	r2,1
     2ac:	f800283a 	ret

000002b0 <xAsymGetReq>:

int8_t xAsymGetReq( int8_t xIndex ) {
	return (int8_t) ( xReqQueue->pxItems[ xIndex ].xItemValue );
     2b0:	21003fcc 	andi	r4,r4,255
     2b4:	2100201c 	xori	r4,r4,128
     2b8:	213fe004 	addi	r4,r4,-128
     2bc:	00800074 	movhi	r2,1
     2c0:	2109883a 	add	r4,r4,r4
     2c4:	1109883a 	add	r4,r2,r4
}
     2c8:	20800043 	ldbu	r2,1(r4)
     2cc:	f800283a 	ret

000002d0 <vListInitialise>:
void vListInitialise( List_t * const pxList )
{
	/* The list structure contains a list item which is used to mark the
	end of the list.  To initialise the list the list end is inserted
	as the only list entry. */
	pxList->pxIndex = ( ListItem_t * ) &( pxList->xListEnd );			/*lint !e826 !e740 The mini list structure is used as the list end to save RAM.  This is checked and valid. */
     2d0:	20800204 	addi	r2,r4,8

	/* The list end value is the highest possible value in the list to
	ensure it remains at the end of the list. */
	pxList->xListEnd.xItemValue = portMAX_DELAY;
     2d4:	00ffffc4 	movi	r3,-1
void vListInitialise( List_t * const pxList )
{
	/* The list structure contains a list item which is used to mark the
	end of the list.  To initialise the list the list end is inserted
	as the only list entry. */
	pxList->pxIndex = ( ListItem_t * ) &( pxList->xListEnd );			/*lint !e826 !e740 The mini list structure is used as the list end to save RAM.  This is checked and valid. */
     2d8:	20800115 	stw	r2,4(r4)

	/* The list end value is the highest possible value in the list to
	ensure it remains at the end of the list. */
	pxList->xListEnd.xItemValue = portMAX_DELAY;
     2dc:	20c00215 	stw	r3,8(r4)

	/* The list end next and previous pointers point to itself so we know
	when the list is empty. */
	pxList->xListEnd.pxNext = ( ListItem_t * ) &( pxList->xListEnd );	/*lint !e826 !e740 The mini list structure is used as the list end to save RAM.  This is checked and valid. */
     2e0:	20800315 	stw	r2,12(r4)
	pxList->xListEnd.pxPrevious = ( ListItem_t * ) &( pxList->xListEnd );/*lint !e826 !e740 The mini list structure is used as the list end to save RAM.  This is checked and valid. */
     2e4:	20800415 	stw	r2,16(r4)

	pxList->uxNumberOfItems = ( UBaseType_t ) 0U;
     2e8:	20000015 	stw	zero,0(r4)
     2ec:	f800283a 	ret

000002f0 <vListInitialiseItem>:
/*-----------------------------------------------------------*/

void vListInitialiseItem( ListItem_t * const pxItem )
{
	/* Make sure the list item is not recorded as being on a list. */
	pxItem->pvContainer = NULL;
     2f0:	20000415 	stw	zero,16(r4)
     2f4:	f800283a 	ret

000002f8 <vListInsertEnd>:
}
/*-----------------------------------------------------------*/

void vListInsertEnd( List_t * const pxList, ListItem_t * const pxNewListItem )
{
ListItem_t * const pxIndex = pxList->pxIndex;
     2f8:	20800117 	ldw	r2,4(r4)

	/* Insert a new list item into pxList, but rather than sort the list,
	makes the new list item the last item to be removed by a call to
	listGET_OWNER_OF_NEXT_ENTRY(). */
	pxNewListItem->pxNext = pxIndex;
	pxNewListItem->pxPrevious = pxIndex->pxPrevious;
     2fc:	10c00217 	ldw	r3,8(r2)
	listTEST_LIST_ITEM_INTEGRITY( pxNewListItem );

	/* Insert a new list item into pxList, but rather than sort the list,
	makes the new list item the last item to be removed by a call to
	listGET_OWNER_OF_NEXT_ENTRY(). */
	pxNewListItem->pxNext = pxIndex;
     300:	28800115 	stw	r2,4(r5)
	pxNewListItem->pxPrevious = pxIndex->pxPrevious;
     304:	28c00215 	stw	r3,8(r5)

	/* Only used during decision coverage testing. */
	mtCOVERAGE_TEST_DELAY();

	pxIndex->pxPrevious->pxNext = pxNewListItem;
     308:	10c00217 	ldw	r3,8(r2)
     30c:	19400115 	stw	r5,4(r3)
	pxIndex->pxPrevious = pxNewListItem;
     310:	11400215 	stw	r5,8(r2)

	/* Remember which list the item is in. */
	pxNewListItem->pvContainer = ( void * ) pxList;

	( pxList->uxNumberOfItems )++;
     314:	20800017 	ldw	r2,0(r4)

	pxIndex->pxPrevious->pxNext = pxNewListItem;
	pxIndex->pxPrevious = pxNewListItem;

	/* Remember which list the item is in. */
	pxNewListItem->pvContainer = ( void * ) pxList;
     318:	29000415 	stw	r4,16(r5)

	( pxList->uxNumberOfItems )++;
     31c:	10800044 	addi	r2,r2,1
     320:	20800015 	stw	r2,0(r4)
     324:	f800283a 	ret

00000328 <vListInsert>:
/*-----------------------------------------------------------*/

void vListInsert( List_t * const pxList, ListItem_t * const pxNewListItem )
{
ListItem_t *pxIterator;
const TickType_t xValueOfInsertion = pxNewListItem->xItemValue;
     328:	28c00017 	ldw	r3,0(r5)
	new list item should be placed after it.  This ensures that TCB's which are
	stored in ready lists (all of which have the same xItemValue value) get a
	share of the CPU.  However, if the xItemValue is the same as the back marker
	the iteration loop below will not end.  Therefore the value is checked
	first, and the algorithm slightly modified if necessary. */
	if( xValueOfInsertion == portMAX_DELAY )
     32c:	00bfffc4 	movi	r2,-1
     330:	1880021e 	bne	r3,r2,33c <vListInsert+0x14>
	{
		pxIterator = pxList->xListEnd.pxPrevious;
     334:	20800417 	ldw	r2,16(r4)
     338:	00000606 	br	354 <vListInsert+0x2c>
			4) Using a queue or semaphore before it has been initialised or
			   before the scheduler has been started (are interrupts firing
			   before vTaskStartScheduler() has been called?).
		**********************************************************************/

		for( pxIterator = ( ListItem_t * ) &( pxList->xListEnd ); pxIterator->pxNext->xItemValue <= xValueOfInsertion; pxIterator = pxIterator->pxNext ) /*lint !e826 !e740 The mini list structure is used as the list end to save RAM.  This is checked and valid. */
     33c:	20800204 	addi	r2,r4,8
     340:	11800117 	ldw	r6,4(r2)
     344:	31c00017 	ldw	r7,0(r6)
     348:	19c00236 	bltu	r3,r7,354 <vListInsert+0x2c>
     34c:	3005883a 	mov	r2,r6
     350:	003ffb06 	br	340 <vListInsert+0x18>
			/* There is nothing to do here, just iterating to the wanted
			insertion position. */
		}
	}

	pxNewListItem->pxNext = pxIterator->pxNext;
     354:	10c00117 	ldw	r3,4(r2)
     358:	28c00115 	stw	r3,4(r5)
	pxNewListItem->pxNext->pxPrevious = pxNewListItem;
     35c:	19400215 	stw	r5,8(r3)
	pxNewListItem->pxPrevious = pxIterator;
     360:	28800215 	stw	r2,8(r5)
	pxIterator->pxNext = pxNewListItem;
     364:	11400115 	stw	r5,4(r2)

	/* Remember which list the item is in.  This allows fast removal of the
	item later. */
	pxNewListItem->pvContainer = ( void * ) pxList;

	( pxList->uxNumberOfItems )++;
     368:	20800017 	ldw	r2,0(r4)
	pxNewListItem->pxPrevious = pxIterator;
	pxIterator->pxNext = pxNewListItem;

	/* Remember which list the item is in.  This allows fast removal of the
	item later. */
	pxNewListItem->pvContainer = ( void * ) pxList;
     36c:	29000415 	stw	r4,16(r5)

	( pxList->uxNumberOfItems )++;
     370:	10800044 	addi	r2,r2,1
     374:	20800015 	stw	r2,0(r4)
     378:	f800283a 	ret

0000037c <uxListRemove>:
{
/* The list item knows which list it is in.  Obtain the list from the list
item. */
List_t * const pxList = ( List_t * ) pxItemToRemove->pvContainer;

	pxItemToRemove->pxNext->pxPrevious = pxItemToRemove->pxPrevious;
     37c:	21400117 	ldw	r5,4(r4)
     380:	20800217 	ldw	r2,8(r4)

UBaseType_t uxListRemove( ListItem_t * const pxItemToRemove )
{
/* The list item knows which list it is in.  Obtain the list from the list
item. */
List_t * const pxList = ( List_t * ) pxItemToRemove->pvContainer;
     384:	20c00417 	ldw	r3,16(r4)

	pxItemToRemove->pxNext->pxPrevious = pxItemToRemove->pxPrevious;
     388:	28800215 	stw	r2,8(r5)
	pxItemToRemove->pxPrevious->pxNext = pxItemToRemove->pxNext;
     38c:	20800217 	ldw	r2,8(r4)
     390:	11400115 	stw	r5,4(r2)

	/* Only used during decision coverage testing. */
	mtCOVERAGE_TEST_DELAY();

	/* Make sure the index is left pointing to a valid item. */
	if( pxList->pxIndex == pxItemToRemove )
     394:	19400117 	ldw	r5,4(r3)
     398:	2900011e 	bne	r5,r4,3a0 <uxListRemove+0x24>
	{
		pxList->pxIndex = pxItemToRemove->pxPrevious;
     39c:	18800115 	stw	r2,4(r3)
	{
		mtCOVERAGE_TEST_MARKER();
	}

	pxItemToRemove->pvContainer = NULL;
	( pxList->uxNumberOfItems )--;
     3a0:	18800017 	ldw	r2,0(r3)
	else
	{
		mtCOVERAGE_TEST_MARKER();
	}

	pxItemToRemove->pvContainer = NULL;
     3a4:	20000415 	stw	zero,16(r4)
	( pxList->uxNumberOfItems )--;
     3a8:	10bfffc4 	addi	r2,r2,-1
     3ac:	18800015 	stw	r2,0(r3)

	return pxList->uxNumberOfItems;
}
     3b0:	f800283a 	ret

000003b4 <masterTask>:
#include "asym.h"

void masterTask( void *p){
	int i = 0;

	alt_printf("I am in\n" );
     3b4:	01000034 	movhi	r4,0
#include "task.h"

// Asym
#include "asym.h"

void masterTask( void *p){
     3b8:	defffc04 	addi	sp,sp,-16
	int i = 0;

	alt_printf("I am in\n" );
     3bc:	210bd604 	addi	r4,r4,12120
#include "task.h"

// Asym
#include "asym.h"

void masterTask( void *p){
     3c0:	dc800215 	stw	r18,8(sp)
     3c4:	dc000015 	stw	r16,0(sp)
     3c8:	dfc00315 	stw	ra,12(sp)
     3cc:	dc400115 	stw	r17,4(sp)
	int i = 0;

	alt_printf("I am in\n" );
     3d0:	04000044 	movi	r16,1
     3d4:	0002aac0 	call	2aac <alt_printf>
	while(i < 5){
     3d8:	04800184 	movi	r18,6
		xAsymSendReq(  1+ i + i /3 * (i + 3) );
     3dc:	813fffc4 	addi	r4,r16,-1
     3e0:	014000c4 	movi	r5,3
     3e4:	00028580 	call	2858 <__divsi3>
     3e8:	81400084 	addi	r5,r16,2
     3ec:	1009883a 	mov	r4,r2
     3f0:	00029180 	call	2918 <__mulsi3>
     3f4:	8085883a 	add	r2,r16,r2
     3f8:	11003fcc 	andi	r4,r2,255
     3fc:	00002700 	call	270 <xAsymSendReq>
		i++;
		alt_printf("Stored: %x in index %x\n", 1+ i + i /3 * (i + 3), i );
     400:	8009883a 	mov	r4,r16
     404:	014000c4 	movi	r5,3
     408:	00028580 	call	2858 <__divsi3>
     40c:	814000c4 	addi	r5,r16,3
     410:	1009883a 	mov	r4,r2
     414:	00029180 	call	2918 <__mulsi3>
     418:	84400044 	addi	r17,r16,1
     41c:	01000034 	movhi	r4,0
     420:	800d883a 	mov	r6,r16
     424:	210bd904 	addi	r4,r4,12132
     428:	888b883a 	add	r5,r17,r2
     42c:	0002aac0 	call	2aac <alt_printf>
		vTaskDelay(1000);
     430:	0100fa04 	movi	r4,1000
     434:	00021980 	call	2198 <vTaskDelay>
     438:	8821883a 	mov	r16,r17

void masterTask( void *p){
	int i = 0;

	alt_printf("I am in\n" );
	while(i < 5){
     43c:	8cbfe71e 	bne	r17,r18,3dc <masterTask+0x28>
     440:	0021883a 	mov	r16,zero
		i++;
		alt_printf("Stored: %x in index %x\n", 1+ i + i /3 * (i + 3), i );
		vTaskDelay(1000);
	}
	i = 0;
	while(i < 5){
     444:	04400144 	movi	r17,5
		alt_printf("Got: %x in index %x\n", xAsymGetReq( i ), i );
     448:	8009883a 	mov	r4,r16
     44c:	00002b00 	call	2b0 <xAsymGetReq>
     450:	11403fcc 	andi	r5,r2,255
     454:	01000034 	movhi	r4,0
     458:	2940201c 	xori	r5,r5,128
     45c:	210bdf04 	addi	r4,r4,12156
     460:	800d883a 	mov	r6,r16
     464:	297fe004 	addi	r5,r5,-128
     468:	0002aac0 	call	2aac <alt_printf>
		i++;
     46c:	84000044 	addi	r16,r16,1
		vTaskDelay(1000);
     470:	0100fa04 	movi	r4,1000
     474:	00021980 	call	2198 <vTaskDelay>
		i++;
		alt_printf("Stored: %x in index %x\n", 1+ i + i /3 * (i + 3), i );
		vTaskDelay(1000);
	}
	i = 0;
	while(i < 5){
     478:	847ff31e 	bne	r16,r17,448 <masterTask+0x94>
		alt_printf("Got: %x in index %x\n", xAsymGetReq( i ), i );
		i++;
		vTaskDelay(1000);

	}
	while(1);/* */
     47c:	003fff06 	br	47c <masterTask+0xc8>

00000480 <main>:
}

int main()
{
     480:	defffb04 	addi	sp,sp,-20
     484:	dfc00415 	stw	ra,16(sp)

	xAsymMutexInit();
     488:	00002180 	call	218 <xAsymMutexInit>
	xAsymReqQueuInit();
     48c:	00002580 	call	258 <xAsymReqQueuInit>
	alt_putstr("Things initiated!\n");
     490:	01000034 	movhi	r4,0
     494:	210be504 	addi	r4,r4,12180
     498:	0002c600 	call	2c60 <alt_putstr>


	 xTaskCreate(masterTask, "masterTask", 512, NULL, 2, NULL);
     49c:	00800084 	movi	r2,2
     4a0:	01000034 	movhi	r4,0
     4a4:	01400034 	movhi	r5,0
     4a8:	294bea04 	addi	r5,r5,12200
     4ac:	01808004 	movi	r6,512
     4b0:	000f883a 	mov	r7,zero
     4b4:	d8800015 	stw	r2,0(sp)
     4b8:	d8000115 	stw	zero,4(sp)
     4bc:	d8000215 	stw	zero,8(sp)
     4c0:	d8000315 	stw	zero,12(sp)
     4c4:	2100ed04 	addi	r4,r4,948
     4c8:	000199c0 	call	199c <xTaskGenericCreate>

	alt_putstr("Starting scheduler\n");
     4cc:	01000034 	movhi	r4,0
     4d0:	210bed04 	addi	r4,r4,12212
     4d4:	0002c600 	call	2c60 <alt_putstr>

	 vTaskStartScheduler();
     4d8:	0001c180 	call	1c18 <vTaskStartScheduler>
	alt_putstr("OOPs!\n");
     4dc:	01000034 	movhi	r4,0
     4e0:	210bf204 	addi	r4,r4,12232
     4e4:	0002c600 	call	2c60 <alt_putstr>



	return 0;
}
     4e8:	0005883a 	mov	r2,zero
     4ec:	dfc00417 	ldw	ra,16(sp)
     4f0:	dec00504 	addi	sp,sp,20
     4f4:	f800283a 	ret

000004f8 <vPortSysTickHandler>:
	IOWR_ALTERA_AVALON_TIMER_STATUS( TIMER_0_BASE, ~ALTERA_AVALON_TIMER_STATUS_TO_MSK );
}
/*-----------------------------------------------------------*/

void vPortSysTickHandler( void * context, alt_u32 id )
{
     4f8:	deffff04 	addi	sp,sp,-4
     4fc:	dfc00015 	stw	ra,0(sp)
	/* Increment the kernel tick. */
	if( xTaskIncrementTick() != pdFALSE )
     500:	000132c0 	call	132c <xTaskIncrementTick>
     504:	10000126 	beq	r2,zero,50c <vPortSysTickHandler+0x14>
	{
        vTaskSwitchContext();
     508:	00014880 	call	1488 <vTaskSwitchContext>
	}

	/* Clear the interrupt. */
	IOWR_ALTERA_AVALON_TIMER_STATUS( TIMER_0_BASE, ~ALTERA_AVALON_TIMER_STATUS_TO_MSK );
     50c:	00800074 	movhi	r2,1
     510:	108c0004 	addi	r2,r2,12288
     514:	00ffff84 	movi	r3,-2
     518:	10c00035 	stwio	r3,0(r2)
}
     51c:	dfc00017 	ldw	ra,0(sp)
     520:	dec00104 	addi	sp,sp,4
     524:	f800283a 	ret

00000528 <pxPortInitialiseStack>:

/*
 * See header file for description.
 */
StackType_t *pxPortInitialiseStack( StackType_t *pxTopOfStack, TaskFunction_t pxCode, void *pvParameters )
{
     528:	deffff04 	addi	sp,sp,-4

/*-----------------------------------------------------------*/

static void prvReadGp( uint32_t *ulValue )
{
	asm( "stw gp, (%0)" :: "r"(ulValue) );
     52c:	de800015 	stw	gp,0(sp)
StackType_t xGlobalPointer;

    prvReadGp( &xGlobalPointer );

    /* End of stack marker. */
    *pxTopOfStack = 0xdeadbeef;
     530:	00b7abb4 	movhi	r2,57006
     534:	10afbbc4 	addi	r2,r2,-16657
     538:	20800015 	stw	r2,0(r4)
/*
 * See header file for description.
 */
StackType_t *pxPortInitialiseStack( StackType_t *pxTopOfStack, TaskFunction_t pxCode, void *pvParameters )
{
StackType_t *pxFramePointer = pxTopOfStack - 1;
     53c:	20bfff04 	addi	r2,r4,-4

    /* End of stack marker. */
    *pxTopOfStack = 0xdeadbeef;
    pxTopOfStack--;

    *pxTopOfStack = ( StackType_t ) pxFramePointer;
     540:	20bfff15 	stw	r2,-4(r4)
    pxTopOfStack--;

    *pxTopOfStack = xGlobalPointer;
     544:	d8800017 	ldw	r2,0(sp)

    /* Space for R23 to R16. */
    pxTopOfStack -= 9;

    *pxTopOfStack = ( StackType_t ) pxCode;
     548:	217ff515 	stw	r5,-44(r4)
    *pxTopOfStack = portINITIAL_ESTATUS;

    /* Space for R15 to R5. */
    pxTopOfStack -= 12;

    *pxTopOfStack = ( StackType_t ) pvParameters;
     54c:	21bfe815 	stw	r6,-96(r4)
    pxTopOfStack--;

    *pxTopOfStack = ( StackType_t ) pxFramePointer;
    pxTopOfStack--;

    *pxTopOfStack = xGlobalPointer;
     550:	20bffe15 	stw	r2,-8(r4)
    pxTopOfStack -= 9;

    *pxTopOfStack = ( StackType_t ) pxCode;
    pxTopOfStack--;

    *pxTopOfStack = portINITIAL_ESTATUS;
     554:	00800044 	movi	r2,1
     558:	20bff415 	stw	r2,-48(r4)

    /* Space for R3 to R1, muldiv and RA. */
    pxTopOfStack -= 5;

    return pxTopOfStack;
}
     55c:	20bfe304 	addi	r2,r4,-116
     560:	dec00104 	addi	sp,sp,4
     564:	f800283a 	ret

00000568 <vPortEndScheduler>:
	return 0;
}
/*-----------------------------------------------------------*/

void vPortEndScheduler( void )
{
     568:	f800283a 	ret

0000056c <alt_irq_register>:
int alt_irq_register( alt_u32 id, void* context, void (*handler)(void*, alt_u32) )
{
	int rc = -EINVAL;
	alt_irq_context status;

	if (id < ALT_NIRQ)
     56c:	008007c4 	movi	r2,31
     570:	11002236 	bltu	r2,r4,5fc <alt_irq_register+0x90>
static ALT_INLINE alt_irq_context ALT_ALWAYS_INLINE 
       alt_irq_disable_all (void)
{
  alt_irq_context context;

  NIOS2_READ_STATUS (context);
     574:	0005303a 	rdctl	r2,status

  NIOS2_WRITE_STATUS (context & ~NIOS2_STATUS_PIE_MSK);
     578:	00ffff84 	movi	r3,-2
     57c:	10c4703a 	and	r2,r2,r3
     580:	1001703a 	wrctl	status,r2
		 * state.
		 */

		status = alt_irq_disable_all ();

		alt_irq[id].handler = handler;
     584:	200490fa 	slli	r2,r4,3
     588:	01c00034 	movhi	r7,0
     58c:	39d52004 	addi	r7,r7,21632
     590:	3885883a 	add	r2,r7,r2
		alt_irq[id].context = context;
     594:	11400115 	stw	r5,4(r2)
		 * state.
		 */

		status = alt_irq_disable_all ();

		alt_irq[id].handler = handler;
     598:	11800015 	stw	r6,0(r2)
     59c:	01400034 	movhi	r5,0
     5a0:	294c1904 	addi	r5,r5,12388
     5a4:	00800044 	movi	r2,1
		alt_irq[id].context = context;

		rc = (handler) ? alt_irq_enable (id): alt_irq_disable (id);
     5a8:	30000726 	beq	r6,zero,5c8 <alt_irq_register+0x5c>
static ALT_INLINE alt_irq_context ALT_ALWAYS_INLINE 
       alt_irq_disable_all (void)
{
  alt_irq_context context;

  NIOS2_READ_STATUS (context);
     5ac:	000d303a 	rdctl	r6,status

  NIOS2_WRITE_STATUS (context & ~NIOS2_STATUS_PIE_MSK);
     5b0:	30c6703a 	and	r3,r6,r3
     5b4:	1801703a 	wrctl	status,r3
  alt_irq_context  status;
  extern volatile alt_u32 alt_irq_active;

  status = alt_irq_disable_all ();

  alt_irq_active |= (1 << id);
     5b8:	28c00017 	ldw	r3,0(r5)
     5bc:	1104983a 	sll	r2,r2,r4
     5c0:	10c4b03a 	or	r2,r2,r3
     5c4:	00000706 	br	5e4 <alt_irq_register+0x78>
static ALT_INLINE alt_irq_context ALT_ALWAYS_INLINE 
       alt_irq_disable_all (void)
{
  alt_irq_context context;

  NIOS2_READ_STATUS (context);
     5c8:	000d303a 	rdctl	r6,status

  NIOS2_WRITE_STATUS (context & ~NIOS2_STATUS_PIE_MSK);
     5cc:	30c6703a 	and	r3,r6,r3
     5d0:	1801703a 	wrctl	status,r3
  alt_irq_context  status;
  extern volatile alt_u32 alt_irq_active;

  status = alt_irq_disable_all ();

  alt_irq_active &= ~(1 << id);
     5d4:	1104983a 	sll	r2,r2,r4
     5d8:	28c00017 	ldw	r3,0(r5)
     5dc:	0084303a 	nor	r2,zero,r2
     5e0:	10c4703a 	and	r2,r2,r3
     5e4:	28800015 	stw	r2,0(r5)
  NIOS2_WRITE_IENABLE (alt_irq_active);
     5e8:	28800017 	ldw	r2,0(r5)
     5ec:	100170fa 	wrctl	ienable,r2
  status &= ~NIOS2_STATUS_PIE_MSK;
  status |= (context & NIOS2_STATUS_PIE_MSK);
  
  NIOS2_WRITE_STATUS (status);
#else
  NIOS2_WRITE_STATUS (context);
     5f0:	3001703a 	wrctl	status,r6
     5f4:	0005883a 	mov	r2,zero
     5f8:	f800283a 	ret
 * kernel has its scheduler started so that contexts are saved and switched
 * correctly.
 */
int alt_irq_register( alt_u32 id, void* context, void (*handler)(void*, alt_u32) )
{
	int rc = -EINVAL;
     5fc:	00bffa84 	movi	r2,-22

		/* alt_irq_enable_all(status); This line is removed to prevent the interrupt from being immediately enabled. */
	}

	return rc;
}
     600:	f800283a 	ret

00000604 <xPortStartScheduler>:
 * frequency.
 */
void prvSetupTimerInterrupt( void )
{
	/* Try to register the interrupt handler. */
	if ( -EINVAL == alt_irq_register( TIMER_0_IRQ, 0x0, vPortSysTickHandler ) )
     604:	01800034 	movhi	r6,0

/*
 * See header file for description.
 */
BaseType_t xPortStartScheduler( void )
{
     608:	deffff04 	addi	sp,sp,-4
 * frequency.
 */
void prvSetupTimerInterrupt( void )
{
	/* Try to register the interrupt handler. */
	if ( -EINVAL == alt_irq_register( TIMER_0_IRQ, 0x0, vPortSysTickHandler ) )
     60c:	01000044 	movi	r4,1
     610:	000b883a 	mov	r5,zero
     614:	31813e04 	addi	r6,r6,1272

/*
 * See header file for description.
 */
BaseType_t xPortStartScheduler( void )
{
     618:	dfc00015 	stw	ra,0(sp)
 * frequency.
 */
void prvSetupTimerInterrupt( void )
{
	/* Try to register the interrupt handler. */
	if ( -EINVAL == alt_irq_register( TIMER_0_IRQ, 0x0, vPortSysTickHandler ) )
     61c:	000056c0 	call	56c <alt_irq_register>
     620:	00fffa84 	movi	r3,-22
     624:	10c0021e 	bne	r2,r3,630 <xPortStartScheduler+0x2c>
	{
		/* Failed to install the Interrupt Handler. */
		asm( "break" );
     628:	003da03a 	break	0
     62c:	00000d06 	br	664 <xPortStartScheduler+0x60>
	}
	else
	{
		/* Configure SysTick to interrupt at the requested rate. */
		IOWR_ALTERA_AVALON_TIMER_CONTROL( TIMER_0_BASE, ALTERA_AVALON_TIMER_CONTROL_STOP_MSK );
     630:	00800074 	movhi	r2,1
     634:	108c0104 	addi	r2,r2,12292
     638:	00c00204 	movi	r3,8
     63c:	10c00035 	stwio	r3,0(r2)
		IOWR_ALTERA_AVALON_TIMER_PERIODL( TIMER_0_BASE, ( configCPU_CLOCK_HZ / configTICK_RATE_HZ ) & 0xFFFF );
     640:	00c00074 	movhi	r3,1
     644:	18cc0204 	addi	r3,r3,12296
     648:	0130d414 	movui	r4,50000
     64c:	19000035 	stwio	r4,0(r3)
		IOWR_ALTERA_AVALON_TIMER_PERIODH( TIMER_0_BASE, ( configCPU_CLOCK_HZ / configTICK_RATE_HZ ) >> 16 );
     650:	00c00074 	movhi	r3,1
     654:	18cc0304 	addi	r3,r3,12300
     658:	18000035 	stwio	zero,0(r3)
		IOWR_ALTERA_AVALON_TIMER_CONTROL( TIMER_0_BASE, ALTERA_AVALON_TIMER_CONTROL_CONT_MSK | ALTERA_AVALON_TIMER_CONTROL_START_MSK | ALTERA_AVALON_TIMER_CONTROL_ITO_MSK );
     65c:	00c001c4 	movi	r3,7
     660:	10c00035 	stwio	r3,0(r2)
	}

	/* Clear any already pending interrupts generated by the Timer. */
	IOWR_ALTERA_AVALON_TIMER_STATUS( TIMER_0_BASE, ~ALTERA_AVALON_TIMER_STATUS_TO_MSK );
     664:	00800074 	movhi	r2,1
     668:	108c0004 	addi	r2,r2,12288
     66c:	00ffff84 	movi	r3,-2
     670:	10c00035 	stwio	r3,0(r2)
     674:	00800034 	movhi	r2,0
	/* Start the timer that generates the tick ISR.  Interrupts are disabled
	here already. */
	prvSetupTimerInterrupt();

	/* Start the first task. */
    asm volatile (  " movia r2, restore_sp_from_pxCurrentTCB        \n"
     678:	10803104 	addi	r2,r2,196
     67c:	1000683a 	jmp	r2
                    " jmp r2                                          " );

	/* Should not get here! */
	return 0;
}
     680:	0005883a 	mov	r2,zero
     684:	dfc00017 	ldw	ra,0(sp)
     688:	dec00104 	addi	sp,sp,4
     68c:	f800283a 	ret

00000690 <pvPortMalloc>:
static size_t xNextFreeByte = ( size_t ) 0;

/*-----------------------------------------------------------*/

void *pvPortMalloc( size_t xWantedSize )
{
     690:	defffd04 	addi	sp,sp,-12
     694:	dc000015 	stw	r16,0(sp)
     698:	dfc00215 	stw	ra,8(sp)
     69c:	dc400115 	stw	r17,4(sp)
void *pvReturn = NULL;
static uint8_t *pucAlignedHeap = NULL;

	/* Ensure that blocks are always aligned to the required number of bytes. */
	#if portBYTE_ALIGNMENT != 1
		if( xWantedSize & portBYTE_ALIGNMENT_MASK )
     6a0:	208000cc 	andi	r2,r4,3
static size_t xNextFreeByte = ( size_t ) 0;

/*-----------------------------------------------------------*/

void *pvPortMalloc( size_t xWantedSize )
{
     6a4:	2021883a 	mov	r16,r4
void *pvReturn = NULL;
static uint8_t *pucAlignedHeap = NULL;

	/* Ensure that blocks are always aligned to the required number of bytes. */
	#if portBYTE_ALIGNMENT != 1
		if( xWantedSize & portBYTE_ALIGNMENT_MASK )
     6a8:	10000326 	beq	r2,zero,6b8 <pvPortMalloc+0x28>
		{
			/* Byte alignment required. */
			xWantedSize += ( portBYTE_ALIGNMENT - ( xWantedSize & portBYTE_ALIGNMENT_MASK ) );
     6ac:	013fff04 	movi	r4,-4
     6b0:	8120703a 	and	r16,r16,r4
     6b4:	84000104 	addi	r16,r16,4
		}
	#endif

	vTaskSuspendAll();
     6b8:	00013040 	call	1304 <vTaskSuspendAll>
	{
		if( pucAlignedHeap == NULL )
     6bc:	d0a00f17 	ldw	r2,-32708(gp)
     6c0:	1000051e 	bne	r2,zero,6d8 <pvPortMalloc+0x48>
		{
			/* Ensure the heap starts on a correctly aligned boundary. */
			pucAlignedHeap = ( uint8_t * ) ( ( ( portPOINTER_SIZE_TYPE ) &ucHeap[ portBYTE_ALIGNMENT ] ) & ( ~( ( portPOINTER_SIZE_TYPE ) portBYTE_ALIGNMENT_MASK ) ) );
     6c4:	00c00034 	movhi	r3,0
     6c8:	00bfff04 	movi	r2,-4
     6cc:	18cc1f04 	addi	r3,r3,12412
     6d0:	1884703a 	and	r2,r3,r2
     6d4:	d0a00f15 	stw	r2,-32708(gp)
		}

		/* Check there is enough room left for the allocation. */
		if( ( ( xNextFreeByte + xWantedSize ) < configADJUSTED_HEAP_SIZE ) &&
     6d8:	d0a01017 	ldw	r2,-32704(gp)
     6dc:	00c8cec4 	movi	r3,9019
     6e0:	80a1883a 	add	r16,r16,r2
     6e4:	1c000536 	bltu	r3,r16,6fc <pvPortMalloc+0x6c>
     6e8:	1400042e 	bgeu	r2,r16,6fc <pvPortMalloc+0x6c>
			( ( xNextFreeByte + xWantedSize ) > xNextFreeByte )	)/* Check for overflow. */
		{
			/* Return the next free byte then increment the index past this
			block. */
			pvReturn = pucAlignedHeap + xNextFreeByte;
     6ec:	d4600f17 	ldw	r17,-32708(gp)
			xNextFreeByte += xWantedSize;
     6f0:	d4201015 	stw	r16,-32704(gp)
		if( ( ( xNextFreeByte + xWantedSize ) < configADJUSTED_HEAP_SIZE ) &&
			( ( xNextFreeByte + xWantedSize ) > xNextFreeByte )	)/* Check for overflow. */
		{
			/* Return the next free byte then increment the index past this
			block. */
			pvReturn = pucAlignedHeap + xNextFreeByte;
     6f4:	88a3883a 	add	r17,r17,r2
     6f8:	00000106 	br	700 <pvPortMalloc+0x70>

/*-----------------------------------------------------------*/

void *pvPortMalloc( size_t xWantedSize )
{
void *pvReturn = NULL;
     6fc:	0023883a 	mov	r17,zero
			xNextFreeByte += xWantedSize;
		}

		traceMALLOC( pvReturn, xWantedSize );
	}
	( void ) xTaskResumeAll();
     700:	0001fec0 	call	1fec <xTaskResumeAll>
		}
	}
	#endif

	return pvReturn;
}
     704:	8805883a 	mov	r2,r17
     708:	dfc00217 	ldw	ra,8(sp)
     70c:	dc400117 	ldw	r17,4(sp)
     710:	dc000017 	ldw	r16,0(sp)
     714:	dec00304 	addi	sp,sp,12
     718:	f800283a 	ret

0000071c <vPortFree>:
/*-----------------------------------------------------------*/

void vPortFree( void *pv )
{
     71c:	f800283a 	ret

00000720 <vPortInitialiseBlocks>:
/*-----------------------------------------------------------*/

void vPortInitialiseBlocks( void )
{
	/* Only required when static memory is not cleared. */
	xNextFreeByte = ( size_t ) 0;
     720:	d0201015 	stw	zero,-32704(gp)
     724:	f800283a 	ret

00000728 <xPortGetFreeHeapSize>:
/*-----------------------------------------------------------*/

size_t xPortGetFreeHeapSize( void )
{
	return ( configADJUSTED_HEAP_SIZE - xNextFreeByte );
}
     728:	d0a01017 	ldw	r2,-32704(gp)
     72c:	00c8cf04 	movi	r3,9020
     730:	1885c83a 	sub	r2,r3,r2
     734:	f800283a 	ret

00000738 <prvCopyDataToQueue>:

#endif /* configUSE_TRACE_FACILITY */
/*-----------------------------------------------------------*/

static BaseType_t prvCopyDataToQueue( Queue_t * const pxQueue, const void *pvItemToQueue, const BaseType_t xPosition )
{
     738:	defffd04 	addi	sp,sp,-12
     73c:	dc400115 	stw	r17,4(sp)
     740:	3023883a 	mov	r17,r6
BaseType_t xReturn = pdFALSE;

	if( pxQueue->uxItemSize == ( UBaseType_t ) 0 )
     744:	21801017 	ldw	r6,64(r4)

#endif /* configUSE_TRACE_FACILITY */
/*-----------------------------------------------------------*/

static BaseType_t prvCopyDataToQueue( Queue_t * const pxQueue, const void *pvItemToQueue, const BaseType_t xPosition )
{
     748:	dc000015 	stw	r16,0(sp)
     74c:	dfc00215 	stw	ra,8(sp)
     750:	2021883a 	mov	r16,r4
BaseType_t xReturn = pdFALSE;

	if( pxQueue->uxItemSize == ( UBaseType_t ) 0 )
     754:	3000061e 	bne	r6,zero,770 <prvCopyDataToQueue+0x38>
	{
		#if ( configUSE_MUTEXES == 1 )
		{
			if( pxQueue->uxQueueType == queueQUEUE_IS_MUTEX )
     758:	20800017 	ldw	r2,0(r4)
     75c:	1000231e 	bne	r2,zero,7ec <prvCopyDataToQueue+0xb4>
			{
				/* The mutex is no longer being held. */
				xReturn = xTaskPriorityDisinherit( ( void * ) pxQueue->pxMutexHolder );
     760:	21000117 	ldw	r4,4(r4)
     764:	00018940 	call	1894 <xTaskPriorityDisinherit>
				pxQueue->pxMutexHolder = NULL;
     768:	80000115 	stw	zero,4(r16)
     76c:	00002006 	br	7f0 <prvCopyDataToQueue+0xb8>
				mtCOVERAGE_TEST_MARKER();
			}
		}
		#endif /* configUSE_MUTEXES */
	}
	else if( xPosition == queueSEND_TO_BACK )
     770:	88000b1e 	bne	r17,zero,7a0 <prvCopyDataToQueue+0x68>
	{
		( void ) memcpy( ( void * ) pxQueue->pcWriteTo, pvItemToQueue, ( size_t ) pxQueue->uxItemSize ); /*lint !e961 !e418 MISRA exception as the casts are only redundant for some ports, plus previous logic ensures a null pointer can only be passed to memcpy() if the copy size is 0. */
     774:	21000217 	ldw	r4,8(r4)
     778:	00029400 	call	2940 <memcpy>
		pxQueue->pcWriteTo += pxQueue->uxItemSize;
     77c:	80c00217 	ldw	r3,8(r16)
     780:	80801017 	ldw	r2,64(r16)
     784:	1885883a 	add	r2,r3,r2
		if( pxQueue->pcWriteTo >= pxQueue->pcTail ) /*lint !e946 MISRA exception justified as comparison of pointers is the cleanest solution. */
     788:	80c00117 	ldw	r3,4(r16)
		#endif /* configUSE_MUTEXES */
	}
	else if( xPosition == queueSEND_TO_BACK )
	{
		( void ) memcpy( ( void * ) pxQueue->pcWriteTo, pvItemToQueue, ( size_t ) pxQueue->uxItemSize ); /*lint !e961 !e418 MISRA exception as the casts are only redundant for some ports, plus previous logic ensures a null pointer can only be passed to memcpy() if the copy size is 0. */
		pxQueue->pcWriteTo += pxQueue->uxItemSize;
     78c:	80800215 	stw	r2,8(r16)
		if( pxQueue->pcWriteTo >= pxQueue->pcTail ) /*lint !e946 MISRA exception justified as comparison of pointers is the cleanest solution. */
     790:	10c01636 	bltu	r2,r3,7ec <prvCopyDataToQueue+0xb4>
		{
			pxQueue->pcWriteTo = pxQueue->pcHead;
     794:	80800017 	ldw	r2,0(r16)
     798:	80800215 	stw	r2,8(r16)
     79c:	00001306 	br	7ec <prvCopyDataToQueue+0xb4>
			mtCOVERAGE_TEST_MARKER();
		}
	}
	else
	{
		( void ) memcpy( ( void * ) pxQueue->u.pcReadFrom, pvItemToQueue, ( size_t ) pxQueue->uxItemSize ); /*lint !e961 MISRA exception as the casts are only redundant for some ports. */
     7a0:	21000317 	ldw	r4,12(r4)
     7a4:	00029400 	call	2940 <memcpy>
		pxQueue->u.pcReadFrom -= pxQueue->uxItemSize;
     7a8:	80801017 	ldw	r2,64(r16)
     7ac:	80c00317 	ldw	r3,12(r16)
		if( pxQueue->u.pcReadFrom < pxQueue->pcHead ) /*lint !e946 MISRA exception justified as comparison of pointers is the cleanest solution. */
     7b0:	81000017 	ldw	r4,0(r16)
		}
	}
	else
	{
		( void ) memcpy( ( void * ) pxQueue->u.pcReadFrom, pvItemToQueue, ( size_t ) pxQueue->uxItemSize ); /*lint !e961 MISRA exception as the casts are only redundant for some ports. */
		pxQueue->u.pcReadFrom -= pxQueue->uxItemSize;
     7b4:	0085c83a 	sub	r2,zero,r2
     7b8:	1887883a 	add	r3,r3,r2
     7bc:	80c00315 	stw	r3,12(r16)
		if( pxQueue->u.pcReadFrom < pxQueue->pcHead ) /*lint !e946 MISRA exception justified as comparison of pointers is the cleanest solution. */
     7c0:	1900032e 	bgeu	r3,r4,7d0 <prvCopyDataToQueue+0x98>
		{
			pxQueue->u.pcReadFrom = ( pxQueue->pcTail - pxQueue->uxItemSize );
     7c4:	80c00117 	ldw	r3,4(r16)
     7c8:	1885883a 	add	r2,r3,r2
     7cc:	80800315 	stw	r2,12(r16)
		else
		{
			mtCOVERAGE_TEST_MARKER();
		}

		if( xPosition == queueOVERWRITE )
     7d0:	00800084 	movi	r2,2
     7d4:	8880051e 	bne	r17,r2,7ec <prvCopyDataToQueue+0xb4>
		{
			if( pxQueue->uxMessagesWaiting > ( UBaseType_t ) 0 )
     7d8:	80800e17 	ldw	r2,56(r16)
     7dc:	10000326 	beq	r2,zero,7ec <prvCopyDataToQueue+0xb4>
			{
				/* An item is not being added but overwritten, so subtract
				one from the recorded number of items in the queue so when
				one is added again below the number of recorded items remains
				correct. */
				--( pxQueue->uxMessagesWaiting );
     7e0:	80800e17 	ldw	r2,56(r16)
     7e4:	10bfffc4 	addi	r2,r2,-1
     7e8:	80800e15 	stw	r2,56(r16)
#endif /* configUSE_TRACE_FACILITY */
/*-----------------------------------------------------------*/

static BaseType_t prvCopyDataToQueue( Queue_t * const pxQueue, const void *pvItemToQueue, const BaseType_t xPosition )
{
BaseType_t xReturn = pdFALSE;
     7ec:	0005883a 	mov	r2,zero
		{
			mtCOVERAGE_TEST_MARKER();
		}
	}

	++( pxQueue->uxMessagesWaiting );
     7f0:	80c00e17 	ldw	r3,56(r16)
     7f4:	18c00044 	addi	r3,r3,1
     7f8:	80c00e15 	stw	r3,56(r16)

	return xReturn;
}
     7fc:	dfc00217 	ldw	ra,8(sp)
     800:	dc400117 	ldw	r17,4(sp)
     804:	dc000017 	ldw	r16,0(sp)
     808:	dec00304 	addi	sp,sp,12
     80c:	f800283a 	ret

00000810 <prvCopyDataFromQueue>:
/*-----------------------------------------------------------*/

static void prvCopyDataFromQueue( Queue_t * const pxQueue, void * const pvBuffer )
{
     810:	2005883a 	mov	r2,r4
	if( pxQueue->uxItemSize != ( UBaseType_t ) 0 )
     814:	11801017 	ldw	r6,64(r2)
	return xReturn;
}
/*-----------------------------------------------------------*/

static void prvCopyDataFromQueue( Queue_t * const pxQueue, void * const pvBuffer )
{
     818:	2809883a 	mov	r4,r5
	if( pxQueue->uxItemSize != ( UBaseType_t ) 0 )
     81c:	30000926 	beq	r6,zero,844 <prvCopyDataFromQueue+0x34>
	{
		pxQueue->u.pcReadFrom += pxQueue->uxItemSize;
     820:	10c00317 	ldw	r3,12(r2)
		if( pxQueue->u.pcReadFrom >= pxQueue->pcTail ) /*lint !e946 MISRA exception justified as use of the relational operator is the cleanest solutions. */
     824:	11400117 	ldw	r5,4(r2)

static void prvCopyDataFromQueue( Queue_t * const pxQueue, void * const pvBuffer )
{
	if( pxQueue->uxItemSize != ( UBaseType_t ) 0 )
	{
		pxQueue->u.pcReadFrom += pxQueue->uxItemSize;
     828:	1987883a 	add	r3,r3,r6
     82c:	10c00315 	stw	r3,12(r2)
		if( pxQueue->u.pcReadFrom >= pxQueue->pcTail ) /*lint !e946 MISRA exception justified as use of the relational operator is the cleanest solutions. */
     830:	19400236 	bltu	r3,r5,83c <prvCopyDataFromQueue+0x2c>
		{
			pxQueue->u.pcReadFrom = pxQueue->pcHead;
     834:	10c00017 	ldw	r3,0(r2)
     838:	10c00315 	stw	r3,12(r2)
		}
		else
		{
			mtCOVERAGE_TEST_MARKER();
		}
		( void ) memcpy( ( void * ) pvBuffer, ( void * ) pxQueue->u.pcReadFrom, ( size_t ) pxQueue->uxItemSize ); /*lint !e961 !e418 MISRA exception as the casts are only redundant for some ports.  Also previous logic ensures a null pointer can only be passed to memcpy() when the count is 0. */
     83c:	11400317 	ldw	r5,12(r2)
     840:	00029401 	jmpi	2940 <memcpy>
     844:	f800283a 	ret

00000848 <prvUnlockQueue>:
	}
}
/*-----------------------------------------------------------*/

static void prvUnlockQueue( Queue_t * const pxQueue )
{
     848:	defffd04 	addi	sp,sp,-12
     84c:	dc000015 	stw	r16,0(sp)
     850:	2021883a 	mov	r16,r4
     854:	dc400115 	stw	r17,4(sp)
     858:	dfc00215 	stw	ra,8(sp)
			{
				/* Tasks that are removed from the event list will get added to
				the pending ready list as the scheduler is still suspended. */
				if( listLIST_IS_EMPTY( &( pxQueue->xTasksWaitingToReceive ) ) == pdFALSE )
				{
					if( xTaskRemoveFromEventList( &( pxQueue->xTasksWaitingToReceive ) ) != pdFALSE )
     85c:	84400904 	addi	r17,r16,36

	/* The lock counts contains the number of extra data items placed or
	removed from the queue while the queue was locked.  When a queue is
	locked items can be added or removed, but the event lists cannot be
	updated. */
	taskENTER_CRITICAL();
     860:	00019300 	call	1930 <vTaskEnterCritical>
	{
		/* See if data was added to the queue while it was locked. */
		while( pxQueue->xTxLock > queueLOCKED_UNMODIFIED )
     864:	80801217 	ldw	r2,72(r16)
     868:	00800a0e 	bge	zero,r2,894 <prvUnlockQueue+0x4c>
			}
			#else /* configUSE_QUEUE_SETS */
			{
				/* Tasks that are removed from the event list will get added to
				the pending ready list as the scheduler is still suspended. */
				if( listLIST_IS_EMPTY( &( pxQueue->xTasksWaitingToReceive ) ) == pdFALSE )
     86c:	80800917 	ldw	r2,36(r16)
     870:	10000826 	beq	r2,zero,894 <prvUnlockQueue+0x4c>
				{
					if( xTaskRemoveFromEventList( &( pxQueue->xTasksWaitingToReceive ) ) != pdFALSE )
     874:	8809883a 	mov	r4,r17
     878:	000162c0 	call	162c <xTaskRemoveFromEventList>
     87c:	10000126 	beq	r2,zero,884 <prvUnlockQueue+0x3c>
					{
						/* The task waiting has a higher priority so record that a
						context	switch is required. */
						vTaskMissedYield();
     880:	00017700 	call	1770 <vTaskMissedYield>
					break;
				}
			}
			#endif /* configUSE_QUEUE_SETS */

			--( pxQueue->xTxLock );
     884:	80801217 	ldw	r2,72(r16)
     888:	10bfffc4 	addi	r2,r2,-1
     88c:	80801215 	stw	r2,72(r16)
     890:	003ff406 	br	864 <prvUnlockQueue+0x1c>
		}

		pxQueue->xTxLock = queueUNLOCKED;
     894:	00bfffc4 	movi	r2,-1
     898:	80801215 	stw	r2,72(r16)
	}
	taskEXIT_CRITICAL();
     89c:	00019600 	call	1960 <vTaskExitCritical>
	{
		while( pxQueue->xRxLock > queueLOCKED_UNMODIFIED )
		{
			if( listLIST_IS_EMPTY( &( pxQueue->xTasksWaitingToSend ) ) == pdFALSE )
			{
				if( xTaskRemoveFromEventList( &( pxQueue->xTasksWaitingToSend ) ) != pdFALSE )
     8a0:	84400404 	addi	r17,r16,16
		pxQueue->xTxLock = queueUNLOCKED;
	}
	taskEXIT_CRITICAL();

	/* Do the same for the Rx lock. */
	taskENTER_CRITICAL();
     8a4:	00019300 	call	1930 <vTaskEnterCritical>
	{
		while( pxQueue->xRxLock > queueLOCKED_UNMODIFIED )
     8a8:	80801117 	ldw	r2,68(r16)
     8ac:	00800a0e 	bge	zero,r2,8d8 <prvUnlockQueue+0x90>
		{
			if( listLIST_IS_EMPTY( &( pxQueue->xTasksWaitingToSend ) ) == pdFALSE )
     8b0:	80800417 	ldw	r2,16(r16)
     8b4:	10000826 	beq	r2,zero,8d8 <prvUnlockQueue+0x90>
			{
				if( xTaskRemoveFromEventList( &( pxQueue->xTasksWaitingToSend ) ) != pdFALSE )
     8b8:	8809883a 	mov	r4,r17
     8bc:	000162c0 	call	162c <xTaskRemoveFromEventList>
     8c0:	10000126 	beq	r2,zero,8c8 <prvUnlockQueue+0x80>
				{
					vTaskMissedYield();
     8c4:	00017700 	call	1770 <vTaskMissedYield>
				else
				{
					mtCOVERAGE_TEST_MARKER();
				}

				--( pxQueue->xRxLock );
     8c8:	80801117 	ldw	r2,68(r16)
     8cc:	10bfffc4 	addi	r2,r2,-1
     8d0:	80801115 	stw	r2,68(r16)
     8d4:	003ff406 	br	8a8 <prvUnlockQueue+0x60>
			{
				break;
			}
		}

		pxQueue->xRxLock = queueUNLOCKED;
     8d8:	00bfffc4 	movi	r2,-1
     8dc:	80801115 	stw	r2,68(r16)
	}
	taskEXIT_CRITICAL();
}
     8e0:	dfc00217 	ldw	ra,8(sp)
     8e4:	dc400117 	ldw	r17,4(sp)
     8e8:	dc000017 	ldw	r16,0(sp)
     8ec:	dec00304 	addi	sp,sp,12
			}
		}

		pxQueue->xRxLock = queueUNLOCKED;
	}
	taskEXIT_CRITICAL();
     8f0:	00019601 	jmpi	1960 <vTaskExitCritical>

000008f4 <xQueueGenericReset>:
	}														\
	taskEXIT_CRITICAL()
/*-----------------------------------------------------------*/

BaseType_t xQueueGenericReset( QueueHandle_t xQueue, BaseType_t xNewQueue )
{
     8f4:	defffb04 	addi	sp,sp,-20
     8f8:	dc000015 	stw	r16,0(sp)
     8fc:	2021883a 	mov	r16,r4
     900:	dfc00415 	stw	ra,16(sp)
     904:	dcc00315 	stw	r19,12(sp)
     908:	dc800215 	stw	r18,8(sp)
     90c:	dc400115 	stw	r17,4(sp)
     910:	2827883a 	mov	r19,r5
Queue_t * const pxQueue = ( Queue_t * ) xQueue;

	configASSERT( pxQueue );

	taskENTER_CRITICAL();
     914:	00019300 	call	1930 <vTaskEnterCritical>
	{
		pxQueue->pcTail = pxQueue->pcHead + ( pxQueue->uxLength * pxQueue->uxItemSize );
     918:	84801017 	ldw	r18,64(r16)
     91c:	81400f17 	ldw	r5,60(r16)
     920:	84400017 	ldw	r17,0(r16)
     924:	9009883a 	mov	r4,r18
     928:	00029180 	call	2918 <__mulsi3>
     92c:	8887883a 	add	r3,r17,r2
		pxQueue->uxMessagesWaiting = ( UBaseType_t ) 0U;
		pxQueue->pcWriteTo = pxQueue->pcHead;
		pxQueue->u.pcReadFrom = pxQueue->pcHead + ( ( pxQueue->uxLength - ( UBaseType_t ) 1U ) * pxQueue->uxItemSize );
     930:	1485c83a 	sub	r2,r2,r18
     934:	8885883a 	add	r2,r17,r2
	configASSERT( pxQueue );

	taskENTER_CRITICAL();
	{
		pxQueue->pcTail = pxQueue->pcHead + ( pxQueue->uxLength * pxQueue->uxItemSize );
		pxQueue->uxMessagesWaiting = ( UBaseType_t ) 0U;
     938:	80000e15 	stw	zero,56(r16)
		pxQueue->pcWriteTo = pxQueue->pcHead;
		pxQueue->u.pcReadFrom = pxQueue->pcHead + ( ( pxQueue->uxLength - ( UBaseType_t ) 1U ) * pxQueue->uxItemSize );
     93c:	80800315 	stw	r2,12(r16)
		pxQueue->xRxLock = queueUNLOCKED;
     940:	00bfffc4 	movi	r2,-1
     944:	80801115 	stw	r2,68(r16)

	configASSERT( pxQueue );

	taskENTER_CRITICAL();
	{
		pxQueue->pcTail = pxQueue->pcHead + ( pxQueue->uxLength * pxQueue->uxItemSize );
     948:	80c00115 	stw	r3,4(r16)
		pxQueue->uxMessagesWaiting = ( UBaseType_t ) 0U;
		pxQueue->pcWriteTo = pxQueue->pcHead;
     94c:	84400215 	stw	r17,8(r16)
		pxQueue->u.pcReadFrom = pxQueue->pcHead + ( ( pxQueue->uxLength - ( UBaseType_t ) 1U ) * pxQueue->uxItemSize );
		pxQueue->xRxLock = queueUNLOCKED;
		pxQueue->xTxLock = queueUNLOCKED;
     950:	80801215 	stw	r2,72(r16)

		if( xNewQueue == pdFALSE )
     954:	9800081e 	bne	r19,zero,978 <xQueueGenericReset+0x84>
			/* If there are tasks blocked waiting to read from the queue, then
			the tasks will remain blocked as after this function exits the queue
			will still be empty.  If there are tasks blocked waiting to write to
			the queue, then one should be unblocked as after this function exits
			it will be possible to write to it. */
			if( listLIST_IS_EMPTY( &( pxQueue->xTasksWaitingToSend ) ) == pdFALSE )
     958:	80800417 	ldw	r2,16(r16)
     95c:	10000a26 	beq	r2,zero,988 <xQueueGenericReset+0x94>
			{
				if( xTaskRemoveFromEventList( &( pxQueue->xTasksWaitingToSend ) ) == pdTRUE )
     960:	81000404 	addi	r4,r16,16
     964:	000162c0 	call	162c <xTaskRemoveFromEventList>
     968:	00c00044 	movi	r3,1
     96c:	10c0061e 	bne	r2,r3,988 <xQueueGenericReset+0x94>
				{
					queueYIELD_IF_USING_PREEMPTION();
     970:	003b683a 	trap	0
     974:	00000406 	br	988 <xQueueGenericReset+0x94>
			}
		}
		else
		{
			/* Ensure the event queues start in the correct state. */
			vListInitialise( &( pxQueue->xTasksWaitingToSend ) );
     978:	81000404 	addi	r4,r16,16
     97c:	00002d00 	call	2d0 <vListInitialise>
			vListInitialise( &( pxQueue->xTasksWaitingToReceive ) );
     980:	81000904 	addi	r4,r16,36
     984:	00002d00 	call	2d0 <vListInitialise>
		}
	}
	taskEXIT_CRITICAL();
     988:	00019600 	call	1960 <vTaskExitCritical>

	/* A value is returned for calling semantic consistency with previous
	versions. */
	return pdPASS;
}
     98c:	00800044 	movi	r2,1
     990:	dfc00417 	ldw	ra,16(sp)
     994:	dcc00317 	ldw	r19,12(sp)
     998:	dc800217 	ldw	r18,8(sp)
     99c:	dc400117 	ldw	r17,4(sp)
     9a0:	dc000017 	ldw	r16,0(sp)
     9a4:	dec00504 	addi	sp,sp,20
     9a8:	f800283a 	ret

000009ac <xQueueGenericCreate>:
/*-----------------------------------------------------------*/

QueueHandle_t xQueueGenericCreate( const UBaseType_t uxQueueLength, const UBaseType_t uxItemSize, const uint8_t ucQueueType )
{
     9ac:	defffc04 	addi	sp,sp,-16
     9b0:	dc800215 	stw	r18,8(sp)
     9b4:	dc400115 	stw	r17,4(sp)
     9b8:	dfc00315 	stw	ra,12(sp)
     9bc:	dc000015 	stw	r16,0(sp)
     9c0:	2025883a 	mov	r18,r4
     9c4:	2823883a 	mov	r17,r5
	configUSE_TRACE_FACILITY not be set to 1. */
	( void ) ucQueueType;

	configASSERT( uxQueueLength > ( UBaseType_t ) 0 );

	if( uxItemSize == ( UBaseType_t ) 0 )
     9c8:	28000526 	beq	r5,zero,9e0 <xQueueGenericCreate+0x34>
	}
	else
	{
		/* The queue is one byte longer than asked for to make wrap checking
		easier/faster. */
		xQueueSizeInBytes = ( size_t ) ( uxQueueLength * uxItemSize ) + ( size_t ) 1; /*lint !e961 MISRA exception as the casts are only redundant for some ports. */
     9cc:	2809883a 	mov	r4,r5
     9d0:	900b883a 	mov	r5,r18
     9d4:	00029180 	call	2918 <__mulsi3>
     9d8:	10800044 	addi	r2,r2,1
     9dc:	00000106 	br	9e4 <xQueueGenericCreate+0x38>
	configASSERT( uxQueueLength > ( UBaseType_t ) 0 );

	if( uxItemSize == ( UBaseType_t ) 0 )
	{
		/* There is not going to be a queue storage area. */
		xQueueSizeInBytes = ( size_t ) 0;
     9e0:	0005883a 	mov	r2,zero
		easier/faster. */
		xQueueSizeInBytes = ( size_t ) ( uxQueueLength * uxItemSize ) + ( size_t ) 1; /*lint !e961 MISRA exception as the casts are only redundant for some ports. */
	}

	/* Allocate the new queue structure and storage area. */
	pxNewQueue = ( Queue_t * ) pvPortMalloc( sizeof( Queue_t ) + xQueueSizeInBytes );
     9e4:	11001304 	addi	r4,r2,76
     9e8:	00006900 	call	690 <pvPortMalloc>
     9ec:	1021883a 	mov	r16,r2

	if( pxNewQueue != NULL )
     9f0:	10000a26 	beq	r2,zero,a1c <xQueueGenericCreate+0x70>
	{
		if( uxItemSize == ( UBaseType_t ) 0 )
     9f4:	8800021e 	bne	r17,zero,a00 <xQueueGenericCreate+0x54>
		{
			/* No RAM was allocated for the queue storage area, but PC head
			cannot be set to NULL because NULL is used as a key to say the queue
			is used as a mutex.  Therefore just set pcHead to point to the queue
			as a benign value that is known to be within the memory map. */
			pxNewQueue->pcHead = ( int8_t * ) pxNewQueue;
     9f8:	80800015 	stw	r2,0(r16)
     9fc:	00000206 	br	a08 <xQueueGenericCreate+0x5c>
		}
		else
		{
			/* Jump past the queue structure to find the location of the queue
			storage area. */
			pxNewQueue->pcHead = ( ( int8_t * ) pxNewQueue ) + sizeof( Queue_t );
     a00:	10801304 	addi	r2,r2,76
     a04:	80800015 	stw	r2,0(r16)
		}

		/* Initialise the queue members as described above where the queue type
		is defined. */
		pxNewQueue->uxLength = uxQueueLength;
     a08:	84800f15 	stw	r18,60(r16)
		pxNewQueue->uxItemSize = uxItemSize;
     a0c:	84401015 	stw	r17,64(r16)
		( void ) xQueueGenericReset( pxNewQueue, pdTRUE );
     a10:	8009883a 	mov	r4,r16
     a14:	01400044 	movi	r5,1
     a18:	00008f40 	call	8f4 <xQueueGenericReset>
	}

	configASSERT( xReturn );

	return xReturn;
}
     a1c:	8005883a 	mov	r2,r16
     a20:	dfc00317 	ldw	ra,12(sp)
     a24:	dc800217 	ldw	r18,8(sp)
     a28:	dc400117 	ldw	r17,4(sp)
     a2c:	dc000017 	ldw	r16,0(sp)
     a30:	dec00404 	addi	sp,sp,16
     a34:	f800283a 	ret

00000a38 <xQueueCreateCountingSemaphore>:
/*-----------------------------------------------------------*/

#if ( configUSE_COUNTING_SEMAPHORES == 1 )

	QueueHandle_t xQueueCreateCountingSemaphore( const UBaseType_t uxMaxCount, const UBaseType_t uxInitialCount )
	{
     a38:	defffe04 	addi	sp,sp,-8
     a3c:	dc000015 	stw	r16,0(sp)
	QueueHandle_t xHandle;

		configASSERT( uxMaxCount != 0 );
		configASSERT( uxInitialCount <= uxMaxCount );

		xHandle = xQueueGenericCreate( uxMaxCount, queueSEMAPHORE_QUEUE_ITEM_LENGTH, queueQUEUE_TYPE_COUNTING_SEMAPHORE );
     a40:	01800084 	movi	r6,2
/*-----------------------------------------------------------*/

#if ( configUSE_COUNTING_SEMAPHORES == 1 )

	QueueHandle_t xQueueCreateCountingSemaphore( const UBaseType_t uxMaxCount, const UBaseType_t uxInitialCount )
	{
     a44:	2821883a 	mov	r16,r5
	QueueHandle_t xHandle;

		configASSERT( uxMaxCount != 0 );
		configASSERT( uxInitialCount <= uxMaxCount );

		xHandle = xQueueGenericCreate( uxMaxCount, queueSEMAPHORE_QUEUE_ITEM_LENGTH, queueQUEUE_TYPE_COUNTING_SEMAPHORE );
     a48:	000b883a 	mov	r5,zero
/*-----------------------------------------------------------*/

#if ( configUSE_COUNTING_SEMAPHORES == 1 )

	QueueHandle_t xQueueCreateCountingSemaphore( const UBaseType_t uxMaxCount, const UBaseType_t uxInitialCount )
	{
     a4c:	dfc00115 	stw	ra,4(sp)
	QueueHandle_t xHandle;

		configASSERT( uxMaxCount != 0 );
		configASSERT( uxInitialCount <= uxMaxCount );

		xHandle = xQueueGenericCreate( uxMaxCount, queueSEMAPHORE_QUEUE_ITEM_LENGTH, queueQUEUE_TYPE_COUNTING_SEMAPHORE );
     a50:	00009ac0 	call	9ac <xQueueGenericCreate>

		if( xHandle != NULL )
     a54:	10000126 	beq	r2,zero,a5c <xQueueCreateCountingSemaphore+0x24>
		{
			( ( Queue_t * ) xHandle )->uxMessagesWaiting = uxInitialCount;
     a58:	14000e15 	stw	r16,56(r2)
			traceCREATE_COUNTING_SEMAPHORE_FAILED();
		}

		configASSERT( xHandle );
		return xHandle;
	}
     a5c:	dfc00117 	ldw	ra,4(sp)
     a60:	dc000017 	ldw	r16,0(sp)
     a64:	dec00204 	addi	sp,sp,8
     a68:	f800283a 	ret

00000a6c <xQueueGenericSend>:

#endif /* configUSE_COUNTING_SEMAPHORES */
/*-----------------------------------------------------------*/

BaseType_t xQueueGenericSend( QueueHandle_t xQueue, const void * const pvItemToQueue, TickType_t xTicksToWait, const BaseType_t xCopyPosition )
{
     a6c:	defff404 	addi	sp,sp,-48
     a70:	dd800915 	stw	r22,36(sp)
     a74:	dd400815 	stw	r21,32(sp)
     a78:	dd000715 	stw	r20,28(sp)
     a7c:	dcc00615 	stw	r19,24(sp)
     a80:	dc800515 	stw	r18,20(sp)
     a84:	dc400415 	stw	r17,16(sp)
     a88:	dc000315 	stw	r16,12(sp)
     a8c:	dfc00b15 	stw	ra,44(sp)
     a90:	ddc00a15 	stw	r23,40(sp)
     a94:	2021883a 	mov	r16,r4
     a98:	2829883a 	mov	r20,r5
     a9c:	d9800215 	stw	r6,8(sp)
     aa0:	3823883a 	mov	r17,r7
BaseType_t xEntryTimeSet = pdFALSE, xYieldRequired;
     aa4:	0027883a 	mov	r19,zero
		{
			/* Is there room on the queue now?  The running task must be the
			highest priority task wanting to access the queue.  If the head item
			in the queue is to be overwritten then it does not matter if the
			queue is full. */
			if( ( pxQueue->uxMessagesWaiting < pxQueue->uxLength ) || ( xCopyPosition == queueOVERWRITE ) )
     aa8:	05400084 	movi	r21,2

		/* Interrupts and other tasks can send to and receive from the queue
		now the critical section has been exited. */

		vTaskSuspendAll();
		prvLockQueue( pxQueue );
     aac:	04bfffc4 	movi	r18,-1
		if( xTaskCheckForTimeOut( &xTimeOut, &xTicksToWait ) == pdFALSE )
		{
			if( prvIsQueueFull( pxQueue ) != pdFALSE )
			{
				traceBLOCKING_ON_QUEUE_SEND( pxQueue );
				vTaskPlaceOnEventList( &( pxQueue->xTasksWaitingToSend ), xTicksToWait );
     ab0:	25800404 	addi	r22,r4,16
	/* This function relaxes the coding standard somewhat to allow return
	statements within the function itself.  This is done in the interest
	of execution time efficiency. */
	for( ;; )
	{
		taskENTER_CRITICAL();
     ab4:	00019300 	call	1930 <vTaskEnterCritical>
		{
			/* Is there room on the queue now?  The running task must be the
			highest priority task wanting to access the queue.  If the head item
			in the queue is to be overwritten then it does not matter if the
			queue is full. */
			if( ( pxQueue->uxMessagesWaiting < pxQueue->uxLength ) || ( xCopyPosition == queueOVERWRITE ) )
     ab8:	80c00e17 	ldw	r3,56(r16)
     abc:	80800f17 	ldw	r2,60(r16)
     ac0:	18800136 	bltu	r3,r2,ac8 <xQueueGenericSend+0x5c>
     ac4:	8d40101e 	bne	r17,r21,b08 <xQueueGenericSend+0x9c>
			{
				traceQUEUE_SEND( pxQueue );
				xYieldRequired = prvCopyDataToQueue( pxQueue, pvItemToQueue, xCopyPosition );
     ac8:	8009883a 	mov	r4,r16
     acc:	a00b883a 	mov	r5,r20
     ad0:	880d883a 	mov	r6,r17
     ad4:	00007380 	call	738 <prvCopyDataToQueue>
				}
				#else /* configUSE_QUEUE_SETS */
				{
					/* If there was a task waiting for data to arrive on the
					queue then unblock it now. */
					if( listLIST_IS_EMPTY( &( pxQueue->xTasksWaitingToReceive ) ) == pdFALSE )
     ad8:	80c00917 	ldw	r3,36(r16)
     adc:	18000526 	beq	r3,zero,af4 <xQueueGenericSend+0x88>
					{
						if( xTaskRemoveFromEventList( &( pxQueue->xTasksWaitingToReceive ) ) == pdTRUE )
     ae0:	81000904 	addi	r4,r16,36
     ae4:	000162c0 	call	162c <xTaskRemoveFromEventList>
     ae8:	00c00044 	movi	r3,1
     aec:	10c0031e 	bne	r2,r3,afc <xQueueGenericSend+0x90>
     af0:	00000106 	br	af8 <xQueueGenericSend+0x8c>
						else
						{
							mtCOVERAGE_TEST_MARKER();
						}
					}
					else if( xYieldRequired != pdFALSE )
     af4:	10000126 	beq	r2,zero,afc <xQueueGenericSend+0x90>
					{
						/* This path is a special case that will only get
						executed if the task was holding multiple mutexes and
						the mutexes were given back in an order that is
						different to that in which they were taken. */
						queueYIELD_IF_USING_PREEMPTION();
     af8:	003b683a 	trap	0
						mtCOVERAGE_TEST_MARKER();
					}
				}
				#endif /* configUSE_QUEUE_SETS */

				taskEXIT_CRITICAL();
     afc:	00019600 	call	1960 <vTaskExitCritical>
				return pdPASS;
     b00:	00800044 	movi	r2,1
     b04:	00002d06 	br	bbc <xQueueGenericSend+0x150>
			}
			else
			{
				if( xTicksToWait == ( TickType_t ) 0 )
     b08:	d8800217 	ldw	r2,8(sp)
     b0c:	1000021e 	bne	r2,zero,b18 <xQueueGenericSend+0xac>
				{
					/* The queue was full and no block time is specified (or
					the block time has expired) so leave now. */
					taskEXIT_CRITICAL();
     b10:	00019600 	call	1960 <vTaskExitCritical>
     b14:	00002806 	br	bb8 <xQueueGenericSend+0x14c>
					/* Return to the original privilege level before exiting
					the function. */
					traceQUEUE_SEND_FAILED( pxQueue );
					return errQUEUE_FULL;
				}
				else if( xEntryTimeSet == pdFALSE )
     b18:	9800021e 	bne	r19,zero,b24 <xQueueGenericSend+0xb8>
				{
					/* The queue was full and a block time was specified so
					configure the timeout structure. */
					vTaskSetTimeOutState( &xTimeOut );
     b1c:	d809883a 	mov	r4,sp
     b20:	000175c0 	call	175c <vTaskSetTimeOutState>
					/* Entry time was already set. */
					mtCOVERAGE_TEST_MARKER();
				}
			}
		}
		taskEXIT_CRITICAL();
     b24:	00019600 	call	1960 <vTaskExitCritical>

		/* Interrupts and other tasks can send to and receive from the queue
		now the critical section has been exited. */

		vTaskSuspendAll();
     b28:	00013040 	call	1304 <vTaskSuspendAll>
		prvLockQueue( pxQueue );
     b2c:	00019300 	call	1930 <vTaskEnterCritical>
     b30:	80801117 	ldw	r2,68(r16)
     b34:	1480011e 	bne	r2,r18,b3c <xQueueGenericSend+0xd0>
     b38:	80001115 	stw	zero,68(r16)
     b3c:	80801217 	ldw	r2,72(r16)
     b40:	1480011e 	bne	r2,r18,b48 <xQueueGenericSend+0xdc>
     b44:	80001215 	stw	zero,72(r16)
     b48:	00019600 	call	1960 <vTaskExitCritical>

		/* Update the timeout state to see if it has expired yet. */
		if( xTaskCheckForTimeOut( &xTimeOut, &xTicksToWait ) == pdFALSE )
     b4c:	d809883a 	mov	r4,sp
     b50:	d9400204 	addi	r5,sp,8
     b54:	000226c0 	call	226c <xTaskCheckForTimeOut>
     b58:	1000141e 	bne	r2,zero,bac <xQueueGenericSend+0x140>

static BaseType_t prvIsQueueFull( const Queue_t *pxQueue )
{
BaseType_t xReturn;

	taskENTER_CRITICAL();
     b5c:	00019300 	call	1930 <vTaskEnterCritical>
	{
		if( pxQueue->uxMessagesWaiting == pxQueue->uxLength )
     b60:	85c00e17 	ldw	r23,56(r16)
     b64:	84c00f17 	ldw	r19,60(r16)
		else
		{
			xReturn = pdFALSE;
		}
	}
	taskEXIT_CRITICAL();
     b68:	00019600 	call	1960 <vTaskExitCritical>
		prvLockQueue( pxQueue );

		/* Update the timeout state to see if it has expired yet. */
		if( xTaskCheckForTimeOut( &xTimeOut, &xTicksToWait ) == pdFALSE )
		{
			if( prvIsQueueFull( pxQueue ) != pdFALSE )
     b6c:	bcc00b1e 	bne	r23,r19,b9c <xQueueGenericSend+0x130>
			{
				traceBLOCKING_ON_QUEUE_SEND( pxQueue );
				vTaskPlaceOnEventList( &( pxQueue->xTasksWaitingToSend ), xTicksToWait );
     b70:	d9400217 	ldw	r5,8(sp)
     b74:	b009883a 	mov	r4,r22
     b78:	00015500 	call	1550 <vTaskPlaceOnEventList>
				/* Unlocking the queue means queue events can effect the
				event list.  It is possible	that interrupts occurring now
				remove this task from the event	list again - but as the
				scheduler is suspended the task will go onto the pending
				ready last instead of the actual ready list. */
				prvUnlockQueue( pxQueue );
     b7c:	8009883a 	mov	r4,r16
     b80:	00008480 	call	848 <prvUnlockQueue>
				/* Resuming the scheduler will move tasks from the pending
				ready list into the ready list - so it is feasible that this
				task is already in a ready list before it yields - in which
				case the yield will not cause a context switch unless there
				is also a higher priority task in the pending ready list. */
				if( xTaskResumeAll() == pdFALSE )
     b84:	0001fec0 	call	1fec <xTaskResumeAll>
     b88:	10000226 	beq	r2,zero,b94 <xQueueGenericSend+0x128>
     b8c:	04c00044 	movi	r19,1
     b90:	003fc806 	br	ab4 <xQueueGenericSend+0x48>
				{
					portYIELD_WITHIN_API();
     b94:	003b683a 	trap	0
     b98:	003ffc06 	br	b8c <xQueueGenericSend+0x120>
				}
			}
			else
			{
				/* Try again. */
				prvUnlockQueue( pxQueue );
     b9c:	8009883a 	mov	r4,r16
     ba0:	00008480 	call	848 <prvUnlockQueue>
				( void ) xTaskResumeAll();
     ba4:	0001fec0 	call	1fec <xTaskResumeAll>
     ba8:	003ff806 	br	b8c <xQueueGenericSend+0x120>
			}
		}
		else
		{
			/* The timeout has expired. */
			prvUnlockQueue( pxQueue );
     bac:	8009883a 	mov	r4,r16
     bb0:	00008480 	call	848 <prvUnlockQueue>
			( void ) xTaskResumeAll();
     bb4:	0001fec0 	call	1fec <xTaskResumeAll>

			/* Return to the original privilege level before exiting the
			function. */
			traceQUEUE_SEND_FAILED( pxQueue );
			return errQUEUE_FULL;
     bb8:	0005883a 	mov	r2,zero
		}
	}
}
     bbc:	dfc00b17 	ldw	ra,44(sp)
     bc0:	ddc00a17 	ldw	r23,40(sp)
     bc4:	dd800917 	ldw	r22,36(sp)
     bc8:	dd400817 	ldw	r21,32(sp)
     bcc:	dd000717 	ldw	r20,28(sp)
     bd0:	dcc00617 	ldw	r19,24(sp)
     bd4:	dc800517 	ldw	r18,20(sp)
     bd8:	dc400417 	ldw	r17,16(sp)
     bdc:	dc000317 	ldw	r16,12(sp)
     be0:	dec00c04 	addi	sp,sp,48
     be4:	f800283a 	ret

00000be8 <xQueueCreateMutex>:
/*-----------------------------------------------------------*/

#if ( configUSE_MUTEXES == 1 )

	QueueHandle_t xQueueCreateMutex( const uint8_t ucQueueType )
	{
     be8:	defffe04 	addi	sp,sp,-8
		/* Prevent compiler warnings about unused parameters if
		configUSE_TRACE_FACILITY does not equal 1. */
		( void ) ucQueueType;

		/* Allocate the new queue structure. */
		pxNewQueue = ( Queue_t * ) pvPortMalloc( sizeof( Queue_t ) );
     bec:	01001304 	movi	r4,76
/*-----------------------------------------------------------*/

#if ( configUSE_MUTEXES == 1 )

	QueueHandle_t xQueueCreateMutex( const uint8_t ucQueueType )
	{
     bf0:	dc000015 	stw	r16,0(sp)
     bf4:	dfc00115 	stw	ra,4(sp)
		/* Prevent compiler warnings about unused parameters if
		configUSE_TRACE_FACILITY does not equal 1. */
		( void ) ucQueueType;

		/* Allocate the new queue structure. */
		pxNewQueue = ( Queue_t * ) pvPortMalloc( sizeof( Queue_t ) );
     bf8:	00006900 	call	690 <pvPortMalloc>
     bfc:	1021883a 	mov	r16,r2
		if( pxNewQueue != NULL )
     c00:	10001426 	beq	r2,zero,c54 <xQueueCreateMutex+0x6c>
		{
			/* Information required for priority inheritance. */
			pxNewQueue->pxMutexHolder = NULL;
     c04:	10000115 	stw	zero,4(r2)
			pxNewQueue->uxQueueType = queueQUEUE_IS_MUTEX;
     c08:	10000015 	stw	zero,0(r2)

			/* Queues used as a mutex no data is actually copied into or out
			of the queue. */
			pxNewQueue->pcWriteTo = NULL;
     c0c:	10000215 	stw	zero,8(r2)
			pxNewQueue->u.pcReadFrom = NULL;
     c10:	10000315 	stw	zero,12(r2)

			/* Each mutex has a length of 1 (like a binary semaphore) and
			an item size of 0 as nothing is actually copied into or out
			of the mutex. */
			pxNewQueue->uxMessagesWaiting = ( UBaseType_t ) 0U;
     c14:	10000e15 	stw	zero,56(r2)
			pxNewQueue->uxLength = ( UBaseType_t ) 1U;
     c18:	00800044 	movi	r2,1
     c1c:	80800f15 	stw	r2,60(r16)
			pxNewQueue->uxItemSize = ( UBaseType_t ) 0U;
			pxNewQueue->xRxLock = queueUNLOCKED;
     c20:	00bfffc4 	movi	r2,-1
     c24:	80801115 	stw	r2,68(r16)
			pxNewQueue->xTxLock = queueUNLOCKED;
     c28:	80801215 	stw	r2,72(r16)
				pxNewQueue->pxQueueSetContainer = NULL;
			}
			#endif

			/* Ensure the event queues start with the correct state. */
			vListInitialise( &( pxNewQueue->xTasksWaitingToSend ) );
     c2c:	81000404 	addi	r4,r16,16
			/* Each mutex has a length of 1 (like a binary semaphore) and
			an item size of 0 as nothing is actually copied into or out
			of the mutex. */
			pxNewQueue->uxMessagesWaiting = ( UBaseType_t ) 0U;
			pxNewQueue->uxLength = ( UBaseType_t ) 1U;
			pxNewQueue->uxItemSize = ( UBaseType_t ) 0U;
     c30:	80001015 	stw	zero,64(r16)
				pxNewQueue->pxQueueSetContainer = NULL;
			}
			#endif

			/* Ensure the event queues start with the correct state. */
			vListInitialise( &( pxNewQueue->xTasksWaitingToSend ) );
     c34:	00002d00 	call	2d0 <vListInitialise>
			vListInitialise( &( pxNewQueue->xTasksWaitingToReceive ) );
     c38:	81000904 	addi	r4,r16,36
     c3c:	00002d00 	call	2d0 <vListInitialise>

			traceCREATE_MUTEX( pxNewQueue );

			/* Start with the semaphore in the expected state. */
			( void ) xQueueGenericSend( pxNewQueue, NULL, ( TickType_t ) 0U, queueSEND_TO_BACK );
     c40:	8009883a 	mov	r4,r16
     c44:	000b883a 	mov	r5,zero
     c48:	000d883a 	mov	r6,zero
     c4c:	000f883a 	mov	r7,zero
     c50:	0000a6c0 	call	a6c <xQueueGenericSend>
			traceCREATE_MUTEX_FAILED();
		}

		configASSERT( pxNewQueue );
		return pxNewQueue;
	}
     c54:	8005883a 	mov	r2,r16
     c58:	dfc00117 	ldw	ra,4(sp)
     c5c:	dc000017 	ldw	r16,0(sp)
     c60:	dec00204 	addi	sp,sp,8
     c64:	f800283a 	ret

00000c68 <xQueueGiveMutexRecursive>:
/*-----------------------------------------------------------*/

#if ( configUSE_RECURSIVE_MUTEXES == 1 )

	BaseType_t xQueueGiveMutexRecursive( QueueHandle_t xMutex )
	{
     c68:	defffd04 	addi	sp,sp,-12
     c6c:	dc000115 	stw	r16,4(sp)
		change outside of this task.  If this task does not hold the mutex then
		pxMutexHolder can never coincidentally equal the tasks handle, and as
		this is the only condition we are interested in it does not matter if
		pxMutexHolder is accessed simultaneously by another task.  Therefore no
		mutual exclusion is required to test the pxMutexHolder variable. */
		if( pxMutex->pxMutexHolder == ( void * ) xTaskGetCurrentTaskHandle() ) /*lint !e961 Not a redundant cast as TaskHandle_t is a typedef. */
     c70:	24000117 	ldw	r16,4(r4)
/*-----------------------------------------------------------*/

#if ( configUSE_RECURSIVE_MUTEXES == 1 )

	BaseType_t xQueueGiveMutexRecursive( QueueHandle_t xMutex )
	{
     c74:	dfc00215 	stw	ra,8(sp)
		change outside of this task.  If this task does not hold the mutex then
		pxMutexHolder can never coincidentally equal the tasks handle, and as
		this is the only condition we are interested in it does not matter if
		pxMutexHolder is accessed simultaneously by another task.  Therefore no
		mutual exclusion is required to test the pxMutexHolder variable. */
		if( pxMutex->pxMutexHolder == ( void * ) xTaskGetCurrentTaskHandle() ) /*lint !e961 Not a redundant cast as TaskHandle_t is a typedef. */
     c78:	d9000015 	stw	r4,0(sp)
     c7c:	00017b00 	call	17b0 <xTaskGetCurrentTaskHandle>
     c80:	d9000017 	ldw	r4,0(sp)
     c84:	8080091e 	bne	r16,r2,cac <xQueueGiveMutexRecursive+0x44>
			/* uxRecursiveCallCount cannot be zero if pxMutexHolder is equal to
			the task handle, therefore no underflow check is required.  Also,
			uxRecursiveCallCount is only modified by the mutex holder, and as
			there can only be one, no mutual exclusion is required to modify the
			uxRecursiveCallCount member. */
			( pxMutex->u.uxRecursiveCallCount )--;
     c88:	20800317 	ldw	r2,12(r4)
     c8c:	10bfffc4 	addi	r2,r2,-1
     c90:	20800315 	stw	r2,12(r4)

			/* Have we unwound the call count? */
			if( pxMutex->u.uxRecursiveCallCount == ( UBaseType_t ) 0 )
     c94:	1000071e 	bne	r2,zero,cb4 <xQueueGiveMutexRecursive+0x4c>
			{
				/* Return the mutex.  This will automatically unblock any other
				task that might be waiting to access the mutex. */
				( void ) xQueueGenericSend( pxMutex, NULL, queueMUTEX_GIVE_BLOCK_TIME, queueSEND_TO_BACK );
     c98:	000b883a 	mov	r5,zero
     c9c:	000d883a 	mov	r6,zero
     ca0:	000f883a 	mov	r7,zero
     ca4:	0000a6c0 	call	a6c <xQueueGenericSend>
     ca8:	00000206 	br	cb4 <xQueueGiveMutexRecursive+0x4c>
		}
		else
		{
			/* The mutex cannot be given because the calling task is not the
			holder. */
			xReturn = pdFAIL;
     cac:	0005883a 	mov	r2,zero
     cb0:	00000106 	br	cb8 <xQueueGiveMutexRecursive+0x50>
			else
			{
				mtCOVERAGE_TEST_MARKER();
			}

			xReturn = pdPASS;
     cb4:	00800044 	movi	r2,1

			traceGIVE_MUTEX_RECURSIVE_FAILED( pxMutex );
		}

		return xReturn;
	}
     cb8:	dfc00217 	ldw	ra,8(sp)
     cbc:	dc000117 	ldw	r16,4(sp)
     cc0:	dec00304 	addi	sp,sp,12
     cc4:	f800283a 	ret

00000cc8 <xQueueGenericSendFromISR>:
	read, instead return a flag to say whether a context switch is required or
	not (i.e. has a task with a higher priority than us been woken by this
	post). */
	uxSavedInterruptStatus = portSET_INTERRUPT_MASK_FROM_ISR();
	{
		if( ( pxQueue->uxMessagesWaiting < pxQueue->uxLength ) || ( xCopyPosition == queueOVERWRITE ) )
     cc8:	20c00e17 	ldw	r3,56(r4)
     ccc:	20800f17 	ldw	r2,60(r4)

#endif /* configUSE_ALTERNATIVE_API */
/*-----------------------------------------------------------*/

BaseType_t xQueueGenericSendFromISR( QueueHandle_t xQueue, const void * const pvItemToQueue, BaseType_t * const pxHigherPriorityTaskWoken, const BaseType_t xCopyPosition )
{
     cd0:	defffd04 	addi	sp,sp,-12
     cd4:	dfc00215 	stw	ra,8(sp)
     cd8:	dc400115 	stw	r17,4(sp)
     cdc:	dc000015 	stw	r16,0(sp)
	read, instead return a flag to say whether a context switch is required or
	not (i.e. has a task with a higher priority than us been woken by this
	post). */
	uxSavedInterruptStatus = portSET_INTERRUPT_MASK_FROM_ISR();
	{
		if( ( pxQueue->uxMessagesWaiting < pxQueue->uxLength ) || ( xCopyPosition == queueOVERWRITE ) )
     ce0:	18800236 	bltu	r3,r2,cec <xQueueGenericSendFromISR+0x24>
     ce4:	00800084 	movi	r2,2
     ce8:	3880151e 	bne	r7,r2,d40 <xQueueGenericSendFromISR+0x78>
     cec:	3023883a 	mov	r17,r6
			/* Semaphores use xQueueGiveFromISR(), so pxQueue will not be a
			semaphore or mutex.  That means prvCopyDataToQueue() cannot result
			in a task disinheriting a priority and prvCopyDataToQueue() can be
			called here even though the disinherit function does not check if
			the scheduler is suspended before accessing the ready lists. */
			( void ) prvCopyDataToQueue( pxQueue, pvItemToQueue, xCopyPosition );
     cf0:	380d883a 	mov	r6,r7
     cf4:	2021883a 	mov	r16,r4
     cf8:	00007380 	call	738 <prvCopyDataToQueue>

			/* The event list is not altered if the queue is locked.  This will
			be done when the queue is unlocked later. */
			if( pxQueue->xTxLock == queueUNLOCKED )
     cfc:	80c01217 	ldw	r3,72(r16)
     d00:	00bfffc4 	movi	r2,-1
     d04:	1880091e 	bne	r3,r2,d2c <xQueueGenericSendFromISR+0x64>
						}
					}
				}
				#else /* configUSE_QUEUE_SETS */
				{
					if( listLIST_IS_EMPTY( &( pxQueue->xTasksWaitingToReceive ) ) == pdFALSE )
     d08:	80800917 	ldw	r2,36(r16)
     d0c:	10000a26 	beq	r2,zero,d38 <xQueueGenericSendFromISR+0x70>
					{
						if( xTaskRemoveFromEventList( &( pxQueue->xTasksWaitingToReceive ) ) != pdFALSE )
     d10:	81000904 	addi	r4,r16,36
     d14:	000162c0 	call	162c <xTaskRemoveFromEventList>
     d18:	10000726 	beq	r2,zero,d38 <xQueueGenericSendFromISR+0x70>
						{
							/* The task waiting has a higher priority so record that a
							context	switch is required. */
							if( pxHigherPriorityTaskWoken != NULL )
     d1c:	88000626 	beq	r17,zero,d38 <xQueueGenericSendFromISR+0x70>
							{
								*pxHigherPriorityTaskWoken = pdTRUE;
     d20:	00800044 	movi	r2,1
     d24:	88800015 	stw	r2,0(r17)
     d28:	00000606 	br	d44 <xQueueGenericSendFromISR+0x7c>
			}
			else
			{
				/* Increment the lock count so the task that unlocks the queue
				knows that data was posted while it was locked. */
				++( pxQueue->xTxLock );
     d2c:	80801217 	ldw	r2,72(r16)
     d30:	10800044 	addi	r2,r2,1
     d34:	80801215 	stw	r2,72(r16)
			}

			xReturn = pdPASS;
     d38:	00800044 	movi	r2,1
     d3c:	00000106 	br	d44 <xQueueGenericSendFromISR+0x7c>
		}
		else
		{
			traceQUEUE_SEND_FROM_ISR_FAILED( pxQueue );
			xReturn = errQUEUE_FULL;
     d40:	0005883a 	mov	r2,zero
		}
	}
	portCLEAR_INTERRUPT_MASK_FROM_ISR( uxSavedInterruptStatus );

	return xReturn;
}
     d44:	dfc00217 	ldw	ra,8(sp)
     d48:	dc400117 	ldw	r17,4(sp)
     d4c:	dc000017 	ldw	r16,0(sp)
     d50:	dec00304 	addi	sp,sp,12
     d54:	f800283a 	ret

00000d58 <xQueueGiveFromISR>:
	uxSavedInterruptStatus = portSET_INTERRUPT_MASK_FROM_ISR();
	{
		/* When the queue is used to implement a semaphore no data is ever
		moved through the queue but it is still valid to see if the queue 'has
		space'. */
		if( pxQueue->uxMessagesWaiting < pxQueue->uxLength )
     d58:	20c00e17 	ldw	r3,56(r4)
     d5c:	20800f17 	ldw	r2,60(r4)
     d60:	1880192e 	bgeu	r3,r2,dc8 <xQueueGiveFromISR+0x70>
			holder - and if there is a mutex holder then the mutex cannot be
			given from an ISR.  As this is the ISR version of the function it
			can be assumed there is no mutex holder and no need to determine if
			priority disinheritance is needed.  Simply increase the count of
			messages (semaphores) available. */
			++( pxQueue->uxMessagesWaiting );
     d64:	20800e17 	ldw	r2,56(r4)
     d68:	10800044 	addi	r2,r2,1
     d6c:	20800e15 	stw	r2,56(r4)

			/* The event list is not altered if the queue is locked.  This will
			be done when the queue is unlocked later. */
			if( pxQueue->xTxLock == queueUNLOCKED )
     d70:	20c01217 	ldw	r3,72(r4)
     d74:	00bfffc4 	movi	r2,-1
     d78:	18800f1e 	bne	r3,r2,db8 <xQueueGiveFromISR+0x60>
						}
					}
				}
				#else /* configUSE_QUEUE_SETS */
				{
					if( listLIST_IS_EMPTY( &( pxQueue->xTasksWaitingToReceive ) ) == pdFALSE )
     d7c:	20800917 	ldw	r2,36(r4)
     d80:	10001726 	beq	r2,zero,de0 <xQueueGiveFromISR+0x88>
	return xReturn;
}
/*-----------------------------------------------------------*/

BaseType_t xQueueGiveFromISR( QueueHandle_t xQueue, BaseType_t * const pxHigherPriorityTaskWoken )
{
     d84:	defffe04 	addi	sp,sp,-8
				}
				#else /* configUSE_QUEUE_SETS */
				{
					if( listLIST_IS_EMPTY( &( pxQueue->xTasksWaitingToReceive ) ) == pdFALSE )
					{
						if( xTaskRemoveFromEventList( &( pxQueue->xTasksWaitingToReceive ) ) != pdFALSE )
     d88:	21000904 	addi	r4,r4,36
	return xReturn;
}
/*-----------------------------------------------------------*/

BaseType_t xQueueGiveFromISR( QueueHandle_t xQueue, BaseType_t * const pxHigherPriorityTaskWoken )
{
     d8c:	dc000015 	stw	r16,0(sp)
     d90:	dfc00115 	stw	ra,4(sp)
     d94:	2821883a 	mov	r16,r5
				}
				#else /* configUSE_QUEUE_SETS */
				{
					if( listLIST_IS_EMPTY( &( pxQueue->xTasksWaitingToReceive ) ) == pdFALSE )
					{
						if( xTaskRemoveFromEventList( &( pxQueue->xTasksWaitingToReceive ) ) != pdFALSE )
     d98:	000162c0 	call	162c <xTaskRemoveFromEventList>
     d9c:	1000021e 	bne	r2,zero,da8 <xQueueGiveFromISR+0x50>
				/* Increment the lock count so the task that unlocks the queue
				knows that data was posted while it was locked. */
				++( pxQueue->xTxLock );
			}

			xReturn = pdPASS;
     da0:	00800044 	movi	r2,1
     da4:	00000a06 	br	dd0 <xQueueGiveFromISR+0x78>
					{
						if( xTaskRemoveFromEventList( &( pxQueue->xTasksWaitingToReceive ) ) != pdFALSE )
						{
							/* The task waiting has a higher priority so record that a
							context	switch is required. */
							if( pxHigherPriorityTaskWoken != NULL )
     da8:	803ffd26 	beq	r16,zero,da0 <xQueueGiveFromISR+0x48>
							{
								*pxHigherPriorityTaskWoken = pdTRUE;
     dac:	00800044 	movi	r2,1
     db0:	80800015 	stw	r2,0(r16)
     db4:	00000606 	br	dd0 <xQueueGiveFromISR+0x78>
			}
			else
			{
				/* Increment the lock count so the task that unlocks the queue
				knows that data was posted while it was locked. */
				++( pxQueue->xTxLock );
     db8:	20801217 	ldw	r2,72(r4)
     dbc:	10800044 	addi	r2,r2,1
     dc0:	20801215 	stw	r2,72(r4)
     dc4:	00000606 	br	de0 <xQueueGiveFromISR+0x88>
			xReturn = pdPASS;
		}
		else
		{
			traceQUEUE_SEND_FROM_ISR_FAILED( pxQueue );
			xReturn = errQUEUE_FULL;
     dc8:	0005883a 	mov	r2,zero
     dcc:	f800283a 	ret
		}
	}
	portCLEAR_INTERRUPT_MASK_FROM_ISR( uxSavedInterruptStatus );

	return xReturn;
}
     dd0:	dfc00117 	ldw	ra,4(sp)
     dd4:	dc000017 	ldw	r16,0(sp)
     dd8:	dec00204 	addi	sp,sp,8
     ddc:	f800283a 	ret
				/* Increment the lock count so the task that unlocks the queue
				knows that data was posted while it was locked. */
				++( pxQueue->xTxLock );
			}

			xReturn = pdPASS;
     de0:	00800044 	movi	r2,1
		}
	}
	portCLEAR_INTERRUPT_MASK_FROM_ISR( uxSavedInterruptStatus );

	return xReturn;
}
     de4:	f800283a 	ret

00000de8 <xQueueGenericReceive>:
/*-----------------------------------------------------------*/

BaseType_t xQueueGenericReceive( QueueHandle_t xQueue, void * const pvBuffer, TickType_t xTicksToWait, const BaseType_t xJustPeeking )
{
     de8:	defff604 	addi	sp,sp,-40
     dec:	dd400815 	stw	r21,32(sp)
     df0:	dd000715 	stw	r20,28(sp)
     df4:	dcc00615 	stw	r19,24(sp)
     df8:	dc800515 	stw	r18,20(sp)
     dfc:	dc400415 	stw	r17,16(sp)
     e00:	dc000315 	stw	r16,12(sp)
     e04:	dfc00915 	stw	ra,36(sp)
     e08:	2021883a 	mov	r16,r4
     e0c:	2827883a 	mov	r19,r5
     e10:	d9800215 	stw	r6,8(sp)
     e14:	3829883a 	mov	r20,r7
BaseType_t xEntryTimeSet = pdFALSE;
     e18:	0025883a 	mov	r18,zero

		/* Interrupts and other tasks can send to and receive from the queue
		now the critical section has been exited. */

		vTaskSuspendAll();
		prvLockQueue( pxQueue );
     e1c:	047fffc4 	movi	r17,-1
						mtCOVERAGE_TEST_MARKER();
					}
				}
				#endif

				vTaskPlaceOnEventList( &( pxQueue->xTasksWaitingToReceive ), xTicksToWait );
     e20:	25400904 	addi	r21,r4,36
	statements within the function itself.  This is done in the interest
	of execution time efficiency. */

	for( ;; )
	{
		taskENTER_CRITICAL();
     e24:	00019300 	call	1930 <vTaskEnterCritical>
		{
			/* Is there data in the queue now?  To be running the calling task
			must be	the highest priority task wanting to access the queue. */
			if( pxQueue->uxMessagesWaiting > ( UBaseType_t ) 0 )
     e28:	80800e17 	ldw	r2,56(r16)
     e2c:	10001d26 	beq	r2,zero,ea4 <xQueueGenericReceive+0xbc>
			{
				/* Remember the read position in case the queue is only being
				peeked. */
				pcOriginalReadPosition = pxQueue->u.pcReadFrom;

				prvCopyDataFromQueue( pxQueue, pvBuffer );
     e30:	8009883a 	mov	r4,r16
     e34:	980b883a 	mov	r5,r19
			must be	the highest priority task wanting to access the queue. */
			if( pxQueue->uxMessagesWaiting > ( UBaseType_t ) 0 )
			{
				/* Remember the read position in case the queue is only being
				peeked. */
				pcOriginalReadPosition = pxQueue->u.pcReadFrom;
     e38:	84400317 	ldw	r17,12(r16)

				prvCopyDataFromQueue( pxQueue, pvBuffer );
     e3c:	00008100 	call	810 <prvCopyDataFromQueue>

				if( xJustPeeking == pdFALSE )
     e40:	a0000e1e 	bne	r20,zero,e7c <xQueueGenericReceive+0x94>
				{
					traceQUEUE_RECEIVE( pxQueue );

					/* Actually removing data, not just peeking. */
					--( pxQueue->uxMessagesWaiting );
     e44:	80800e17 	ldw	r2,56(r16)
     e48:	10bfffc4 	addi	r2,r2,-1
     e4c:	80800e15 	stw	r2,56(r16)

					#if ( configUSE_MUTEXES == 1 )
					{
						if( pxQueue->uxQueueType == queueQUEUE_IS_MUTEX )
     e50:	80800017 	ldw	r2,0(r16)
     e54:	1000021e 	bne	r2,zero,e60 <xQueueGenericReceive+0x78>
						{
							/* Record the information required to implement
							priority inheritance should it become necessary. */
							pxQueue->pxMutexHolder = ( int8_t * ) pvTaskIncrementMutexHeldCount(); /*lint !e961 Cast is not redundant as TaskHandle_t is a typedef. */
     e58:	00023100 	call	2310 <pvTaskIncrementMutexHeldCount>
     e5c:	80800115 	stw	r2,4(r16)
							mtCOVERAGE_TEST_MARKER();
						}
					}
					#endif /* configUSE_MUTEXES */

					if( listLIST_IS_EMPTY( &( pxQueue->xTasksWaitingToSend ) ) == pdFALSE )
     e60:	80800417 	ldw	r2,16(r16)
     e64:	10000c26 	beq	r2,zero,e98 <xQueueGenericReceive+0xb0>
					{
						if( xTaskRemoveFromEventList( &( pxQueue->xTasksWaitingToSend ) ) == pdTRUE )
     e68:	81000404 	addi	r4,r16,16
     e6c:	000162c0 	call	162c <xTaskRemoveFromEventList>
     e70:	00c00044 	movi	r3,1
     e74:	10c0081e 	bne	r2,r3,e98 <xQueueGenericReceive+0xb0>
     e78:	00000606 	br	e94 <xQueueGenericReceive+0xac>
					pointer. */
					pxQueue->u.pcReadFrom = pcOriginalReadPosition;

					/* The data is being left in the queue, so see if there are
					any other tasks waiting for the data. */
					if( listLIST_IS_EMPTY( &( pxQueue->xTasksWaitingToReceive ) ) == pdFALSE )
     e7c:	80800917 	ldw	r2,36(r16)
				{
					traceQUEUE_PEEK( pxQueue );

					/* The data is not being removed, so reset the read
					pointer. */
					pxQueue->u.pcReadFrom = pcOriginalReadPosition;
     e80:	84400315 	stw	r17,12(r16)

					/* The data is being left in the queue, so see if there are
					any other tasks waiting for the data. */
					if( listLIST_IS_EMPTY( &( pxQueue->xTasksWaitingToReceive ) ) == pdFALSE )
     e84:	10000426 	beq	r2,zero,e98 <xQueueGenericReceive+0xb0>
					{
						if( xTaskRemoveFromEventList( &( pxQueue->xTasksWaitingToReceive ) ) != pdFALSE )
     e88:	81000904 	addi	r4,r16,36
     e8c:	000162c0 	call	162c <xTaskRemoveFromEventList>
     e90:	10000126 	beq	r2,zero,e98 <xQueueGenericReceive+0xb0>
						{
							/* The task waiting has a higher priority than this task. */
							queueYIELD_IF_USING_PREEMPTION();
     e94:	003b683a 	trap	0
					{
						mtCOVERAGE_TEST_MARKER();
					}
				}

				taskEXIT_CRITICAL();
     e98:	00019600 	call	1960 <vTaskExitCritical>
				return pdPASS;
     e9c:	00800044 	movi	r2,1
     ea0:	00003206 	br	f6c <xQueueGenericReceive+0x184>
			}
			else
			{
				if( xTicksToWait == ( TickType_t ) 0 )
     ea4:	d8800217 	ldw	r2,8(sp)
     ea8:	1000021e 	bne	r2,zero,eb4 <xQueueGenericReceive+0xcc>
				{
					/* The queue was empty and no block time is specified (or
					the block time has expired) so leave now. */
					taskEXIT_CRITICAL();
     eac:	00019600 	call	1960 <vTaskExitCritical>
     eb0:	00002d06 	br	f68 <xQueueGenericReceive+0x180>
					traceQUEUE_RECEIVE_FAILED( pxQueue );
					return errQUEUE_EMPTY;
				}
				else if( xEntryTimeSet == pdFALSE )
     eb4:	9000021e 	bne	r18,zero,ec0 <xQueueGenericReceive+0xd8>
				{
					/* The queue was empty and a block time was specified so
					configure the timeout structure. */
					vTaskSetTimeOutState( &xTimeOut );
     eb8:	d809883a 	mov	r4,sp
     ebc:	000175c0 	call	175c <vTaskSetTimeOutState>
					/* Entry time was already set. */
					mtCOVERAGE_TEST_MARKER();
				}
			}
		}
		taskEXIT_CRITICAL();
     ec0:	00019600 	call	1960 <vTaskExitCritical>

		/* Interrupts and other tasks can send to and receive from the queue
		now the critical section has been exited. */

		vTaskSuspendAll();
     ec4:	00013040 	call	1304 <vTaskSuspendAll>
		prvLockQueue( pxQueue );
     ec8:	00019300 	call	1930 <vTaskEnterCritical>
     ecc:	80801117 	ldw	r2,68(r16)
     ed0:	1440011e 	bne	r2,r17,ed8 <xQueueGenericReceive+0xf0>
     ed4:	80001115 	stw	zero,68(r16)
     ed8:	80801217 	ldw	r2,72(r16)
     edc:	1440011e 	bne	r2,r17,ee4 <xQueueGenericReceive+0xfc>
     ee0:	80001215 	stw	zero,72(r16)
     ee4:	00019600 	call	1960 <vTaskExitCritical>

		/* Update the timeout state to see if it has expired yet. */
		if( xTaskCheckForTimeOut( &xTimeOut, &xTicksToWait ) == pdFALSE )
     ee8:	d809883a 	mov	r4,sp
     eec:	d9400204 	addi	r5,sp,8
     ef0:	000226c0 	call	226c <xTaskCheckForTimeOut>
     ef4:	1000191e 	bne	r2,zero,f5c <xQueueGenericReceive+0x174>

static BaseType_t prvIsQueueEmpty( const Queue_t *pxQueue )
{
BaseType_t xReturn;

	taskENTER_CRITICAL();
     ef8:	00019300 	call	1930 <vTaskEnterCritical>
	{
		if( pxQueue->uxMessagesWaiting == ( UBaseType_t )  0 )
     efc:	84800e17 	ldw	r18,56(r16)
		else
		{
			xReturn = pdFALSE;
		}
	}
	taskEXIT_CRITICAL();
     f00:	00019600 	call	1960 <vTaskExitCritical>
		prvLockQueue( pxQueue );

		/* Update the timeout state to see if it has expired yet. */
		if( xTaskCheckForTimeOut( &xTimeOut, &xTicksToWait ) == pdFALSE )
		{
			if( prvIsQueueEmpty( pxQueue ) != pdFALSE )
     f04:	9000111e 	bne	r18,zero,f4c <xQueueGenericReceive+0x164>
			{
				traceBLOCKING_ON_QUEUE_RECEIVE( pxQueue );

				#if ( configUSE_MUTEXES == 1 )
				{
					if( pxQueue->uxQueueType == queueQUEUE_IS_MUTEX )
     f08:	80800017 	ldw	r2,0(r16)
     f0c:	1000041e 	bne	r2,zero,f20 <xQueueGenericReceive+0x138>
					{
						taskENTER_CRITICAL();
     f10:	00019300 	call	1930 <vTaskEnterCritical>
						{
							vTaskPriorityInherit( ( void * ) pxQueue->pxMutexHolder );
     f14:	81000117 	ldw	r4,4(r16)
     f18:	00017b80 	call	17b8 <vTaskPriorityInherit>
						}
						taskEXIT_CRITICAL();
     f1c:	00019600 	call	1960 <vTaskExitCritical>
						mtCOVERAGE_TEST_MARKER();
					}
				}
				#endif

				vTaskPlaceOnEventList( &( pxQueue->xTasksWaitingToReceive ), xTicksToWait );
     f20:	d9400217 	ldw	r5,8(sp)
     f24:	a809883a 	mov	r4,r21
     f28:	00015500 	call	1550 <vTaskPlaceOnEventList>
				prvUnlockQueue( pxQueue );
     f2c:	8009883a 	mov	r4,r16
     f30:	00008480 	call	848 <prvUnlockQueue>
				if( xTaskResumeAll() == pdFALSE )
     f34:	0001fec0 	call	1fec <xTaskResumeAll>
     f38:	10000226 	beq	r2,zero,f44 <xQueueGenericReceive+0x15c>
     f3c:	04800044 	movi	r18,1
     f40:	003fb806 	br	e24 <xQueueGenericReceive+0x3c>
				{
					portYIELD_WITHIN_API();
     f44:	003b683a 	trap	0
     f48:	003ffc06 	br	f3c <xQueueGenericReceive+0x154>
				}
			}
			else
			{
				/* Try again. */
				prvUnlockQueue( pxQueue );
     f4c:	8009883a 	mov	r4,r16
     f50:	00008480 	call	848 <prvUnlockQueue>
				( void ) xTaskResumeAll();
     f54:	0001fec0 	call	1fec <xTaskResumeAll>
     f58:	003ff806 	br	f3c <xQueueGenericReceive+0x154>
			}
		}
		else
		{
			prvUnlockQueue( pxQueue );
     f5c:	8009883a 	mov	r4,r16
     f60:	00008480 	call	848 <prvUnlockQueue>
			( void ) xTaskResumeAll();
     f64:	0001fec0 	call	1fec <xTaskResumeAll>
			traceQUEUE_RECEIVE_FAILED( pxQueue );
			return errQUEUE_EMPTY;
     f68:	0005883a 	mov	r2,zero
		}
	}
}
     f6c:	dfc00917 	ldw	ra,36(sp)
     f70:	dd400817 	ldw	r21,32(sp)
     f74:	dd000717 	ldw	r20,28(sp)
     f78:	dcc00617 	ldw	r19,24(sp)
     f7c:	dc800517 	ldw	r18,20(sp)
     f80:	dc400417 	ldw	r17,16(sp)
     f84:	dc000317 	ldw	r16,12(sp)
     f88:	dec00a04 	addi	sp,sp,40
     f8c:	f800283a 	ret

00000f90 <xQueueTakeMutexRecursive>:
/*-----------------------------------------------------------*/

#if ( configUSE_RECURSIVE_MUTEXES == 1 )

	BaseType_t xQueueTakeMutexRecursive( QueueHandle_t xMutex, TickType_t xTicksToWait )
	{
     f90:	defffb04 	addi	sp,sp,-20
     f94:	dcc00315 	stw	r19,12(sp)
		/* Comments regarding mutual exclusion as per those within
		xQueueGiveMutexRecursive(). */

		traceTAKE_MUTEX_RECURSIVE( pxMutex );

		if( pxMutex->pxMutexHolder == ( void * ) xTaskGetCurrentTaskHandle() ) /*lint !e961 Cast is not redundant as TaskHandle_t is a typedef. */
     f98:	24c00117 	ldw	r19,4(r4)
/*-----------------------------------------------------------*/

#if ( configUSE_RECURSIVE_MUTEXES == 1 )

	BaseType_t xQueueTakeMutexRecursive( QueueHandle_t xMutex, TickType_t xTicksToWait )
	{
     f9c:	dc800215 	stw	r18,8(sp)
     fa0:	dc400115 	stw	r17,4(sp)
     fa4:	dc000015 	stw	r16,0(sp)
     fa8:	dfc00415 	stw	ra,16(sp)
     fac:	2021883a 	mov	r16,r4
     fb0:	2825883a 	mov	r18,r5
		/* Comments regarding mutual exclusion as per those within
		xQueueGiveMutexRecursive(). */

		traceTAKE_MUTEX_RECURSIVE( pxMutex );

		if( pxMutex->pxMutexHolder == ( void * ) xTaskGetCurrentTaskHandle() ) /*lint !e961 Cast is not redundant as TaskHandle_t is a typedef. */
     fb4:	00017b00 	call	17b0 <xTaskGetCurrentTaskHandle>
     fb8:	04400044 	movi	r17,1
     fbc:	9880051e 	bne	r19,r2,fd4 <xQueueTakeMutexRecursive+0x44>
		{
			( pxMutex->u.uxRecursiveCallCount )++;
     fc0:	80800317 	ldw	r2,12(r16)
     fc4:	1445883a 	add	r2,r2,r17
     fc8:	80800315 	stw	r2,12(r16)
			xReturn = pdPASS;
     fcc:	8805883a 	mov	r2,r17
     fd0:	00000906 	br	ff8 <xQueueTakeMutexRecursive+0x68>
		}
		else
		{
			xReturn = xQueueGenericReceive( pxMutex, NULL, xTicksToWait, pdFALSE );
     fd4:	8009883a 	mov	r4,r16
     fd8:	000b883a 	mov	r5,zero
     fdc:	900d883a 	mov	r6,r18
     fe0:	000f883a 	mov	r7,zero
     fe4:	0000de80 	call	de8 <xQueueGenericReceive>

			/* pdPASS will only be returned if the mutex was successfully
			obtained.  The calling task may have entered the Blocked state
			before reaching here. */
			if( xReturn == pdPASS )
     fe8:	1440031e 	bne	r2,r17,ff8 <xQueueTakeMutexRecursive+0x68>
			{
				( pxMutex->u.uxRecursiveCallCount )++;
     fec:	80c00317 	ldw	r3,12(r16)
     ff0:	18c00044 	addi	r3,r3,1
     ff4:	80c00315 	stw	r3,12(r16)
				traceTAKE_MUTEX_RECURSIVE_FAILED( pxMutex );
			}
		}

		return xReturn;
	}
     ff8:	dfc00417 	ldw	ra,16(sp)
     ffc:	dcc00317 	ldw	r19,12(sp)
    1000:	dc800217 	ldw	r18,8(sp)
    1004:	dc400117 	ldw	r17,4(sp)
    1008:	dc000017 	ldw	r16,0(sp)
    100c:	dec00504 	addi	sp,sp,20
    1010:	f800283a 	ret

00001014 <xQueueReceiveFromISR>:
	portASSERT_IF_INTERRUPT_PRIORITY_INVALID();

	uxSavedInterruptStatus = portSET_INTERRUPT_MASK_FROM_ISR();
	{
		/* Cannot block in an ISR, so check there is data available. */
		if( pxQueue->uxMessagesWaiting > ( UBaseType_t ) 0 )
    1014:	20800e17 	ldw	r2,56(r4)
	}
}
/*-----------------------------------------------------------*/

BaseType_t xQueueReceiveFromISR( QueueHandle_t xQueue, void * const pvBuffer, BaseType_t * const pxHigherPriorityTaskWoken )
{
    1018:	defffd04 	addi	sp,sp,-12
    101c:	dc000015 	stw	r16,0(sp)
    1020:	dfc00215 	stw	ra,8(sp)
    1024:	dc400115 	stw	r17,4(sp)
    1028:	2021883a 	mov	r16,r4
	portASSERT_IF_INTERRUPT_PRIORITY_INVALID();

	uxSavedInterruptStatus = portSET_INTERRUPT_MASK_FROM_ISR();
	{
		/* Cannot block in an ISR, so check there is data available. */
		if( pxQueue->uxMessagesWaiting > ( UBaseType_t ) 0 )
    102c:	10001626 	beq	r2,zero,1088 <xQueueReceiveFromISR+0x74>
    1030:	3023883a 	mov	r17,r6
		{
			traceQUEUE_RECEIVE_FROM_ISR( pxQueue );

			prvCopyDataFromQueue( pxQueue, pvBuffer );
    1034:	00008100 	call	810 <prvCopyDataFromQueue>
			--( pxQueue->uxMessagesWaiting );
    1038:	80800e17 	ldw	r2,56(r16)
    103c:	10bfffc4 	addi	r2,r2,-1
    1040:	80800e15 	stw	r2,56(r16)

			/* If the queue is locked the event list will not be modified.
			Instead update the lock count so the task that unlocks the queue
			will know that an ISR has removed data while the queue was
			locked. */
			if( pxQueue->xRxLock == queueUNLOCKED )
    1044:	80c01117 	ldw	r3,68(r16)
    1048:	00bfffc4 	movi	r2,-1
    104c:	1880091e 	bne	r3,r2,1074 <xQueueReceiveFromISR+0x60>
			{
				if( listLIST_IS_EMPTY( &( pxQueue->xTasksWaitingToSend ) ) == pdFALSE )
    1050:	80800417 	ldw	r2,16(r16)
    1054:	10000a26 	beq	r2,zero,1080 <xQueueReceiveFromISR+0x6c>
				{
					if( xTaskRemoveFromEventList( &( pxQueue->xTasksWaitingToSend ) ) != pdFALSE )
    1058:	81000404 	addi	r4,r16,16
    105c:	000162c0 	call	162c <xTaskRemoveFromEventList>
    1060:	10000726 	beq	r2,zero,1080 <xQueueReceiveFromISR+0x6c>
					{
						/* The task waiting has a higher priority than us so
						force a context switch. */
						if( pxHigherPriorityTaskWoken != NULL )
    1064:	88000626 	beq	r17,zero,1080 <xQueueReceiveFromISR+0x6c>
						{
							*pxHigherPriorityTaskWoken = pdTRUE;
    1068:	00800044 	movi	r2,1
    106c:	88800015 	stw	r2,0(r17)
    1070:	00000606 	br	108c <xQueueReceiveFromISR+0x78>
			}
			else
			{
				/* Increment the lock count so the task that unlocks the queue
				knows that data was removed while it was locked. */
				++( pxQueue->xRxLock );
    1074:	80801117 	ldw	r2,68(r16)
    1078:	10800044 	addi	r2,r2,1
    107c:	80801115 	stw	r2,68(r16)
			}

			xReturn = pdPASS;
    1080:	00800044 	movi	r2,1
    1084:	00000106 	br	108c <xQueueReceiveFromISR+0x78>
		}
		else
		{
			xReturn = pdFAIL;
    1088:	0005883a 	mov	r2,zero
		}
	}
	portCLEAR_INTERRUPT_MASK_FROM_ISR( uxSavedInterruptStatus );

	return xReturn;
}
    108c:	dfc00217 	ldw	ra,8(sp)
    1090:	dc400117 	ldw	r17,4(sp)
    1094:	dc000017 	ldw	r16,0(sp)
    1098:	dec00304 	addi	sp,sp,12
    109c:	f800283a 	ret

000010a0 <xQueuePeekFromISR>:
	portASSERT_IF_INTERRUPT_PRIORITY_INVALID();

	uxSavedInterruptStatus = portSET_INTERRUPT_MASK_FROM_ISR();
	{
		/* Cannot block in an ISR, so check there is data available. */
		if( pxQueue->uxMessagesWaiting > ( UBaseType_t ) 0 )
    10a0:	20800e17 	ldw	r2,56(r4)
	return xReturn;
}
/*-----------------------------------------------------------*/

BaseType_t xQueuePeekFromISR( QueueHandle_t xQueue,  void * const pvBuffer )
{
    10a4:	defffd04 	addi	sp,sp,-12
    10a8:	dc000015 	stw	r16,0(sp)
    10ac:	dfc00215 	stw	ra,8(sp)
    10b0:	dc400115 	stw	r17,4(sp)
    10b4:	2021883a 	mov	r16,r4
	portASSERT_IF_INTERRUPT_PRIORITY_INVALID();

	uxSavedInterruptStatus = portSET_INTERRUPT_MASK_FROM_ISR();
	{
		/* Cannot block in an ISR, so check there is data available. */
		if( pxQueue->uxMessagesWaiting > ( UBaseType_t ) 0 )
    10b8:	10000526 	beq	r2,zero,10d0 <xQueuePeekFromISR+0x30>
		{
			traceQUEUE_PEEK_FROM_ISR( pxQueue );

			/* Remember the read position so it can be reset as nothing is
			actually being removed from the queue. */
			pcOriginalReadPosition = pxQueue->u.pcReadFrom;
    10bc:	24400317 	ldw	r17,12(r4)
			prvCopyDataFromQueue( pxQueue, pvBuffer );
    10c0:	00008100 	call	810 <prvCopyDataFromQueue>
			pxQueue->u.pcReadFrom = pcOriginalReadPosition;

			xReturn = pdPASS;
    10c4:	00800044 	movi	r2,1

			/* Remember the read position so it can be reset as nothing is
			actually being removed from the queue. */
			pcOriginalReadPosition = pxQueue->u.pcReadFrom;
			prvCopyDataFromQueue( pxQueue, pvBuffer );
			pxQueue->u.pcReadFrom = pcOriginalReadPosition;
    10c8:	84400315 	stw	r17,12(r16)
    10cc:	00000106 	br	10d4 <xQueuePeekFromISR+0x34>

			xReturn = pdPASS;
		}
		else
		{
			xReturn = pdFAIL;
    10d0:	0005883a 	mov	r2,zero
		}
	}
	portCLEAR_INTERRUPT_MASK_FROM_ISR( uxSavedInterruptStatus );

	return xReturn;
}
    10d4:	dfc00217 	ldw	ra,8(sp)
    10d8:	dc400117 	ldw	r17,4(sp)
    10dc:	dc000017 	ldw	r16,0(sp)
    10e0:	dec00304 	addi	sp,sp,12
    10e4:	f800283a 	ret

000010e8 <uxQueueMessagesWaiting>:
/*-----------------------------------------------------------*/

UBaseType_t uxQueueMessagesWaiting( const QueueHandle_t xQueue )
{
    10e8:	defffe04 	addi	sp,sp,-8
    10ec:	dc000015 	stw	r16,0(sp)
    10f0:	2021883a 	mov	r16,r4
    10f4:	dfc00115 	stw	ra,4(sp)
UBaseType_t uxReturn;

	configASSERT( xQueue );

	taskENTER_CRITICAL();
    10f8:	00019300 	call	1930 <vTaskEnterCritical>
	{
		uxReturn = ( ( Queue_t * ) xQueue )->uxMessagesWaiting;
    10fc:	84000e17 	ldw	r16,56(r16)
	}
	taskEXIT_CRITICAL();
    1100:	00019600 	call	1960 <vTaskExitCritical>

	return uxReturn;
} /*lint !e818 Pointer cannot be declared const as xQueue is a typedef not pointer. */
    1104:	8005883a 	mov	r2,r16
    1108:	dfc00117 	ldw	ra,4(sp)
    110c:	dc000017 	ldw	r16,0(sp)
    1110:	dec00204 	addi	sp,sp,8
    1114:	f800283a 	ret

00001118 <uxQueueSpacesAvailable>:
/*-----------------------------------------------------------*/

UBaseType_t uxQueueSpacesAvailable( const QueueHandle_t xQueue )
{
    1118:	defffd04 	addi	sp,sp,-12
    111c:	dfc00215 	stw	ra,8(sp)
    1120:	dc400115 	stw	r17,4(sp)
    1124:	dc000015 	stw	r16,0(sp)
    1128:	2023883a 	mov	r17,r4
Queue_t *pxQueue;

	pxQueue = ( Queue_t * ) xQueue;
	configASSERT( pxQueue );

	taskENTER_CRITICAL();
    112c:	00019300 	call	1930 <vTaskEnterCritical>
	{
		uxReturn = pxQueue->uxLength - pxQueue->uxMessagesWaiting;
    1130:	88800f17 	ldw	r2,60(r17)
    1134:	8c000e17 	ldw	r16,56(r17)
    1138:	1421c83a 	sub	r16,r2,r16
	}
	taskEXIT_CRITICAL();
    113c:	00019600 	call	1960 <vTaskExitCritical>

	return uxReturn;
} /*lint !e818 Pointer cannot be declared const as xQueue is a typedef not pointer. */
    1140:	8005883a 	mov	r2,r16
    1144:	dfc00217 	ldw	ra,8(sp)
    1148:	dc400117 	ldw	r17,4(sp)
    114c:	dc000017 	ldw	r16,0(sp)
    1150:	dec00304 	addi	sp,sp,12
    1154:	f800283a 	ret

00001158 <uxQueueMessagesWaitingFromISR>:
{
UBaseType_t uxReturn;

	configASSERT( xQueue );

	uxReturn = ( ( Queue_t * ) xQueue )->uxMessagesWaiting;
    1158:	20800e17 	ldw	r2,56(r4)

	return uxReturn;
} /*lint !e818 Pointer cannot be declared const as xQueue is a typedef not pointer. */
    115c:	f800283a 	ret

00001160 <vQueueDelete>:
	#if ( configQUEUE_REGISTRY_SIZE > 0 )
	{
		vQueueUnregisterQueue( pxQueue );
	}
	#endif
	vPortFree( pxQueue );
    1160:	000071c1 	jmpi	71c <vPortFree>

00001164 <xQueueIsQueueEmptyFromISR>:
BaseType_t xQueueIsQueueEmptyFromISR( const QueueHandle_t xQueue )
{
BaseType_t xReturn;

	configASSERT( xQueue );
	if( ( ( Queue_t * ) xQueue )->uxMessagesWaiting == ( UBaseType_t ) 0 )
    1164:	20800e17 	ldw	r2,56(r4)
	{
		xReturn = pdFALSE;
	}

	return xReturn;
} /*lint !e818 xQueue could not be pointer to const because it is a typedef. */
    1168:	1005003a 	cmpeq	r2,r2,zero
    116c:	f800283a 	ret

00001170 <xQueueIsQueueFullFromISR>:
BaseType_t xQueueIsQueueFullFromISR( const QueueHandle_t xQueue )
{
BaseType_t xReturn;

	configASSERT( xQueue );
	if( ( ( Queue_t * ) xQueue )->uxMessagesWaiting == ( ( Queue_t * ) xQueue )->uxLength )
    1170:	20c00e17 	ldw	r3,56(r4)
    1174:	20800f17 	ldw	r2,60(r4)
	{
		xReturn = pdFALSE;
	}

	return xReturn;
} /*lint !e818 xQueue could not be pointer to const because it is a typedef. */
    1178:	1885003a 	cmpeq	r2,r3,r2
    117c:	f800283a 	ret

00001180 <prvTaskIsTaskSuspended>:

		/* It does not make sense to check if the calling task is suspended. */
		configASSERT( xTask );

		/* Is the task being resumed actually in the suspended list? */
		if( listIS_CONTAINED_WITHIN( &xSuspendedTaskList, &( pxTCB->xGenericListItem ) ) != pdFALSE )
    1180:	20c00517 	ldw	r3,20(r4)
    1184:	00800034 	movhi	r2,0
    1188:	1094ee04 	addi	r2,r2,21432
    118c:	1880051e 	bne	r3,r2,11a4 <prvTaskIsTaskSuspended+0x24>
		{
			/* Has the task already been resumed from within an ISR? */
			if( listIS_CONTAINED_WITHIN( &xPendingReadyList, &( pxTCB->xEventListItem ) ) == pdFALSE )
    1190:	20c00a17 	ldw	r3,40(r4)
    1194:	01000034 	movhi	r4,0
    1198:	2114f804 	addi	r4,r4,21472
			{
				/* Is it in the suspended list because it is in the	Suspended
				state, or because is is blocked with no timeout? */
				if( listIS_CONTAINED_WITHIN( NULL, &( pxTCB->xEventListItem ) ) != pdFALSE )
    119c:	1805003a 	cmpeq	r2,r3,zero

		/* Is the task being resumed actually in the suspended list? */
		if( listIS_CONTAINED_WITHIN( &xSuspendedTaskList, &( pxTCB->xGenericListItem ) ) != pdFALSE )
		{
			/* Has the task already been resumed from within an ISR? */
			if( listIS_CONTAINED_WITHIN( &xPendingReadyList, &( pxTCB->xEventListItem ) ) == pdFALSE )
    11a0:	1900011e 	bne	r3,r4,11a8 <prvTaskIsTaskSuspended+0x28>

#if ( INCLUDE_vTaskSuspend == 1 )

	static BaseType_t prvTaskIsTaskSuspended( const TaskHandle_t xTask )
	{
	BaseType_t xReturn = pdFALSE;
    11a4:	0005883a 	mov	r2,zero
		{
			mtCOVERAGE_TEST_MARKER();
		}

		return xReturn;
	} /*lint !e818 xTask cannot be a pointer to const because it is a typedef. */
    11a8:	f800283a 	ret

000011ac <prvResetNextTaskUnblockTime>:

static void prvResetNextTaskUnblockTime( void )
{
TCB_t *pxTCB;

	if( listLIST_IS_EMPTY( pxDelayedTaskList ) != pdFALSE )
    11ac:	d0a01d17 	ldw	r2,-32652(gp)
    11b0:	10800017 	ldw	r2,0(r2)
    11b4:	1000021e 	bne	r2,zero,11c0 <prvResetNextTaskUnblockTime+0x14>
	{
		/* The new current delayed list is empty.  Set xNextTaskUnblockTime to
		the maximum possible value so it is	extremely unlikely that the
		if( xTickCount >= xNextTaskUnblockTime ) test will pass until
		there is an item in the delayed list. */
		xNextTaskUnblockTime = portMAX_DELAY;
    11b8:	00bfffc4 	movi	r2,-1
    11bc:	00000406 	br	11d0 <prvResetNextTaskUnblockTime+0x24>
	{
		/* The new current delayed list is not empty, get the value of
		the item at the head of the delayed list.  This is the time at
		which the task at the head of the delayed list should be removed
		from the Blocked state. */
		( pxTCB ) = ( TCB_t * ) listGET_OWNER_OF_HEAD_ENTRY( pxDelayedTaskList );
    11c0:	d0a01d17 	ldw	r2,-32652(gp)
    11c4:	10800317 	ldw	r2,12(r2)
		xNextTaskUnblockTime = listGET_LIST_ITEM_VALUE( &( ( pxTCB )->xGenericListItem ) );
    11c8:	10800317 	ldw	r2,12(r2)
    11cc:	10800117 	ldw	r2,4(r2)
    11d0:	d0a01215 	stw	r2,-32696(gp)
    11d4:	f800283a 	ret

000011d8 <prvAddCurrentTaskToDelayedList>:
/*-----------------------------------------------------------*/

static void prvAddCurrentTaskToDelayedList( const TickType_t xTimeToWake )
{
	/* The list item will be inserted in wake time order. */
	listSET_LIST_ITEM_VALUE( &( pxCurrentTCB->xGenericListItem ), xTimeToWake );
    11d8:	d0a01e17 	ldw	r2,-32648(gp)
    11dc:	11000115 	stw	r4,4(r2)

	if( xTimeToWake < xTickCount )
    11e0:	d0a01917 	ldw	r2,-32668(gp)
    11e4:	2080042e 	bgeu	r4,r2,11f8 <prvAddCurrentTaskToDelayedList+0x20>
	{
		/* Wake time has overflowed.  Place this item in the overflow list. */
		vListInsert( pxOverflowDelayedTaskList, &( pxCurrentTCB->xGenericListItem ) );
    11e8:	d1201c17 	ldw	r4,-32656(gp)
    11ec:	d1601e17 	ldw	r5,-32648(gp)
    11f0:	29400104 	addi	r5,r5,4
    11f4:	00003281 	jmpi	328 <vListInsert>
	#endif /* vTaskDelete */
}
/*-----------------------------------------------------------*/

static void prvAddCurrentTaskToDelayedList( const TickType_t xTimeToWake )
{
    11f8:	defffe04 	addi	sp,sp,-8
    11fc:	dc000015 	stw	r16,0(sp)
    1200:	2021883a 	mov	r16,r4
		vListInsert( pxOverflowDelayedTaskList, &( pxCurrentTCB->xGenericListItem ) );
	}
	else
	{
		/* The wake time has not overflowed, so the current block list is used. */
		vListInsert( pxDelayedTaskList, &( pxCurrentTCB->xGenericListItem ) );
    1204:	d1201d17 	ldw	r4,-32652(gp)
    1208:	d1601e17 	ldw	r5,-32648(gp)
	#endif /* vTaskDelete */
}
/*-----------------------------------------------------------*/

static void prvAddCurrentTaskToDelayedList( const TickType_t xTimeToWake )
{
    120c:	dfc00115 	stw	ra,4(sp)
		vListInsert( pxOverflowDelayedTaskList, &( pxCurrentTCB->xGenericListItem ) );
	}
	else
	{
		/* The wake time has not overflowed, so the current block list is used. */
		vListInsert( pxDelayedTaskList, &( pxCurrentTCB->xGenericListItem ) );
    1210:	29400104 	addi	r5,r5,4
    1214:	00003280 	call	328 <vListInsert>

		/* If the task entering the blocked state was placed at the head of the
		list of blocked tasks then xNextTaskUnblockTime needs to be updated
		too. */
		if( xTimeToWake < xNextTaskUnblockTime )
    1218:	d0a01217 	ldw	r2,-32696(gp)
    121c:	8080012e 	bgeu	r16,r2,1224 <prvAddCurrentTaskToDelayedList+0x4c>
		{
			xNextTaskUnblockTime = xTimeToWake;
    1220:	d4201215 	stw	r16,-32696(gp)
		else
		{
			mtCOVERAGE_TEST_MARKER();
		}
	}
}
    1224:	dfc00117 	ldw	ra,4(sp)
    1228:	dc000017 	ldw	r16,0(sp)
    122c:	dec00204 	addi	sp,sp,8
    1230:	f800283a 	ret

00001234 <uxTaskPriorityGetFromISR>:

		uxSavedInterruptState = portSET_INTERRUPT_MASK_FROM_ISR();
		{
			/* If null is passed in here then it is the priority of the calling
			task that is being queried. */
			pxTCB = prvGetTCBFromHandle( xTask );
    1234:	2000011e 	bne	r4,zero,123c <uxTaskPriorityGetFromISR+0x8>
    1238:	d1201e17 	ldw	r4,-32648(gp)
			uxReturn = pxTCB->uxPriority;
		}
		portCLEAR_INTERRUPT_MASK_FROM_ISR( uxSavedInterruptState );

		return uxReturn;
	}
    123c:	20800b17 	ldw	r2,44(r4)
    1240:	f800283a 	ret

00001244 <xTaskResumeFromISR>:
/*-----------------------------------------------------------*/

#if ( ( INCLUDE_xTaskResumeFromISR == 1 ) && ( INCLUDE_vTaskSuspend == 1 ) )

	BaseType_t xTaskResumeFromISR( TaskHandle_t xTaskToResume )
	{
    1244:	defffc04 	addi	sp,sp,-16
    1248:	dc400115 	stw	r17,4(sp)
    124c:	dfc00315 	stw	ra,12(sp)
    1250:	dc800215 	stw	r18,8(sp)
    1254:	dc000015 	stw	r16,0(sp)
    1258:	2023883a 	mov	r17,r4
		http://www.freertos.org/RTOS-Cortex-M3-M4.html */
		portASSERT_IF_INTERRUPT_PRIORITY_INVALID();

		uxSavedInterruptStatus = portSET_INTERRUPT_MASK_FROM_ISR();
		{
			if( prvTaskIsTaskSuspended( pxTCB ) == pdTRUE )
    125c:	00011800 	call	1180 <prvTaskIsTaskSuspended>
    1260:	00c00044 	movi	r3,1
    1264:	10c0191e 	bne	r2,r3,12cc <xTaskResumeFromISR+0x88>
			{
				traceTASK_RESUME_FROM_ISR( pxTCB );

				/* Check the ready lists can be accessed. */
				if( uxSchedulerSuspended == ( UBaseType_t ) pdFALSE )
    1268:	d0a01117 	ldw	r2,-32700(gp)
    126c:	1000131e 	bne	r2,zero,12bc <xTaskResumeFromISR+0x78>
				{
					/* Ready lists can be accessed so move the task from the
					suspended list to the ready list directly. */
					if( pxTCB->uxPriority >= pxCurrentTCB->uxPriority )
    1270:	d0e01e17 	ldw	r3,-32648(gp)
    1274:	88800b17 	ldw	r2,44(r17)
					else
					{
						mtCOVERAGE_TEST_MARKER();
					}

					( void ) uxListRemove(  &( pxTCB->xGenericListItem ) );
    1278:	8c800104 	addi	r18,r17,4
				/* Check the ready lists can be accessed. */
				if( uxSchedulerSuspended == ( UBaseType_t ) pdFALSE )
				{
					/* Ready lists can be accessed so move the task from the
					suspended list to the ready list directly. */
					if( pxTCB->uxPriority >= pxCurrentTCB->uxPriority )
    127c:	1c000b17 	ldw	r16,44(r3)
					else
					{
						mtCOVERAGE_TEST_MARKER();
					}

					( void ) uxListRemove(  &( pxTCB->xGenericListItem ) );
    1280:	9009883a 	mov	r4,r18
				/* Check the ready lists can be accessed. */
				if( uxSchedulerSuspended == ( UBaseType_t ) pdFALSE )
				{
					/* Ready lists can be accessed so move the task from the
					suspended list to the ready list directly. */
					if( pxTCB->uxPriority >= pxCurrentTCB->uxPriority )
    1284:	1421403a 	cmpgeu	r16,r2,r16
					else
					{
						mtCOVERAGE_TEST_MARKER();
					}

					( void ) uxListRemove(  &( pxTCB->xGenericListItem ) );
    1288:	000037c0 	call	37c <uxListRemove>
					prvAddTaskToReadyList( pxTCB );
    128c:	89000b17 	ldw	r4,44(r17)
    1290:	d0a01817 	ldw	r2,-32672(gp)
    1294:	1100012e 	bgeu	r2,r4,129c <xTaskResumeFromISR+0x58>
    1298:	d1201815 	stw	r4,-32672(gp)
    129c:	01400504 	movi	r5,20
    12a0:	00029180 	call	2918 <__mulsi3>
    12a4:	01000034 	movhi	r4,0
    12a8:	21150704 	addi	r4,r4,21532
    12ac:	2089883a 	add	r4,r4,r2
    12b0:	900b883a 	mov	r5,r18
    12b4:	00002f80 	call	2f8 <vListInsertEnd>
    12b8:	00000506 	br	12d0 <xTaskResumeFromISR+0x8c>
				else
				{
					/* The delayed or ready lists cannot be accessed so the task
					is held in the pending ready list until the scheduler is
					unsuspended. */
					vListInsertEnd( &( xPendingReadyList ), &( pxTCB->xEventListItem ) );
    12bc:	01000034 	movhi	r4,0
    12c0:	2114f804 	addi	r4,r4,21472
    12c4:	89400604 	addi	r5,r17,24
    12c8:	00002f80 	call	2f8 <vListInsertEnd>

#if ( ( INCLUDE_xTaskResumeFromISR == 1 ) && ( INCLUDE_vTaskSuspend == 1 ) )

	BaseType_t xTaskResumeFromISR( TaskHandle_t xTaskToResume )
	{
	BaseType_t xYieldRequired = pdFALSE;
    12cc:	0021883a 	mov	r16,zero
			}
		}
		portCLEAR_INTERRUPT_MASK_FROM_ISR( uxSavedInterruptStatus );

		return xYieldRequired;
	}
    12d0:	8005883a 	mov	r2,r16
    12d4:	dfc00317 	ldw	ra,12(sp)
    12d8:	dc800217 	ldw	r18,8(sp)
    12dc:	dc400117 	ldw	r17,4(sp)
    12e0:	dc000017 	ldw	r16,0(sp)
    12e4:	dec00404 	addi	sp,sp,16
    12e8:	f800283a 	ret

000012ec <vTaskEndScheduler>:
static ALT_INLINE alt_irq_context ALT_ALWAYS_INLINE 
       alt_irq_disable_all (void)
{
  alt_irq_context context;

  NIOS2_READ_STATUS (context);
    12ec:	0007303a 	rdctl	r3,status

  NIOS2_WRITE_STATUS (context & ~NIOS2_STATUS_PIE_MSK);
    12f0:	00bfff84 	movi	r2,-2
    12f4:	1884703a 	and	r2,r3,r2
    12f8:	1001703a 	wrctl	status,r2
{
	/* Stop the scheduler interrupts and call the portable scheduler end
	routine so the original ISRs can be restored if necessary.  The port
	layer must ensure interrupts enable	bit is left in the correct state. */
	portDISABLE_INTERRUPTS();
	xSchedulerRunning = pdFALSE;
    12fc:	d0201715 	stw	zero,-32676(gp)
	vPortEndScheduler();
    1300:	00005681 	jmpi	568 <vPortEndScheduler>

00001304 <vTaskSuspendAll>:
{
	/* A critical section is not required as the variable is of type
	BaseType_t.  Please read Richard Barry's reply in the following link to a
	post in the FreeRTOS support forum before reporting this as a bug! -
	http://goo.gl/wu4acr */
	++uxSchedulerSuspended;
    1304:	d0a01117 	ldw	r2,-32700(gp)
    1308:	10800044 	addi	r2,r2,1
    130c:	d0a01115 	stw	r2,-32700(gp)
    1310:	f800283a 	ret

00001314 <xTaskGetTickCount>:
TickType_t xTicks;

	/* Critical section required if running on a 16 bit processor. */
	portTICK_TYPE_ENTER_CRITICAL();
	{
		xTicks = xTickCount;
    1314:	d0a01917 	ldw	r2,-32668(gp)
	}
	portTICK_TYPE_EXIT_CRITICAL();

	return xTicks;
}
    1318:	f800283a 	ret

0000131c <xTaskGetTickCountFromISR>:
	link: http://www.freertos.org/RTOS-Cortex-M3-M4.html */
	portASSERT_IF_INTERRUPT_PRIORITY_INVALID();

	uxSavedInterruptStatus = portTICK_TYPE_SET_INTERRUPT_MASK_FROM_ISR();
	{
		xReturn = xTickCount;
    131c:	d0a01917 	ldw	r2,-32668(gp)
	}
	portTICK_TYPE_CLEAR_INTERRUPT_MASK_FROM_ISR( uxSavedInterruptStatus );

	return xReturn;
}
    1320:	f800283a 	ret

00001324 <uxTaskGetNumberOfTasks>:

UBaseType_t uxTaskGetNumberOfTasks( void )
{
	/* A critical section is not required because the variables are of type
	BaseType_t. */
	return uxCurrentNumberOfTasks;
    1324:	d0a01a17 	ldw	r2,-32664(gp)
}
    1328:	f800283a 	ret

0000132c <xTaskIncrementTick>:

	/* Called by the portable layer each time a tick interrupt occurs.
	Increments the tick then checks to see if the new tick value will cause any
	tasks to be unblocked. */
	traceTASK_INCREMENT_TICK( xTickCount );
	if( uxSchedulerSuspended == ( UBaseType_t ) pdFALSE )
    132c:	d0a01117 	ldw	r2,-32700(gp)

#endif /* configUSE_TICKLESS_IDLE */
/*----------------------------------------------------------*/

BaseType_t xTaskIncrementTick( void )
{
    1330:	defffa04 	addi	sp,sp,-24
    1334:	dfc00515 	stw	ra,20(sp)
    1338:	dd000415 	stw	r20,16(sp)
    133c:	dcc00315 	stw	r19,12(sp)
    1340:	dc800215 	stw	r18,8(sp)
    1344:	dc400115 	stw	r17,4(sp)
    1348:	dc000015 	stw	r16,0(sp)

	/* Called by the portable layer each time a tick interrupt occurs.
	Increments the tick then checks to see if the new tick value will cause any
	tasks to be unblocked. */
	traceTASK_INCREMENT_TICK( xTickCount );
	if( uxSchedulerSuspended == ( UBaseType_t ) pdFALSE )
    134c:	1000271e 	bne	r2,zero,13ec <xTaskIncrementTick+0xc0>
	{
		/* Increment the RTOS tick, switching the delayed and overflowed
		delayed lists if it wraps to 0. */
		++xTickCount;
    1350:	d0a01917 	ldw	r2,-32668(gp)
    1354:	10800044 	addi	r2,r2,1
    1358:	d0a01915 	stw	r2,-32668(gp)

		{
			/* Minor optimisation.  The tick count cannot change in this
			block. */
			const TickType_t xConstTickCount = xTickCount;
    135c:	d4e01917 	ldw	r19,-32668(gp)

			if( xConstTickCount == ( TickType_t ) 0U )
    1360:	9800081e 	bne	r19,zero,1384 <xTaskIncrementTick+0x58>
			{
				taskSWITCH_DELAYED_LISTS();
    1364:	d0a01d17 	ldw	r2,-32652(gp)
    1368:	d0e01c17 	ldw	r3,-32656(gp)
    136c:	d0e01d15 	stw	r3,-32652(gp)
    1370:	d0a01c15 	stw	r2,-32656(gp)
    1374:	d0a01417 	ldw	r2,-32688(gp)
    1378:	10800044 	addi	r2,r2,1
    137c:	d0a01415 	stw	r2,-32688(gp)
    1380:	00011ac0 	call	11ac <prvResetNextTaskUnblockTime>

			/* See if this tick has made a timeout expire.  Tasks are stored in
			the	queue in the order of their wake time - meaning once one task
			has been found whose block time has not expired there is no need to
			look any further down the list. */
			if( xConstTickCount >= xNextTaskUnblockTime )
    1384:	d0a01217 	ldw	r2,-32696(gp)
    1388:	04800034 	movhi	r18,0
    138c:	94950704 	addi	r18,r18,21532
    1390:	0021883a 	mov	r16,zero
    1394:	98800b36 	bltu	r19,r2,13c4 <xTaskIncrementTick+0x98>
			{
				for( ;; )
				{
					if( listLIST_IS_EMPTY( pxDelayedTaskList ) != pdFALSE )
    1398:	d0a01d17 	ldw	r2,-32652(gp)
    139c:	10800017 	ldw	r2,0(r2)
    13a0:	1000021e 	bne	r2,zero,13ac <xTaskIncrementTick+0x80>
						/* The delayed list is empty.  Set xNextTaskUnblockTime
						to the maximum possible value so it is extremely
						unlikely that the
						if( xTickCount >= xNextTaskUnblockTime ) test will pass
						next time through. */
						xNextTaskUnblockTime = portMAX_DELAY;
    13a4:	00bfffc4 	movi	r2,-1
    13a8:	00000506 	br	13c0 <xTaskIncrementTick+0x94>
					{
						/* The delayed list is not empty, get the value of the
						item at the head of the delayed list.  This is the time
						at which the task at the head of the delayed list must
						be removed from the Blocked state. */
						pxTCB = ( TCB_t * ) listGET_OWNER_OF_HEAD_ENTRY( pxDelayedTaskList );
    13ac:	d0a01d17 	ldw	r2,-32652(gp)
    13b0:	10800317 	ldw	r2,12(r2)
    13b4:	14400317 	ldw	r17,12(r2)
						xItemValue = listGET_LIST_ITEM_VALUE( &( pxTCB->xGenericListItem ) );
    13b8:	88800117 	ldw	r2,4(r17)

						if( xConstTickCount < xItemValue )
    13bc:	9880132e 	bgeu	r19,r2,140c <xTaskIncrementTick+0xe0>
						/* The delayed list is empty.  Set xNextTaskUnblockTime
						to the maximum possible value so it is extremely
						unlikely that the
						if( xTickCount >= xNextTaskUnblockTime ) test will pass
						next time through. */
						xNextTaskUnblockTime = portMAX_DELAY;
    13c0:	d0a01215 	stw	r2,-32696(gp)
		/* Tasks of equal priority to the currently running task will share
		processing time (time slice) if preemption is on, and the application
		writer has not explicitly turned time slicing off. */
		#if ( ( configUSE_PREEMPTION == 1 ) && ( configUSE_TIME_SLICING == 1 ) )
		{
			if( listCURRENT_LIST_LENGTH( &( pxReadyTasksLists[ pxCurrentTCB->uxPriority ] ) ) > ( UBaseType_t ) 1 )
    13c4:	d0a01e17 	ldw	r2,-32648(gp)
    13c8:	01400504 	movi	r5,20
    13cc:	11000b17 	ldw	r4,44(r2)
    13d0:	00029180 	call	2918 <__mulsi3>
    13d4:	9085883a 	add	r2,r18,r2
    13d8:	10800017 	ldw	r2,0(r2)
    13dc:	00c00044 	movi	r3,1
    13e0:	1880062e 	bgeu	r3,r2,13fc <xTaskIncrementTick+0xd0>
			{
				xSwitchRequired = pdTRUE;
    13e4:	1821883a 	mov	r16,r3
    13e8:	00000406 	br	13fc <xTaskIncrementTick+0xd0>
		}
		#endif /* configUSE_TICK_HOOK */
	}
	else
	{
		++uxPendedTicks;
    13ec:	d0a01617 	ldw	r2,-32680(gp)

BaseType_t xTaskIncrementTick( void )
{
TCB_t * pxTCB;
TickType_t xItemValue;
BaseType_t xSwitchRequired = pdFALSE;
    13f0:	0021883a 	mov	r16,zero
		}
		#endif /* configUSE_TICK_HOOK */
	}
	else
	{
		++uxPendedTicks;
    13f4:	10800044 	addi	r2,r2,1
    13f8:	d0a01615 	stw	r2,-32680(gp)
		#endif
	}

	#if ( configUSE_PREEMPTION == 1 )
	{
		if( xYieldPending != pdFALSE )
    13fc:	d0a01517 	ldw	r2,-32684(gp)
    1400:	10001826 	beq	r2,zero,1464 <xTaskIncrementTick+0x138>
		{
			xSwitchRequired = pdTRUE;
    1404:	04000044 	movi	r16,1
    1408:	00001606 	br	1464 <xTaskIncrementTick+0x138>
						{
							mtCOVERAGE_TEST_MARKER();
						}

						/* It is time to remove the item from the Blocked state. */
						( void ) uxListRemove( &( pxTCB->xGenericListItem ) );
    140c:	8d000104 	addi	r20,r17,4
    1410:	a009883a 	mov	r4,r20
    1414:	000037c0 	call	37c <uxListRemove>

						/* Is the task waiting on an event also?  If so remove
						it from the event list. */
						if( listLIST_ITEM_CONTAINER( &( pxTCB->xEventListItem ) ) != NULL )
    1418:	88800a17 	ldw	r2,40(r17)
    141c:	10000226 	beq	r2,zero,1428 <xTaskIncrementTick+0xfc>
						{
							( void ) uxListRemove( &( pxTCB->xEventListItem ) );
    1420:	89000604 	addi	r4,r17,24
    1424:	000037c0 	call	37c <uxListRemove>
							mtCOVERAGE_TEST_MARKER();
						}

						/* Place the unblocked task into the appropriate ready
						list. */
						prvAddTaskToReadyList( pxTCB );
    1428:	89000b17 	ldw	r4,44(r17)
    142c:	d0a01817 	ldw	r2,-32672(gp)
    1430:	1100012e 	bgeu	r2,r4,1438 <xTaskIncrementTick+0x10c>
    1434:	d1201815 	stw	r4,-32672(gp)
    1438:	01400504 	movi	r5,20
    143c:	00029180 	call	2918 <__mulsi3>
    1440:	9089883a 	add	r4,r18,r2
    1444:	a00b883a 	mov	r5,r20
    1448:	00002f80 	call	2f8 <vListInsertEnd>
						{
							/* Preemption is on, but a context switch should
							only be performed if the unblocked task has a
							priority that is equal to or higher than the
							currently executing task. */
							if( pxTCB->uxPriority >= pxCurrentTCB->uxPriority )
    144c:	d0a01e17 	ldw	r2,-32648(gp)
    1450:	88c00b17 	ldw	r3,44(r17)
    1454:	10800b17 	ldw	r2,44(r2)
    1458:	18bfcf36 	bltu	r3,r2,1398 <xTaskIncrementTick+0x6c>
							{
								xSwitchRequired = pdTRUE;
    145c:	04000044 	movi	r16,1
    1460:	003fcd06 	br	1398 <xTaskIncrementTick+0x6c>
		}
	}
	#endif /* configUSE_PREEMPTION */

	return xSwitchRequired;
}
    1464:	8005883a 	mov	r2,r16
    1468:	dfc00517 	ldw	ra,20(sp)
    146c:	dd000417 	ldw	r20,16(sp)
    1470:	dcc00317 	ldw	r19,12(sp)
    1474:	dc800217 	ldw	r18,8(sp)
    1478:	dc400117 	ldw	r17,4(sp)
    147c:	dc000017 	ldw	r16,0(sp)
    1480:	dec00604 	addi	sp,sp,24
    1484:	f800283a 	ret

00001488 <vTaskSwitchContext>:
#endif /* configUSE_APPLICATION_TASK_TAG */
/*-----------------------------------------------------------*/

void vTaskSwitchContext( void )
{
	if( uxSchedulerSuspended != ( UBaseType_t ) pdFALSE )
    1488:	d0a01117 	ldw	r2,-32700(gp)
    148c:	10000326 	beq	r2,zero,149c <vTaskSwitchContext+0x14>
	{
		/* The scheduler is currently suspended - do not allow a context
		switch. */
		xYieldPending = pdTRUE;
    1490:	00800044 	movi	r2,1
    1494:	d0a01515 	stw	r2,-32684(gp)
    1498:	f800283a 	ret

#endif /* configUSE_APPLICATION_TASK_TAG */
/*-----------------------------------------------------------*/

void vTaskSwitchContext( void )
{
    149c:	defffd04 	addi	sp,sp,-12
    14a0:	dc400115 	stw	r17,4(sp)
		taskFIRST_CHECK_FOR_STACK_OVERFLOW();
		taskSECOND_CHECK_FOR_STACK_OVERFLOW();

		/* Select a new task to run using either the generic C or port
		optimised asm code. */
		taskSELECT_HIGHEST_PRIORITY_TASK();
    14a4:	04400034 	movhi	r17,0

#endif /* configUSE_APPLICATION_TASK_TAG */
/*-----------------------------------------------------------*/

void vTaskSwitchContext( void )
{
    14a8:	dfc00215 	stw	ra,8(sp)
    14ac:	dc000015 	stw	r16,0(sp)
		switch. */
		xYieldPending = pdTRUE;
	}
	else
	{
		xYieldPending = pdFALSE;
    14b0:	d0201515 	stw	zero,-32684(gp)
		taskFIRST_CHECK_FOR_STACK_OVERFLOW();
		taskSECOND_CHECK_FOR_STACK_OVERFLOW();

		/* Select a new task to run using either the generic C or port
		optimised asm code. */
		taskSELECT_HIGHEST_PRIORITY_TASK();
    14b4:	8c550704 	addi	r17,r17,21532
    14b8:	d1201817 	ldw	r4,-32672(gp)
    14bc:	01400504 	movi	r5,20
    14c0:	04000034 	movhi	r16,0
    14c4:	00029180 	call	2918 <__mulsi3>
    14c8:	8885883a 	add	r2,r17,r2
    14cc:	10800017 	ldw	r2,0(r2)
    14d0:	84150704 	addi	r16,r16,21532
    14d4:	1000041e 	bne	r2,zero,14e8 <vTaskSwitchContext+0x60>
    14d8:	d0a01817 	ldw	r2,-32672(gp)
    14dc:	10bfffc4 	addi	r2,r2,-1
    14e0:	d0a01815 	stw	r2,-32672(gp)
    14e4:	003ff406 	br	14b8 <vTaskSwitchContext+0x30>
    14e8:	d4601817 	ldw	r17,-32672(gp)
    14ec:	01400504 	movi	r5,20
    14f0:	8809883a 	mov	r4,r17
    14f4:	00029180 	call	2918 <__mulsi3>
    14f8:	8087883a 	add	r3,r16,r2
    14fc:	18c00104 	addi	r3,r3,4
    1500:	19000017 	ldw	r4,0(r3)
    1504:	10800204 	addi	r2,r2,8
    1508:	1405883a 	add	r2,r2,r16
    150c:	21400117 	ldw	r5,4(r4)
    1510:	19400015 	stw	r5,0(r3)
    1514:	2880021e 	bne	r5,r2,1520 <vTaskSwitchContext+0x98>
    1518:	28800117 	ldw	r2,4(r5)
    151c:	18800015 	stw	r2,0(r3)
    1520:	8809883a 	mov	r4,r17
    1524:	01400504 	movi	r5,20
    1528:	00029180 	call	2918 <__mulsi3>
    152c:	8085883a 	add	r2,r16,r2
    1530:	10800117 	ldw	r2,4(r2)
    1534:	10800317 	ldw	r2,12(r2)
    1538:	d0a01e15 	stw	r2,-32648(gp)
			structure specific to this task. */
			_impure_ptr = &( pxCurrentTCB->xNewLib_reent );
		}
		#endif /* configUSE_NEWLIB_REENTRANT */
	}
}
    153c:	dfc00217 	ldw	ra,8(sp)
    1540:	dc400117 	ldw	r17,4(sp)
    1544:	dc000017 	ldw	r16,0(sp)
    1548:	dec00304 	addi	sp,sp,12
    154c:	f800283a 	ret

00001550 <vTaskPlaceOnEventList>:
/*-----------------------------------------------------------*/

void vTaskPlaceOnEventList( List_t * const pxEventList, const TickType_t xTicksToWait )
{
    1550:	defffe04 	addi	sp,sp,-8
    1554:	dc000015 	stw	r16,0(sp)
    1558:	2821883a 	mov	r16,r5

	/* Place the event list item of the TCB in the appropriate event list.
	This is placed in the list in priority order so the highest priority task
	is the first to be woken by the event.  The queue that contains the event
	list is locked, preventing simultaneous access from interrupts. */
	vListInsert( pxEventList, &( pxCurrentTCB->xEventListItem ) );
    155c:	d1601e17 	ldw	r5,-32648(gp)
	}
}
/*-----------------------------------------------------------*/

void vTaskPlaceOnEventList( List_t * const pxEventList, const TickType_t xTicksToWait )
{
    1560:	dfc00115 	stw	ra,4(sp)

	/* Place the event list item of the TCB in the appropriate event list.
	This is placed in the list in priority order so the highest priority task
	is the first to be woken by the event.  The queue that contains the event
	list is locked, preventing simultaneous access from interrupts. */
	vListInsert( pxEventList, &( pxCurrentTCB->xEventListItem ) );
    1564:	29400604 	addi	r5,r5,24
    1568:	00003280 	call	328 <vListInsert>

	/* The task must be removed from from the ready list before it is added to
	the blocked list as the same list item is used for both lists.  Exclusive
	access to the ready lists guaranteed because the scheduler is locked. */
	if( uxListRemove( &( pxCurrentTCB->xGenericListItem ) ) == ( UBaseType_t ) 0 )
    156c:	d1201e17 	ldw	r4,-32648(gp)
    1570:	21000104 	addi	r4,r4,4
    1574:	000037c0 	call	37c <uxListRemove>
		mtCOVERAGE_TEST_MARKER();
	}

	#if ( INCLUDE_vTaskSuspend == 1 )
	{
		if( xTicksToWait == portMAX_DELAY )
    1578:	00bfffc4 	movi	r2,-1
    157c:	8080081e 	bne	r16,r2,15a0 <vTaskPlaceOnEventList+0x50>
		{
			/* Add the task to the suspended task list instead of a delayed task
			list to ensure the task is not woken by a timing event.  It will
			block indefinitely. */
			vListInsertEnd( &xSuspendedTaskList, &( pxCurrentTCB->xGenericListItem ) );
    1580:	d1601e17 	ldw	r5,-32648(gp)
    1584:	01000034 	movhi	r4,0
    1588:	2114ee04 	addi	r4,r4,21432
    158c:	29400104 	addi	r5,r5,4
			will handle it. */
			xTimeToWake = xTickCount + xTicksToWait;
			prvAddCurrentTaskToDelayedList( xTimeToWake );
	}
	#endif /* INCLUDE_vTaskSuspend */
}
    1590:	dfc00117 	ldw	ra,4(sp)
    1594:	dc000017 	ldw	r16,0(sp)
    1598:	dec00204 	addi	sp,sp,8
		if( xTicksToWait == portMAX_DELAY )
		{
			/* Add the task to the suspended task list instead of a delayed task
			list to ensure the task is not woken by a timing event.  It will
			block indefinitely. */
			vListInsertEnd( &xSuspendedTaskList, &( pxCurrentTCB->xGenericListItem ) );
    159c:	00002f81 	jmpi	2f8 <vListInsertEnd>
		else
		{
			/* Calculate the time at which the task should be woken if the event
			does not occur.  This may overflow but this doesn't matter, the
			scheduler will handle it. */
			xTimeToWake = xTickCount + xTicksToWait;
    15a0:	d1201917 	ldw	r4,-32668(gp)
			prvAddCurrentTaskToDelayedList( xTimeToWake );
    15a4:	8109883a 	add	r4,r16,r4
			will handle it. */
			xTimeToWake = xTickCount + xTicksToWait;
			prvAddCurrentTaskToDelayedList( xTimeToWake );
	}
	#endif /* INCLUDE_vTaskSuspend */
}
    15a8:	dfc00117 	ldw	ra,4(sp)
    15ac:	dc000017 	ldw	r16,0(sp)
    15b0:	dec00204 	addi	sp,sp,8
		{
			/* Calculate the time at which the task should be woken if the event
			does not occur.  This may overflow but this doesn't matter, the
			scheduler will handle it. */
			xTimeToWake = xTickCount + xTicksToWait;
			prvAddCurrentTaskToDelayedList( xTimeToWake );
    15b4:	00011d81 	jmpi	11d8 <prvAddCurrentTaskToDelayedList>

000015b8 <vTaskPlaceOnUnorderedEventList>:
	configASSERT( uxSchedulerSuspended != 0 );

	/* Store the item value in the event list item.  It is safe to access the
	event list item here as interrupts won't access the event list item of a
	task that is not in the Blocked state. */
	listSET_LIST_ITEM_VALUE( &( pxCurrentTCB->xEventListItem ), xItemValue | taskEVENT_LIST_ITEM_VALUE_IN_USE );
    15b8:	d0a01e17 	ldw	r2,-32648(gp)
	#endif /* INCLUDE_vTaskSuspend */
}
/*-----------------------------------------------------------*/

void vTaskPlaceOnUnorderedEventList( List_t * pxEventList, const TickType_t xItemValue, const TickType_t xTicksToWait )
{
    15bc:	defffe04 	addi	sp,sp,-8
    15c0:	dfc00115 	stw	ra,4(sp)
    15c4:	dc000015 	stw	r16,0(sp)
	configASSERT( uxSchedulerSuspended != 0 );

	/* Store the item value in the event list item.  It is safe to access the
	event list item here as interrupts won't access the event list item of a
	task that is not in the Blocked state. */
	listSET_LIST_ITEM_VALUE( &( pxCurrentTCB->xEventListItem ), xItemValue | taskEVENT_LIST_ITEM_VALUE_IN_USE );
    15c8:	29600034 	orhi	r5,r5,32768
    15cc:	11400615 	stw	r5,24(r2)
	/* Place the event list item of the TCB at the end of the appropriate event
	list.  It is safe to access the event list here because it is part of an
	event group implementation - and interrupts don't access event groups
	directly (instead they access them indirectly by pending function calls to
	the task level). */
	vListInsertEnd( pxEventList, &( pxCurrentTCB->xEventListItem ) );
    15d0:	d1601e17 	ldw	r5,-32648(gp)
	#endif /* INCLUDE_vTaskSuspend */
}
/*-----------------------------------------------------------*/

void vTaskPlaceOnUnorderedEventList( List_t * pxEventList, const TickType_t xItemValue, const TickType_t xTicksToWait )
{
    15d4:	3021883a 	mov	r16,r6
	/* Place the event list item of the TCB at the end of the appropriate event
	list.  It is safe to access the event list here because it is part of an
	event group implementation - and interrupts don't access event groups
	directly (instead they access them indirectly by pending function calls to
	the task level). */
	vListInsertEnd( pxEventList, &( pxCurrentTCB->xEventListItem ) );
    15d8:	29400604 	addi	r5,r5,24
    15dc:	00002f80 	call	2f8 <vListInsertEnd>

	/* The task must be removed from the ready list before it is added to the
	blocked list.  Exclusive access can be assured to the ready list as the
	scheduler is locked. */
	if( uxListRemove( &( pxCurrentTCB->xGenericListItem ) ) == ( UBaseType_t ) 0 )
    15e0:	d1201e17 	ldw	r4,-32648(gp)
    15e4:	21000104 	addi	r4,r4,4
    15e8:	000037c0 	call	37c <uxListRemove>
		mtCOVERAGE_TEST_MARKER();
	}

	#if ( INCLUDE_vTaskSuspend == 1 )
	{
		if( xTicksToWait == portMAX_DELAY )
    15ec:	00bfffc4 	movi	r2,-1
    15f0:	8080081e 	bne	r16,r2,1614 <vTaskPlaceOnUnorderedEventList+0x5c>
		{
			/* Add the task to the suspended task list instead of a delayed task
			list to ensure it is not woken by a timing event.  It will block
			indefinitely. */
			vListInsertEnd( &xSuspendedTaskList, &( pxCurrentTCB->xGenericListItem ) );
    15f4:	d1601e17 	ldw	r5,-32648(gp)
    15f8:	01000034 	movhi	r4,0
    15fc:	2114ee04 	addi	r4,r4,21432
    1600:	29400104 	addi	r5,r5,4
			will manage it correctly. */
			xTimeToWake = xTickCount + xTicksToWait;
			prvAddCurrentTaskToDelayedList( xTimeToWake );
	}
	#endif /* INCLUDE_vTaskSuspend */
}
    1604:	dfc00117 	ldw	ra,4(sp)
    1608:	dc000017 	ldw	r16,0(sp)
    160c:	dec00204 	addi	sp,sp,8
		if( xTicksToWait == portMAX_DELAY )
		{
			/* Add the task to the suspended task list instead of a delayed task
			list to ensure it is not woken by a timing event.  It will block
			indefinitely. */
			vListInsertEnd( &xSuspendedTaskList, &( pxCurrentTCB->xGenericListItem ) );
    1610:	00002f81 	jmpi	2f8 <vListInsertEnd>
		else
		{
			/* Calculate the time at which the task should be woken if the event
			does not occur.  This may overflow but this doesn't matter, the
			kernel will manage it correctly. */
			xTimeToWake = xTickCount + xTicksToWait;
    1614:	d1201917 	ldw	r4,-32668(gp)
			prvAddCurrentTaskToDelayedList( xTimeToWake );
    1618:	8109883a 	add	r4,r16,r4
			will manage it correctly. */
			xTimeToWake = xTickCount + xTicksToWait;
			prvAddCurrentTaskToDelayedList( xTimeToWake );
	}
	#endif /* INCLUDE_vTaskSuspend */
}
    161c:	dfc00117 	ldw	ra,4(sp)
    1620:	dc000017 	ldw	r16,0(sp)
    1624:	dec00204 	addi	sp,sp,8
		{
			/* Calculate the time at which the task should be woken if the event
			does not occur.  This may overflow but this doesn't matter, the
			kernel will manage it correctly. */
			xTimeToWake = xTickCount + xTicksToWait;
			prvAddCurrentTaskToDelayedList( xTimeToWake );
    1628:	00011d81 	jmpi	11d8 <prvAddCurrentTaskToDelayedList>

0000162c <xTaskRemoveFromEventList>:
	get called - the lock count on the queue will get modified instead.  This
	means exclusive access to the event list is guaranteed here.

	This function assumes that a check has already been made to ensure that
	pxEventList is not empty. */
	pxUnblockedTCB = ( TCB_t * ) listGET_OWNER_OF_HEAD_ENTRY( pxEventList );
    162c:	20800317 	ldw	r2,12(r4)

#endif /* configUSE_TIMERS */
/*-----------------------------------------------------------*/

BaseType_t xTaskRemoveFromEventList( const List_t * const pxEventList )
{
    1630:	defffd04 	addi	sp,sp,-12
    1634:	dc000015 	stw	r16,0(sp)
	get called - the lock count on the queue will get modified instead.  This
	means exclusive access to the event list is guaranteed here.

	This function assumes that a check has already been made to ensure that
	pxEventList is not empty. */
	pxUnblockedTCB = ( TCB_t * ) listGET_OWNER_OF_HEAD_ENTRY( pxEventList );
    1638:	14000317 	ldw	r16,12(r2)

#endif /* configUSE_TIMERS */
/*-----------------------------------------------------------*/

BaseType_t xTaskRemoveFromEventList( const List_t * const pxEventList )
{
    163c:	dc400115 	stw	r17,4(sp)
    1640:	dfc00215 	stw	ra,8(sp)

	This function assumes that a check has already been made to ensure that
	pxEventList is not empty. */
	pxUnblockedTCB = ( TCB_t * ) listGET_OWNER_OF_HEAD_ENTRY( pxEventList );
	configASSERT( pxUnblockedTCB );
	( void ) uxListRemove( &( pxUnblockedTCB->xEventListItem ) );
    1644:	84400604 	addi	r17,r16,24
    1648:	8809883a 	mov	r4,r17
    164c:	000037c0 	call	37c <uxListRemove>

	if( uxSchedulerSuspended == ( UBaseType_t ) pdFALSE )
    1650:	d0a01117 	ldw	r2,-32700(gp)
    1654:	10000d1e 	bne	r2,zero,168c <xTaskRemoveFromEventList+0x60>
	{
		( void ) uxListRemove( &( pxUnblockedTCB->xGenericListItem ) );
    1658:	84400104 	addi	r17,r16,4
    165c:	8809883a 	mov	r4,r17
    1660:	000037c0 	call	37c <uxListRemove>
		prvAddTaskToReadyList( pxUnblockedTCB );
    1664:	81000b17 	ldw	r4,44(r16)
    1668:	d0a01817 	ldw	r2,-32672(gp)
    166c:	1100012e 	bgeu	r2,r4,1674 <xTaskRemoveFromEventList+0x48>
    1670:	d1201815 	stw	r4,-32672(gp)
    1674:	01400504 	movi	r5,20
    1678:	00029180 	call	2918 <__mulsi3>
    167c:	01000034 	movhi	r4,0
    1680:	21150704 	addi	r4,r4,21532
    1684:	2089883a 	add	r4,r4,r2
    1688:	00000206 	br	1694 <xTaskRemoveFromEventList+0x68>
	}
	else
	{
		/* The delayed and ready lists cannot be accessed, so hold this task
		pending until the scheduler is resumed. */
		vListInsertEnd( &( xPendingReadyList ), &( pxUnblockedTCB->xEventListItem ) );
    168c:	01000034 	movhi	r4,0
    1690:	2114f804 	addi	r4,r4,21472
    1694:	880b883a 	mov	r5,r17
    1698:	00002f80 	call	2f8 <vListInsertEnd>
	}

	if( pxUnblockedTCB->uxPriority > pxCurrentTCB->uxPriority )
    169c:	d0e01e17 	ldw	r3,-32648(gp)
    16a0:	80800b17 	ldw	r2,44(r16)
    16a4:	18c00b17 	ldw	r3,44(r3)
    16a8:	1880032e 	bgeu	r3,r2,16b8 <xTaskRemoveFromEventList+0x8c>
		it should force a context switch now. */
		xReturn = pdTRUE;

		/* Mark that a yield is pending in case the user is not using the
		"xHigherPriorityTaskWoken" parameter to an ISR safe FreeRTOS function. */
		xYieldPending = pdTRUE;
    16ac:	00800044 	movi	r2,1
    16b0:	d0a01515 	stw	r2,-32684(gp)
    16b4:	00000106 	br	16bc <xTaskRemoveFromEventList+0x90>
	}
	else
	{
		xReturn = pdFALSE;
    16b8:	0005883a 	mov	r2,zero
		prvResetNextTaskUnblockTime();
	}
	#endif

	return xReturn;
}
    16bc:	dfc00217 	ldw	ra,8(sp)
    16c0:	dc400117 	ldw	r17,4(sp)
    16c4:	dc000017 	ldw	r16,0(sp)
    16c8:	dec00304 	addi	sp,sp,12
    16cc:	f800283a 	ret

000016d0 <xTaskRemoveFromUnorderedEventList>:
/*-----------------------------------------------------------*/

BaseType_t xTaskRemoveFromUnorderedEventList( ListItem_t * pxEventListItem, const TickType_t xItemValue )
{
    16d0:	defffd04 	addi	sp,sp,-12
    16d4:	dc000015 	stw	r16,0(sp)
	/* Store the new item value in the event list. */
	listSET_LIST_ITEM_VALUE( pxEventListItem, xItemValue | taskEVENT_LIST_ITEM_VALUE_IN_USE );

	/* Remove the event list form the event flag.  Interrupts do not access
	event flags. */
	pxUnblockedTCB = ( TCB_t * ) listGET_LIST_ITEM_OWNER( pxEventListItem );
    16d8:	24000317 	ldw	r16,12(r4)
	return xReturn;
}
/*-----------------------------------------------------------*/

BaseType_t xTaskRemoveFromUnorderedEventList( ListItem_t * pxEventListItem, const TickType_t xItemValue )
{
    16dc:	dfc00215 	stw	ra,8(sp)
    16e0:	dc400115 	stw	r17,4(sp)
	/* THIS FUNCTION MUST BE CALLED WITH THE SCHEDULER SUSPENDED.  It is used by
	the event flags implementation. */
	configASSERT( uxSchedulerSuspended != pdFALSE );

	/* Store the new item value in the event list. */
	listSET_LIST_ITEM_VALUE( pxEventListItem, xItemValue | taskEVENT_LIST_ITEM_VALUE_IN_USE );
    16e4:	29600034 	orhi	r5,r5,32768
    16e8:	21400015 	stw	r5,0(r4)

	/* Remove the event list form the event flag.  Interrupts do not access
	event flags. */
	pxUnblockedTCB = ( TCB_t * ) listGET_LIST_ITEM_OWNER( pxEventListItem );
	configASSERT( pxUnblockedTCB );
	( void ) uxListRemove( pxEventListItem );
    16ec:	000037c0 	call	37c <uxListRemove>

	/* Remove the task from the delayed list and add it to the ready list.  The
	scheduler is suspended so interrupts will not be accessing the ready
	lists. */
	( void ) uxListRemove( &( pxUnblockedTCB->xGenericListItem ) );
    16f0:	84400104 	addi	r17,r16,4
    16f4:	8809883a 	mov	r4,r17
    16f8:	000037c0 	call	37c <uxListRemove>
	prvAddTaskToReadyList( pxUnblockedTCB );
    16fc:	81000b17 	ldw	r4,44(r16)
    1700:	d0a01817 	ldw	r2,-32672(gp)
    1704:	1100012e 	bgeu	r2,r4,170c <xTaskRemoveFromUnorderedEventList+0x3c>
    1708:	d1201815 	stw	r4,-32672(gp)
    170c:	01400504 	movi	r5,20
    1710:	00029180 	call	2918 <__mulsi3>
    1714:	01000034 	movhi	r4,0
    1718:	21150704 	addi	r4,r4,21532
    171c:	2089883a 	add	r4,r4,r2
    1720:	880b883a 	mov	r5,r17
    1724:	00002f80 	call	2f8 <vListInsertEnd>

	if( pxUnblockedTCB->uxPriority > pxCurrentTCB->uxPriority )
    1728:	d0e01e17 	ldw	r3,-32648(gp)
    172c:	80800b17 	ldw	r2,44(r16)
    1730:	18c00b17 	ldw	r3,44(r3)
    1734:	1880032e 	bgeu	r3,r2,1744 <xTaskRemoveFromUnorderedEventList+0x74>
		switch now. */
		xReturn = pdTRUE;

		/* Mark that a yield is pending in case the user is not using the
		"xHigherPriorityTaskWoken" parameter to an ISR safe FreeRTOS function. */
		xYieldPending = pdTRUE;
    1738:	00800044 	movi	r2,1
    173c:	d0a01515 	stw	r2,-32684(gp)
    1740:	00000106 	br	1748 <xTaskRemoveFromUnorderedEventList+0x78>
	}
	else
	{
		xReturn = pdFALSE;
    1744:	0005883a 	mov	r2,zero
	}

	return xReturn;
}
    1748:	dfc00217 	ldw	ra,8(sp)
    174c:	dc400117 	ldw	r17,4(sp)
    1750:	dc000017 	ldw	r16,0(sp)
    1754:	dec00304 	addi	sp,sp,12
    1758:	f800283a 	ret

0000175c <vTaskSetTimeOutState>:
/*-----------------------------------------------------------*/

void vTaskSetTimeOutState( TimeOut_t * const pxTimeOut )
{
	configASSERT( pxTimeOut );
	pxTimeOut->xOverflowCount = xNumOfOverflows;
    175c:	d0a01417 	ldw	r2,-32688(gp)
    1760:	20800015 	stw	r2,0(r4)
	pxTimeOut->xTimeOnEntering = xTickCount;
    1764:	d0a01917 	ldw	r2,-32668(gp)
    1768:	20800115 	stw	r2,4(r4)
    176c:	f800283a 	ret

00001770 <vTaskMissedYield>:
}
/*-----------------------------------------------------------*/

void vTaskMissedYield( void )
{
	xYieldPending = pdTRUE;
    1770:	00800044 	movi	r2,1
    1774:	d0a01515 	stw	r2,-32684(gp)
    1778:	f800283a 	ret

0000177c <uxTaskGetStackHighWaterMark>:
	{
	TCB_t *pxTCB;
	uint8_t *pucEndOfStack;
	UBaseType_t uxReturn;

		pxTCB = prvGetTCBFromHandle( xTask );
    177c:	2000011e 	bne	r4,zero,1784 <uxTaskGetStackHighWaterMark+0x8>
    1780:	d1201e17 	ldw	r4,-32648(gp)

		#if portSTACK_GROWTH < 0
		{
			pucEndOfStack = ( uint8_t * ) pxTCB->pxStack;
    1784:	21000c17 	ldw	r4,48(r4)

	static uint16_t prvTaskCheckFreeStackSpace( const uint8_t * pucStackByte )
	{
	uint32_t ulCount = 0U;

		while( *pucStackByte == ( uint8_t ) tskSTACK_FILL_BYTE )
    1788:	01402944 	movi	r5,165

		pxTCB = prvGetTCBFromHandle( xTask );

		#if portSTACK_GROWTH < 0
		{
			pucEndOfStack = ( uint8_t * ) pxTCB->pxStack;
    178c:	2007883a 	mov	r3,r4

	static uint16_t prvTaskCheckFreeStackSpace( const uint8_t * pucStackByte )
	{
	uint32_t ulCount = 0U;

		while( *pucStackByte == ( uint8_t ) tskSTACK_FILL_BYTE )
    1790:	19800003 	ldbu	r6,0(r3)
    1794:	1905c83a 	sub	r2,r3,r4
    1798:	3140021e 	bne	r6,r5,17a4 <uxTaskGetStackHighWaterMark+0x28>
		{
			pucStackByte -= portSTACK_GROWTH;
    179c:	18c00044 	addi	r3,r3,1
    17a0:	003ffb06 	br	1790 <uxTaskGetStackHighWaterMark+0x14>
			ulCount++;
		}

		ulCount /= ( uint32_t ) sizeof( StackType_t ); /*lint !e961 Casting is not redundant on smaller architectures. */
    17a4:	1004d0ba 	srli	r2,r2,2
		#endif

		uxReturn = ( UBaseType_t ) prvTaskCheckFreeStackSpace( pucEndOfStack );

		return uxReturn;
	}
    17a8:	10bfffcc 	andi	r2,r2,65535
    17ac:	f800283a 	ret

000017b0 <xTaskGetCurrentTaskHandle>:
	TaskHandle_t xReturn;

		/* A critical section is not required as this is not called from
		an interrupt and the current TCB will always be the same for any
		individual execution thread. */
		xReturn = pxCurrentTCB;
    17b0:	d0a01e17 	ldw	r2,-32648(gp)

		return xReturn;
	}
    17b4:	f800283a 	ret

000017b8 <vTaskPriorityInherit>:
	{
	TCB_t * const pxTCB = ( TCB_t * ) pxMutexHolder;

		/* If the mutex was given back by an interrupt while the queue was
		locked then the mutex holder might now be NULL. */
		if( pxMutexHolder != NULL )
    17b8:	20003526 	beq	r4,zero,1890 <vTaskPriorityInherit+0xd8>
		{
			/* If the holder of the mutex has a priority below the priority of
			the task attempting to obtain the mutex then it will temporarily
			inherit the priority of the task attempting to obtain the mutex. */
			if( pxTCB->uxPriority < pxCurrentTCB->uxPriority )
    17bc:	d0a01e17 	ldw	r2,-32648(gp)
    17c0:	20c00b17 	ldw	r3,44(r4)
    17c4:	10800b17 	ldw	r2,44(r2)
    17c8:	1880312e 	bgeu	r3,r2,1890 <vTaskPriorityInherit+0xd8>
			{
				/* Adjust the mutex holder state to account for its new
				priority.  Only reset the event list item value if the value is
				not	being used for anything else. */
				if( ( listGET_LIST_ITEM_VALUE( &( pxTCB->xEventListItem ) ) & taskEVENT_LIST_ITEM_VALUE_IN_USE ) == 0UL )
    17cc:	20800617 	ldw	r2,24(r4)
/*-----------------------------------------------------------*/

#if ( configUSE_MUTEXES == 1 )

	void vTaskPriorityInherit( TaskHandle_t const pxMutexHolder )
	{
    17d0:	defffc04 	addi	sp,sp,-16
    17d4:	dfc00315 	stw	ra,12(sp)
    17d8:	dc800215 	stw	r18,8(sp)
    17dc:	dc400115 	stw	r17,4(sp)
    17e0:	dc000015 	stw	r16,0(sp)
			if( pxTCB->uxPriority < pxCurrentTCB->uxPriority )
			{
				/* Adjust the mutex holder state to account for its new
				priority.  Only reset the event list item value if the value is
				not	being used for anything else. */
				if( ( listGET_LIST_ITEM_VALUE( &( pxTCB->xEventListItem ) ) & taskEVENT_LIST_ITEM_VALUE_IN_USE ) == 0UL )
    17e4:	10000516 	blt	r2,zero,17fc <vTaskPriorityInherit+0x44>
				{
					listSET_LIST_ITEM_VALUE( &( pxTCB->xEventListItem ), ( TickType_t ) configMAX_PRIORITIES - ( TickType_t ) pxCurrentTCB->uxPriority ); /*lint !e961 MISRA exception as the casts are only redundant for some ports. */
    17e8:	d0a01e17 	ldw	r2,-32648(gp)
    17ec:	11400b17 	ldw	r5,44(r2)
    17f0:	00800144 	movi	r2,5
    17f4:	1145c83a 	sub	r2,r2,r5
    17f8:	20800615 	stw	r2,24(r4)
    17fc:	2021883a 	mov	r16,r4
					mtCOVERAGE_TEST_MARKER();
				}

				/* If the task being modified is in the ready state it will need
				to be moved into a new list. */
				if( listIS_CONTAINED_WITHIN( &( pxReadyTasksLists[ pxTCB->uxPriority ] ), &( pxTCB->xGenericListItem ) ) != pdFALSE )
    1800:	01400504 	movi	r5,20
    1804:	1809883a 	mov	r4,r3
    1808:	00029180 	call	2918 <__mulsi3>
    180c:	01000034 	movhi	r4,0
    1810:	80c00517 	ldw	r3,20(r16)
    1814:	21150704 	addi	r4,r4,21532
    1818:	2085883a 	add	r2,r4,r2
    181c:	2023883a 	mov	r17,r4
    1820:	1880131e 	bne	r3,r2,1870 <vTaskPriorityInherit+0xb8>
				{
					if( uxListRemove( &( pxTCB->xGenericListItem ) ) == ( UBaseType_t ) 0 )
    1824:	84800104 	addi	r18,r16,4
    1828:	9009883a 	mov	r4,r18
    182c:	000037c0 	call	37c <uxListRemove>
					{
						mtCOVERAGE_TEST_MARKER();
					}

					/* Inherit the priority before being moved into the new list. */
					pxTCB->uxPriority = pxCurrentTCB->uxPriority;
    1830:	d0a01e17 	ldw	r2,-32648(gp)
    1834:	11000b17 	ldw	r4,44(r2)
					prvAddTaskToReadyList( pxTCB );
    1838:	d0a01817 	ldw	r2,-32672(gp)
					{
						mtCOVERAGE_TEST_MARKER();
					}

					/* Inherit the priority before being moved into the new list. */
					pxTCB->uxPriority = pxCurrentTCB->uxPriority;
    183c:	81000b15 	stw	r4,44(r16)
					prvAddTaskToReadyList( pxTCB );
    1840:	1100012e 	bgeu	r2,r4,1848 <vTaskPriorityInherit+0x90>
    1844:	d1201815 	stw	r4,-32672(gp)
    1848:	01400504 	movi	r5,20
    184c:	00029180 	call	2918 <__mulsi3>
    1850:	8889883a 	add	r4,r17,r2
    1854:	900b883a 	mov	r5,r18
		}
		else
		{
			mtCOVERAGE_TEST_MARKER();
		}
	}
    1858:	dfc00317 	ldw	ra,12(sp)
    185c:	dc800217 	ldw	r18,8(sp)
    1860:	dc400117 	ldw	r17,4(sp)
    1864:	dc000017 	ldw	r16,0(sp)
    1868:	dec00404 	addi	sp,sp,16
						mtCOVERAGE_TEST_MARKER();
					}

					/* Inherit the priority before being moved into the new list. */
					pxTCB->uxPriority = pxCurrentTCB->uxPriority;
					prvAddTaskToReadyList( pxTCB );
    186c:	00002f81 	jmpi	2f8 <vListInsertEnd>
				}
				else
				{
					/* Just inherit the priority. */
					pxTCB->uxPriority = pxCurrentTCB->uxPriority;
    1870:	d0a01e17 	ldw	r2,-32648(gp)
    1874:	10800b17 	ldw	r2,44(r2)
    1878:	80800b15 	stw	r2,44(r16)
		}
		else
		{
			mtCOVERAGE_TEST_MARKER();
		}
	}
    187c:	dfc00317 	ldw	ra,12(sp)
    1880:	dc800217 	ldw	r18,8(sp)
    1884:	dc400117 	ldw	r17,4(sp)
    1888:	dc000017 	ldw	r16,0(sp)
    188c:	dec00404 	addi	sp,sp,16
    1890:	f800283a 	ret

00001894 <xTaskPriorityDisinherit>:
	BaseType_t xTaskPriorityDisinherit( TaskHandle_t const pxMutexHolder )
	{
	TCB_t * const pxTCB = ( TCB_t * ) pxMutexHolder;
	BaseType_t xReturn = pdFALSE;

		if( pxMutexHolder != NULL )
    1894:	2000021e 	bne	r4,zero,18a0 <xTaskPriorityDisinherit+0xc>
#if ( configUSE_MUTEXES == 1 )

	BaseType_t xTaskPriorityDisinherit( TaskHandle_t const pxMutexHolder )
	{
	TCB_t * const pxTCB = ( TCB_t * ) pxMutexHolder;
	BaseType_t xReturn = pdFALSE;
    1898:	0005883a 	mov	r2,zero
		{
			mtCOVERAGE_TEST_MARKER();
		}

		return xReturn;
	}
    189c:	f800283a 	ret
			interrupt, and if a mutex is given by the holding task then it must
			be the running state task. */
			configASSERT( pxTCB == pxCurrentTCB );

			configASSERT( pxTCB->uxMutexesHeld );
			( pxTCB->uxMutexesHeld )--;
    18a0:	20801117 	ldw	r2,68(r4)

			/* Has the holder of the mutex inherited the priority of another
			task? */
			if( pxTCB->uxPriority != pxTCB->uxBasePriority )
    18a4:	21400b17 	ldw	r5,44(r4)
    18a8:	20c01017 	ldw	r3,64(r4)
			interrupt, and if a mutex is given by the holding task then it must
			be the running state task. */
			configASSERT( pxTCB == pxCurrentTCB );

			configASSERT( pxTCB->uxMutexesHeld );
			( pxTCB->uxMutexesHeld )--;
    18ac:	10bfffc4 	addi	r2,r2,-1
    18b0:	20801115 	stw	r2,68(r4)

			/* Has the holder of the mutex inherited the priority of another
			task? */
			if( pxTCB->uxPriority != pxTCB->uxBasePriority )
    18b4:	28fff826 	beq	r5,r3,1898 <xTaskPriorityDisinherit+0x4>
			{
				/* Only disinherit if no other mutexes are held. */
				if( pxTCB->uxMutexesHeld == ( UBaseType_t ) 0 )
    18b8:	103ff71e 	bne	r2,zero,1898 <xTaskPriorityDisinherit+0x4>
/*-----------------------------------------------------------*/

#if ( configUSE_MUTEXES == 1 )

	BaseType_t xTaskPriorityDisinherit( TaskHandle_t const pxMutexHolder )
	{
    18bc:	defffd04 	addi	sp,sp,-12
    18c0:	dc400115 	stw	r17,4(sp)
					/* A task can only have an inherited priority if it holds
					the mutex.  If the mutex is held by a task then it cannot be
					given from an interrupt, and if a mutex is given by the
					holding	task then it must be the running state task.  Remove
					the	holding task from the ready	list. */
					if( uxListRemove( &( pxTCB->xGenericListItem ) ) == ( UBaseType_t ) 0 )
    18c4:	24400104 	addi	r17,r4,4
/*-----------------------------------------------------------*/

#if ( configUSE_MUTEXES == 1 )

	BaseType_t xTaskPriorityDisinherit( TaskHandle_t const pxMutexHolder )
	{
    18c8:	dc000015 	stw	r16,0(sp)
    18cc:	2021883a 	mov	r16,r4
					/* A task can only have an inherited priority if it holds
					the mutex.  If the mutex is held by a task then it cannot be
					given from an interrupt, and if a mutex is given by the
					holding	task then it must be the running state task.  Remove
					the	holding task from the ready	list. */
					if( uxListRemove( &( pxTCB->xGenericListItem ) ) == ( UBaseType_t ) 0 )
    18d0:	8809883a 	mov	r4,r17
/*-----------------------------------------------------------*/

#if ( configUSE_MUTEXES == 1 )

	BaseType_t xTaskPriorityDisinherit( TaskHandle_t const pxMutexHolder )
	{
    18d4:	dfc00215 	stw	ra,8(sp)
					/* A task can only have an inherited priority if it holds
					the mutex.  If the mutex is held by a task then it cannot be
					given from an interrupt, and if a mutex is given by the
					holding	task then it must be the running state task.  Remove
					the	holding task from the ready	list. */
					if( uxListRemove( &( pxTCB->xGenericListItem ) ) == ( UBaseType_t ) 0 )
    18d8:	000037c0 	call	37c <uxListRemove>
					}

					/* Disinherit the priority before adding the task into the
					new	ready list. */
					traceTASK_PRIORITY_DISINHERIT( pxTCB, pxTCB->uxBasePriority );
					pxTCB->uxPriority = pxTCB->uxBasePriority;
    18dc:	81001017 	ldw	r4,64(r16)

					/* Reset the event list item value.  It cannot be in use for
					any other purpose if this task is running, and it must be
					running to give back the mutex. */
					listSET_LIST_ITEM_VALUE( &( pxTCB->xEventListItem ), ( TickType_t ) configMAX_PRIORITIES - ( TickType_t ) pxTCB->uxPriority ); /*lint !e961 MISRA exception as the casts are only redundant for some ports. */
    18e0:	00800144 	movi	r2,5
    18e4:	1105c83a 	sub	r2,r2,r4
    18e8:	80800615 	stw	r2,24(r16)
					prvAddTaskToReadyList( pxTCB );
    18ec:	d0a01817 	ldw	r2,-32672(gp)
					}

					/* Disinherit the priority before adding the task into the
					new	ready list. */
					traceTASK_PRIORITY_DISINHERIT( pxTCB, pxTCB->uxBasePriority );
					pxTCB->uxPriority = pxTCB->uxBasePriority;
    18f0:	81000b15 	stw	r4,44(r16)

					/* Reset the event list item value.  It cannot be in use for
					any other purpose if this task is running, and it must be
					running to give back the mutex. */
					listSET_LIST_ITEM_VALUE( &( pxTCB->xEventListItem ), ( TickType_t ) configMAX_PRIORITIES - ( TickType_t ) pxTCB->uxPriority ); /*lint !e961 MISRA exception as the casts are only redundant for some ports. */
					prvAddTaskToReadyList( pxTCB );
    18f4:	1100012e 	bgeu	r2,r4,18fc <xTaskPriorityDisinherit+0x68>
    18f8:	d1201815 	stw	r4,-32672(gp)
    18fc:	01400504 	movi	r5,20
    1900:	00029180 	call	2918 <__mulsi3>
    1904:	01000034 	movhi	r4,0
    1908:	21150704 	addi	r4,r4,21532
    190c:	2089883a 	add	r4,r4,r2
    1910:	880b883a 	mov	r5,r17
    1914:	00002f80 	call	2f8 <vListInsertEnd>
					in an order different to that in which they were taken.
					If a context switch did not occur when the first mutex was
					returned, even if a task was waiting on it, then a context
					switch should occur when the last mutex is returned whether
					a task is waiting on it or not. */
					xReturn = pdTRUE;
    1918:	00800044 	movi	r2,1
		{
			mtCOVERAGE_TEST_MARKER();
		}

		return xReturn;
	}
    191c:	dfc00217 	ldw	ra,8(sp)
    1920:	dc400117 	ldw	r17,4(sp)
    1924:	dc000017 	ldw	r16,0(sp)
    1928:	dec00304 	addi	sp,sp,12
    192c:	f800283a 	ret

00001930 <vTaskEnterCritical>:
static ALT_INLINE alt_irq_context ALT_ALWAYS_INLINE 
       alt_irq_disable_all (void)
{
  alt_irq_context context;

  NIOS2_READ_STATUS (context);
    1930:	0007303a 	rdctl	r3,status

  NIOS2_WRITE_STATUS (context & ~NIOS2_STATUS_PIE_MSK);
    1934:	00bfff84 	movi	r2,-2
    1938:	1884703a 	and	r2,r3,r2
    193c:	1001703a 	wrctl	status,r2

	void vTaskEnterCritical( void )
	{
		portDISABLE_INTERRUPTS();

		if( xSchedulerRunning != pdFALSE )
    1940:	d0a01717 	ldw	r2,-32676(gp)
    1944:	10000526 	beq	r2,zero,195c <vTaskEnterCritical+0x2c>
		{
			( pxCurrentTCB->uxCriticalNesting )++;
    1948:	d0e01e17 	ldw	r3,-32648(gp)
    194c:	18800f17 	ldw	r2,60(r3)
    1950:	10800044 	addi	r2,r2,1
    1954:	18800f15 	stw	r2,60(r3)
			function so	assert() if it is being called from an interrupt
			context.  Only API functions that end in "FromISR" can be used in an
			interrupt.  Only assert if the critical nesting count is 1 to
			protect against recursive calls if the assert function also uses a
			critical section. */
			if( pxCurrentTCB->uxCriticalNesting == 1 )
    1958:	d0a01e17 	ldw	r2,-32648(gp)
    195c:	f800283a 	ret

00001960 <vTaskExitCritical>:

#if ( portCRITICAL_NESTING_IN_TCB == 1 )

	void vTaskExitCritical( void )
	{
		if( xSchedulerRunning != pdFALSE )
    1960:	d0a01717 	ldw	r2,-32676(gp)
    1964:	10000c26 	beq	r2,zero,1998 <vTaskExitCritical+0x38>
		{
			if( pxCurrentTCB->uxCriticalNesting > 0U )
    1968:	d0a01e17 	ldw	r2,-32648(gp)
    196c:	10800f17 	ldw	r2,60(r2)
    1970:	10000926 	beq	r2,zero,1998 <vTaskExitCritical+0x38>
			{
				( pxCurrentTCB->uxCriticalNesting )--;
    1974:	d0e01e17 	ldw	r3,-32648(gp)
    1978:	18800f17 	ldw	r2,60(r3)
    197c:	10bfffc4 	addi	r2,r2,-1
    1980:	18800f15 	stw	r2,60(r3)

				if( pxCurrentTCB->uxCriticalNesting == 0U )
    1984:	d0a01e17 	ldw	r2,-32648(gp)
    1988:	10800f17 	ldw	r2,60(r2)
    198c:	1000021e 	bne	r2,zero,1998 <vTaskExitCritical+0x38>
  status &= ~NIOS2_STATUS_PIE_MSK;
  status |= (context & NIOS2_STATUS_PIE_MSK);
  
  NIOS2_WRITE_STATUS (status);
#else
  NIOS2_WRITE_STATUS (context);
    1990:	00800044 	movi	r2,1
    1994:	1001703a 	wrctl	status,r2
    1998:	f800283a 	ret

0000199c <xTaskGenericCreate>:

#endif
/*-----------------------------------------------------------*/

BaseType_t xTaskGenericCreate( TaskFunction_t pxTaskCode, const char * const pcName, const uint16_t usStackDepth, void * const pvParameters, UBaseType_t uxPriority, TaskHandle_t * const pxCreatedTask, StackType_t * const puxStackBuffer, const MemoryRegion_t * const xRegions ) /*lint !e971 Unqualified char types are allowed for strings and single characters only. */
{
    199c:	defff704 	addi	sp,sp,-36
    19a0:	ddc00715 	stw	r23,28(sp)
	#else /* portSTACK_GROWTH */
	{
	StackType_t *pxStack;

		/* Allocate space for the stack used by the task being created. */
		pxStack = ( StackType_t * ) pvPortMallocAligned( ( ( ( size_t ) usStackDepth ) * sizeof( StackType_t ) ), puxStackBuffer ); /*lint !e961 MISRA exception as the casts are only redundant for some ports. */
    19a4:	ddc00b17 	ldw	r23,44(sp)

#endif
/*-----------------------------------------------------------*/

BaseType_t xTaskGenericCreate( TaskFunction_t pxTaskCode, const char * const pcName, const uint16_t usStackDepth, void * const pvParameters, UBaseType_t uxPriority, TaskHandle_t * const pxCreatedTask, StackType_t * const puxStackBuffer, const MemoryRegion_t * const xRegions ) /*lint !e971 Unqualified char types are allowed for strings and single characters only. */
{
    19a8:	dd800615 	stw	r22,24(sp)
    19ac:	dd400515 	stw	r21,20(sp)
    19b0:	dd000415 	stw	r20,16(sp)
    19b4:	dcc00315 	stw	r19,12(sp)
    19b8:	dc800215 	stw	r18,8(sp)
    19bc:	dc400115 	stw	r17,4(sp)
    19c0:	dfc00815 	stw	ra,32(sp)
    19c4:	dc000015 	stw	r16,0(sp)
    19c8:	202d883a 	mov	r22,r4
    19cc:	2825883a 	mov	r18,r5
    19d0:	3023883a 	mov	r17,r6
    19d4:	382b883a 	mov	r21,r7
    19d8:	dcc00917 	ldw	r19,36(sp)
    19dc:	dd000a17 	ldw	r20,40(sp)
	#else /* portSTACK_GROWTH */
	{
	StackType_t *pxStack;

		/* Allocate space for the stack used by the task being created. */
		pxStack = ( StackType_t * ) pvPortMallocAligned( ( ( ( size_t ) usStackDepth ) * sizeof( StackType_t ) ), puxStackBuffer ); /*lint !e961 MISRA exception as the casts are only redundant for some ports. */
    19e0:	b800061e 	bne	r23,zero,19fc <xTaskGenericCreate+0x60>
    19e4:	313fffcc 	andi	r4,r6,65535
    19e8:	2109883a 	add	r4,r4,r4
    19ec:	2109883a 	add	r4,r4,r4
    19f0:	00006900 	call	690 <pvPortMalloc>
    19f4:	102f883a 	mov	r23,r2

		if( pxStack != NULL )
    19f8:	10007b26 	beq	r2,zero,1be8 <xTaskGenericCreate+0x24c>
		{
			/* Allocate space for the TCB.  Where the memory comes from depends
			on the implementation of the port malloc function. */
			pxNewTCB = ( TCB_t * ) pvPortMalloc( sizeof( TCB_t ) );
    19fc:	01001404 	movi	r4,80
    1a00:	00006900 	call	690 <pvPortMalloc>
    1a04:	1021883a 	mov	r16,r2

			if( pxNewTCB != NULL )
    1a08:	10001026 	beq	r2,zero,1a4c <xTaskGenericCreate+0xb0>
	{
		/* Avoid dependency on memset() if it is not required. */
		#if( ( configCHECK_FOR_STACK_OVERFLOW > 1 ) || ( configUSE_TRACE_FACILITY == 1 ) || ( INCLUDE_uxTaskGetStackHighWaterMark == 1 ) )
		{
			/* Just to help debugging. */
			( void ) memset( pxNewTCB->pxStack, ( int ) tskSTACK_FILL_BYTE, ( size_t ) usStackDepth * sizeof( StackType_t ) );
    1a0c:	8c7fffcc 	andi	r17,r17,65535
    1a10:	8c63883a 	add	r17,r17,r17
    1a14:	8c63883a 	add	r17,r17,r17
    1a18:	880d883a 	mov	r6,r17
			pxNewTCB = ( TCB_t * ) pvPortMalloc( sizeof( TCB_t ) );

			if( pxNewTCB != NULL )
			{
				/* Store the stack location in the TCB. */
				pxNewTCB->pxStack = pxStack;
    1a1c:	15c00c15 	stw	r23,48(r2)
	{
		/* Avoid dependency on memset() if it is not required. */
		#if( ( configCHECK_FOR_STACK_OVERFLOW > 1 ) || ( configUSE_TRACE_FACILITY == 1 ) || ( INCLUDE_uxTaskGetStackHighWaterMark == 1 ) )
		{
			/* Just to help debugging. */
			( void ) memset( pxNewTCB->pxStack, ( int ) tskSTACK_FILL_BYTE, ( size_t ) usStackDepth * sizeof( StackType_t ) );
    1a20:	b809883a 	mov	r4,r23
    1a24:	01402944 	movi	r5,165
    1a28:	00029680 	call	2968 <memset>
		stack grows from high memory to low (as per the 80x86) or vice versa.
		portSTACK_GROWTH is used to make the result positive or negative as
		required by the port. */
		#if( portSTACK_GROWTH < 0 )
		{
			pxTopOfStack = pxNewTCB->pxStack + ( usStackDepth - ( uint16_t ) 1 );
    1a2c:	80800c17 	ldw	r2,48(r16)
    1a30:	8c7fff04 	addi	r17,r17,-4
    1a34:	80c00f04 	addi	r3,r16,60
    1a38:	1463883a 	add	r17,r2,r17
			pxTopOfStack = ( StackType_t * ) ( ( ( portPOINTER_SIZE_TYPE ) pxTopOfStack ) & ( ~( ( portPOINTER_SIZE_TYPE ) portBYTE_ALIGNMENT_MASK ) ) ); /*lint !e923 MISRA exception.  Avoiding casts between pointers and integers is not practical.  Size differences accounted for using portPOINTER_SIZE_TYPE type. */
    1a3c:	00bfff04 	movi	r2,-4
    1a40:	88a2703a 	and	r17,r17,r2
    1a44:	80800d04 	addi	r2,r16,52
    1a48:	00000606 	br	1a64 <xTaskGenericCreate+0xc8>
			}
			else
			{
				/* The stack cannot be used as the TCB was not created.  Free it
				again. */
				vPortFree( pxStack );
    1a4c:	b809883a 	mov	r4,r23
    1a50:	000071c0 	call	71c <vPortFree>
    1a54:	00006406 	br	1be8 <xTaskGenericCreate+0x24c>
    1a58:	10800044 	addi	r2,r2,1
    1a5c:	94800044 	addi	r18,r18,1
static void prvInitialiseTCBVariables( TCB_t * const pxTCB, const char * const pcName, UBaseType_t uxPriority, const MemoryRegion_t * const xRegions, const uint16_t usStackDepth ) /*lint !e971 Unqualified char types are allowed for strings and single characters only. */
{
UBaseType_t x;

	/* Store the task name in the TCB. */
	for( x = ( UBaseType_t ) 0; x < ( UBaseType_t ) configMAX_TASK_NAME_LEN; x++ )
    1a60:	10c00426 	beq	r2,r3,1a74 <xTaskGenericCreate+0xd8>
	{
		pxTCB->pcTaskName[ x ] = pcName[ x ];
    1a64:	91000003 	ldbu	r4,0(r18)
    1a68:	11000005 	stb	r4,0(r2)

		/* Don't copy all configMAX_TASK_NAME_LEN if the string is shorter than
		configMAX_TASK_NAME_LEN characters just in case the memory after the
		string is not accessible (extremely unlikely). */
		if( pcName[ x ] == 0x00 )
    1a6c:	91000007 	ldb	r4,0(r18)
    1a70:	203ff91e 	bne	r4,zero,1a58 <xTaskGenericCreate+0xbc>
		}
	}

	/* Ensure the name string is terminated in the case that the string length
	was greater or equal to configMAX_TASK_NAME_LEN. */
	pxTCB->pcTaskName[ configMAX_TASK_NAME_LEN - 1 ] = '\0';
    1a74:	80000ec5 	stb	zero,59(r16)
    1a78:	00800104 	movi	r2,4
    1a7c:	9825883a 	mov	r18,r19
    1a80:	14c0012e 	bgeu	r2,r19,1a88 <xTaskGenericCreate+0xec>
    1a84:	1025883a 	mov	r18,r2
		pxTCB->uxBasePriority = uxPriority;
		pxTCB->uxMutexesHeld = 0;
	}
	#endif /* configUSE_MUTEXES */

	vListInitialiseItem( &( pxTCB->xGenericListItem ) );
    1a88:	85c00104 	addi	r23,r16,4
	else
	{
		mtCOVERAGE_TEST_MARKER();
	}

	pxTCB->uxPriority = uxPriority;
    1a8c:	84800b15 	stw	r18,44(r16)
	#if ( configUSE_MUTEXES == 1 )
	{
		pxTCB->uxBasePriority = uxPriority;
    1a90:	84801015 	stw	r18,64(r16)
		pxTCB->uxMutexesHeld = 0;
	}
	#endif /* configUSE_MUTEXES */

	vListInitialiseItem( &( pxTCB->xGenericListItem ) );
    1a94:	b809883a 	mov	r4,r23

	pxTCB->uxPriority = uxPriority;
	#if ( configUSE_MUTEXES == 1 )
	{
		pxTCB->uxBasePriority = uxPriority;
		pxTCB->uxMutexesHeld = 0;
    1a98:	80001115 	stw	zero,68(r16)
	}
	#endif /* configUSE_MUTEXES */

	vListInitialiseItem( &( pxTCB->xGenericListItem ) );
    1a9c:	00002f00 	call	2f0 <vListInitialiseItem>
	vListInitialiseItem( &( pxTCB->xEventListItem ) );
    1aa0:	81000604 	addi	r4,r16,24
    1aa4:	00002f00 	call	2f0 <vListInitialiseItem>
	/* Set the pxTCB as a link back from the ListItem_t.  This is so we can get
	back to	the containing TCB from a generic item in a list. */
	listSET_LIST_ITEM_OWNER( &( pxTCB->xGenericListItem ), pxTCB );

	/* Event lists are always in priority order. */
	listSET_LIST_ITEM_VALUE( &( pxTCB->xEventListItem ), ( TickType_t ) configMAX_PRIORITIES - ( TickType_t ) uxPriority ); /*lint !e961 MISRA exception as the casts are only redundant for some ports. */
    1aa8:	00800144 	movi	r2,5
    1aac:	14a5c83a 	sub	r18,r2,r18
	}
	#endif

	#if ( configUSE_TASK_NOTIFICATIONS == 1 )
	{
		pxTCB->ulNotifiedValue = 0;
    1ab0:	80001215 	stw	zero,72(r16)
	vListInitialiseItem( &( pxTCB->xGenericListItem ) );
	vListInitialiseItem( &( pxTCB->xEventListItem ) );

	/* Set the pxTCB as a link back from the ListItem_t.  This is so we can get
	back to	the containing TCB from a generic item in a list. */
	listSET_LIST_ITEM_OWNER( &( pxTCB->xGenericListItem ), pxTCB );
    1ab4:	84000415 	stw	r16,16(r16)

	/* Event lists are always in priority order. */
	listSET_LIST_ITEM_VALUE( &( pxTCB->xEventListItem ), ( TickType_t ) configMAX_PRIORITIES - ( TickType_t ) uxPriority ); /*lint !e961 MISRA exception as the casts are only redundant for some ports. */
    1ab8:	84800615 	stw	r18,24(r16)
	listSET_LIST_ITEM_OWNER( &( pxTCB->xEventListItem ), pxTCB );
    1abc:	84000915 	stw	r16,36(r16)

	#if ( portCRITICAL_NESTING_IN_TCB == 1 )
	{
		pxTCB->uxCriticalNesting = ( UBaseType_t ) 0U;
    1ac0:	80000f15 	stw	zero,60(r16)
	#endif

	#if ( configUSE_TASK_NOTIFICATIONS == 1 )
	{
		pxTCB->ulNotifiedValue = 0;
		pxTCB->eNotifyState = eNotWaitingNotification;
    1ac4:	80001315 	stw	zero,76(r16)
		{
			pxNewTCB->pxTopOfStack = pxPortInitialiseStack( pxTopOfStack, pxTaskCode, pvParameters, xRunPrivileged );
		}
		#else /* portUSING_MPU_WRAPPERS */
		{
			pxNewTCB->pxTopOfStack = pxPortInitialiseStack( pxTopOfStack, pxTaskCode, pvParameters );
    1ac8:	8809883a 	mov	r4,r17
    1acc:	b00b883a 	mov	r5,r22
    1ad0:	a80d883a 	mov	r6,r21
    1ad4:	00005280 	call	528 <pxPortInitialiseStack>
    1ad8:	80800015 	stw	r2,0(r16)
		}
		#endif /* portUSING_MPU_WRAPPERS */

		if( ( void * ) pxCreatedTask != NULL )
    1adc:	a0000126 	beq	r20,zero,1ae4 <xTaskGenericCreate+0x148>
		{
			/* Pass the TCB out - in an anonymous way.  The calling function/
			task can use this as a handle to delete the task later if
			required.*/
			*pxCreatedTask = ( TaskHandle_t ) pxNewTCB;
    1ae0:	a4000015 	stw	r16,0(r20)
			mtCOVERAGE_TEST_MARKER();
		}

		/* Ensure interrupts don't access the task lists while they are being
		updated. */
		taskENTER_CRITICAL();
    1ae4:	00019300 	call	1930 <vTaskEnterCritical>
		{
			uxCurrentNumberOfTasks++;
    1ae8:	d0a01a17 	ldw	r2,-32664(gp)
    1aec:	04800034 	movhi	r18,0
    1af0:	94950704 	addi	r18,r18,21532
    1af4:	10800044 	addi	r2,r2,1
    1af8:	d0a01a15 	stw	r2,-32664(gp)
			if( pxCurrentTCB == NULL )
    1afc:	d0a01e17 	ldw	r2,-32648(gp)
    1b00:	10001e1e 	bne	r2,zero,1b7c <xTaskGenericCreate+0x1e0>
			{
				/* There are no other tasks, or all the other tasks are in
				the suspended state - make this the current task. */
				pxCurrentTCB =  pxNewTCB;
    1b04:	d4201e15 	stw	r16,-32648(gp)

				if( uxCurrentNumberOfTasks == ( UBaseType_t ) 1 )
    1b08:	d0e01a17 	ldw	r3,-32664(gp)
    1b0c:	00800044 	movi	r2,1
    1b10:	1880201e 	bne	r3,r2,1b94 <xTaskGenericCreate+0x1f8>
    1b14:	0023883a 	mov	r17,zero

static void prvInitialiseTaskLists( void )
{
UBaseType_t uxPriority;

	for( uxPriority = ( UBaseType_t ) 0U; uxPriority < ( UBaseType_t ) configMAX_PRIORITIES; uxPriority++ )
    1b18:	05001904 	movi	r20,100
	{
		vListInitialise( &( pxReadyTasksLists[ uxPriority ] ) );
    1b1c:	9449883a 	add	r4,r18,r17
    1b20:	8c400504 	addi	r17,r17,20
    1b24:	00002d00 	call	2d0 <vListInitialise>

static void prvInitialiseTaskLists( void )
{
UBaseType_t uxPriority;

	for( uxPriority = ( UBaseType_t ) 0U; uxPriority < ( UBaseType_t ) configMAX_PRIORITIES; uxPriority++ )
    1b28:	8d3ffc1e 	bne	r17,r20,1b1c <xTaskGenericCreate+0x180>
	{
		vListInitialise( &( pxReadyTasksLists[ uxPriority ] ) );
	}

	vListInitialise( &xDelayedTaskList1 );
    1b2c:	05000034 	movhi	r20,0
    1b30:	a5150204 	addi	r20,r20,21512
    1b34:	a009883a 	mov	r4,r20
	vListInitialise( &xDelayedTaskList2 );
    1b38:	04400034 	movhi	r17,0
	for( uxPriority = ( UBaseType_t ) 0U; uxPriority < ( UBaseType_t ) configMAX_PRIORITIES; uxPriority++ )
	{
		vListInitialise( &( pxReadyTasksLists[ uxPriority ] ) );
	}

	vListInitialise( &xDelayedTaskList1 );
    1b3c:	00002d00 	call	2d0 <vListInitialise>
	vListInitialise( &xDelayedTaskList2 );
    1b40:	8c54fd04 	addi	r17,r17,21492
    1b44:	8809883a 	mov	r4,r17
    1b48:	00002d00 	call	2d0 <vListInitialise>
	vListInitialise( &xPendingReadyList );
    1b4c:	01000034 	movhi	r4,0
    1b50:	2114f804 	addi	r4,r4,21472
    1b54:	00002d00 	call	2d0 <vListInitialise>

	#if ( INCLUDE_vTaskDelete == 1 )
	{
		vListInitialise( &xTasksWaitingTermination );
    1b58:	01000034 	movhi	r4,0
    1b5c:	2114f304 	addi	r4,r4,21452
    1b60:	00002d00 	call	2d0 <vListInitialise>
	}
	#endif /* INCLUDE_vTaskDelete */

	#if ( INCLUDE_vTaskSuspend == 1 )
	{
		vListInitialise( &xSuspendedTaskList );
    1b64:	01000034 	movhi	r4,0
    1b68:	2114ee04 	addi	r4,r4,21432
    1b6c:	00002d00 	call	2d0 <vListInitialise>
	}
	#endif /* INCLUDE_vTaskSuspend */

	/* Start with pxDelayedTaskList using list1 and the pxOverflowDelayedTaskList
	using list2. */
	pxDelayedTaskList = &xDelayedTaskList1;
    1b70:	d5201d15 	stw	r20,-32652(gp)
	pxOverflowDelayedTaskList = &xDelayedTaskList2;
    1b74:	d4601c15 	stw	r17,-32656(gp)
    1b78:	00000606 	br	1b94 <xTaskGenericCreate+0x1f8>
			else
			{
				/* If the scheduler is not already running, make this task the
				current task if it is the highest priority task to be created
				so far. */
				if( xSchedulerRunning == pdFALSE )
    1b7c:	d0a01717 	ldw	r2,-32676(gp)
    1b80:	1000041e 	bne	r2,zero,1b94 <xTaskGenericCreate+0x1f8>
				{
					if( pxCurrentTCB->uxPriority <= uxPriority )
    1b84:	d0a01e17 	ldw	r2,-32648(gp)
    1b88:	10800b17 	ldw	r2,44(r2)
    1b8c:	98800136 	bltu	r19,r2,1b94 <xTaskGenericCreate+0x1f8>
					{
						pxCurrentTCB = pxNewTCB;
    1b90:	d4201e15 	stw	r16,-32648(gp)
				{
					mtCOVERAGE_TEST_MARKER();
				}
			}

			uxTaskNumber++;
    1b94:	d0a01317 	ldw	r2,-32692(gp)
				pxNewTCB->uxTCBNumber = uxTaskNumber;
			}
			#endif /* configUSE_TRACE_FACILITY */
			traceTASK_CREATE( pxNewTCB );

			prvAddTaskToReadyList( pxNewTCB );
    1b98:	81000b17 	ldw	r4,44(r16)
				{
					mtCOVERAGE_TEST_MARKER();
				}
			}

			uxTaskNumber++;
    1b9c:	10800044 	addi	r2,r2,1
    1ba0:	d0a01315 	stw	r2,-32692(gp)
				pxNewTCB->uxTCBNumber = uxTaskNumber;
			}
			#endif /* configUSE_TRACE_FACILITY */
			traceTASK_CREATE( pxNewTCB );

			prvAddTaskToReadyList( pxNewTCB );
    1ba4:	d0a01817 	ldw	r2,-32672(gp)
    1ba8:	1100012e 	bgeu	r2,r4,1bb0 <xTaskGenericCreate+0x214>
    1bac:	d1201815 	stw	r4,-32672(gp)
    1bb0:	01400504 	movi	r5,20
    1bb4:	00029180 	call	2918 <__mulsi3>
    1bb8:	9089883a 	add	r4,r18,r2
    1bbc:	b80b883a 	mov	r5,r23
    1bc0:	00002f80 	call	2f8 <vListInsertEnd>

			xReturn = pdPASS;
			portSETUP_TCB( pxNewTCB );
		}
		taskEXIT_CRITICAL();
    1bc4:	00019600 	call	1960 <vTaskExitCritical>
		traceTASK_CREATE_FAILED();
	}

	if( xReturn == pdPASS )
	{
		if( xSchedulerRunning != pdFALSE )
    1bc8:	d0a01717 	ldw	r2,-32676(gp)
    1bcc:	10000426 	beq	r2,zero,1be0 <xTaskGenericCreate+0x244>
		{
			/* If the created task is of a higher priority than the current task
			then it should run now. */
			if( pxCurrentTCB->uxPriority < uxPriority )
    1bd0:	d0a01e17 	ldw	r2,-32648(gp)
    1bd4:	10800b17 	ldw	r2,44(r2)
    1bd8:	14c0012e 	bgeu	r2,r19,1be0 <xTaskGenericCreate+0x244>
			{
				taskYIELD_IF_USING_PREEMPTION();
    1bdc:	003b683a 	trap	0
    1be0:	00800044 	movi	r2,1
    1be4:	00000106 	br	1bec <xTaskGenericCreate+0x250>
		}
		taskEXIT_CRITICAL();
	}
	else
	{
		xReturn = errCOULD_NOT_ALLOCATE_REQUIRED_MEMORY;
    1be8:	00bfffc4 	movi	r2,-1
			mtCOVERAGE_TEST_MARKER();
		}
	}

	return xReturn;
}
    1bec:	dfc00817 	ldw	ra,32(sp)
    1bf0:	ddc00717 	ldw	r23,28(sp)
    1bf4:	dd800617 	ldw	r22,24(sp)
    1bf8:	dd400517 	ldw	r21,20(sp)
    1bfc:	dd000417 	ldw	r20,16(sp)
    1c00:	dcc00317 	ldw	r19,12(sp)
    1c04:	dc800217 	ldw	r18,8(sp)
    1c08:	dc400117 	ldw	r17,4(sp)
    1c0c:	dc000017 	ldw	r16,0(sp)
    1c10:	dec00904 	addi	sp,sp,36
    1c14:	f800283a 	ret

00001c18 <vTaskStartScheduler>:

#endif /* ( ( INCLUDE_xTaskResumeFromISR == 1 ) && ( INCLUDE_vTaskSuspend == 1 ) ) */
/*-----------------------------------------------------------*/

void vTaskStartScheduler( void )
{
    1c18:	defffb04 	addi	sp,sp,-20
		xReturn = xTaskCreate( prvIdleTask, "IDLE", tskIDLE_STACK_SIZE, ( void * ) NULL, ( tskIDLE_PRIORITY | portPRIVILEGE_BIT ), &xIdleTaskHandle ); /*lint !e961 MISRA exception, justified as it is not a redundant explicit cast to all supported compilers. */
	}
	#else
	{
		/* Create the idle task without storing its handle. */
		xReturn = xTaskCreate( prvIdleTask, "IDLE", tskIDLE_STACK_SIZE, ( void * ) NULL, ( tskIDLE_PRIORITY | portPRIVILEGE_BIT ), NULL );  /*lint !e961 MISRA exception, justified as it is not a redundant explicit cast to all supported compilers. */
    1c1c:	01000034 	movhi	r4,0
    1c20:	01400034 	movhi	r5,0
    1c24:	d8000015 	stw	zero,0(sp)
    1c28:	d8000115 	stw	zero,4(sp)
    1c2c:	d8000215 	stw	zero,8(sp)
    1c30:	d8000315 	stw	zero,12(sp)
    1c34:	21087c04 	addi	r4,r4,8688
    1c38:	294bf404 	addi	r5,r5,12240
    1c3c:	01810004 	movi	r6,1024
    1c40:	000f883a 	mov	r7,zero

#endif /* ( ( INCLUDE_xTaskResumeFromISR == 1 ) && ( INCLUDE_vTaskSuspend == 1 ) ) */
/*-----------------------------------------------------------*/

void vTaskStartScheduler( void )
{
    1c44:	dfc00415 	stw	ra,16(sp)
		xReturn = xTaskCreate( prvIdleTask, "IDLE", tskIDLE_STACK_SIZE, ( void * ) NULL, ( tskIDLE_PRIORITY | portPRIVILEGE_BIT ), &xIdleTaskHandle ); /*lint !e961 MISRA exception, justified as it is not a redundant explicit cast to all supported compilers. */
	}
	#else
	{
		/* Create the idle task without storing its handle. */
		xReturn = xTaskCreate( prvIdleTask, "IDLE", tskIDLE_STACK_SIZE, ( void * ) NULL, ( tskIDLE_PRIORITY | portPRIVILEGE_BIT ), NULL );  /*lint !e961 MISRA exception, justified as it is not a redundant explicit cast to all supported compilers. */
    1c48:	000199c0 	call	199c <xTaskGenericCreate>
			mtCOVERAGE_TEST_MARKER();
		}
	}
	#endif /* configUSE_TIMERS */

	if( xReturn == pdPASS )
    1c4c:	00c00044 	movi	r3,1
    1c50:	10c00b1e 	bne	r2,r3,1c80 <vTaskStartScheduler+0x68>
static ALT_INLINE alt_irq_context ALT_ALWAYS_INLINE 
       alt_irq_disable_all (void)
{
  alt_irq_context context;

  NIOS2_READ_STATUS (context);
    1c54:	0009303a 	rdctl	r4,status

  NIOS2_WRITE_STATUS (context & ~NIOS2_STATUS_PIE_MSK);
    1c58:	00ffff84 	movi	r3,-2
    1c5c:	20c6703a 	and	r3,r4,r3
    1c60:	1801703a 	wrctl	status,r3
			structure specific to the task that will run first. */
			_impure_ptr = &( pxCurrentTCB->xNewLib_reent );
		}
		#endif /* configUSE_NEWLIB_REENTRANT */

		xNextTaskUnblockTime = portMAX_DELAY;
    1c64:	00ffffc4 	movi	r3,-1
    1c68:	d0e01215 	stw	r3,-32696(gp)
		xSchedulerRunning = pdTRUE;
    1c6c:	d0a01715 	stw	r2,-32676(gp)
		xTickCount = ( TickType_t ) 0U;
    1c70:	d0201915 	stw	zero,-32668(gp)
		/* This line will only be reached if the kernel could not be started,
		because there was not enough FreeRTOS heap to create the idle task
		or the timer task. */
		configASSERT( xReturn );
	}
}
    1c74:	dfc00417 	ldw	ra,16(sp)
    1c78:	dec00504 	addi	sp,sp,20
		the run time counter time base. */
		portCONFIGURE_TIMER_FOR_RUN_TIME_STATS();

		/* Setting up the timer tick is hardware specific and thus in the
		portable interface. */
		if( xPortStartScheduler() != pdFALSE )
    1c7c:	00006041 	jmpi	604 <xPortStartScheduler>
		/* This line will only be reached if the kernel could not be started,
		because there was not enough FreeRTOS heap to create the idle task
		or the timer task. */
		configASSERT( xReturn );
	}
}
    1c80:	dfc00417 	ldw	ra,16(sp)
    1c84:	dec00504 	addi	sp,sp,20
    1c88:	f800283a 	ret

00001c8c <vTaskDelete>:
/*-----------------------------------------------------------*/

#if ( INCLUDE_vTaskDelete == 1 )

	void vTaskDelete( TaskHandle_t xTaskToDelete )
	{
    1c8c:	defffd04 	addi	sp,sp,-12
    1c90:	dc000015 	stw	r16,0(sp)
    1c94:	2021883a 	mov	r16,r4
    1c98:	dfc00215 	stw	ra,8(sp)
    1c9c:	dc400115 	stw	r17,4(sp)
	TCB_t *pxTCB;

		taskENTER_CRITICAL();
    1ca0:	00019300 	call	1930 <vTaskEnterCritical>
		{
			/* If null is passed in here then it is the calling task that is
			being deleted. */
			pxTCB = prvGetTCBFromHandle( xTaskToDelete );
    1ca4:	8000011e 	bne	r16,zero,1cac <vTaskDelete+0x20>
    1ca8:	d4201e17 	ldw	r16,-32648(gp)

			/* Remove task from the ready list and place in the	termination list.
			This will stop the task from be scheduled.  The idle task will check
			the termination list and free up any memory allocated by the
			scheduler for the TCB and stack. */
			if( uxListRemove( &( pxTCB->xGenericListItem ) ) == ( UBaseType_t ) 0 )
    1cac:	84400104 	addi	r17,r16,4
    1cb0:	8809883a 	mov	r4,r17
    1cb4:	000037c0 	call	37c <uxListRemove>
			{
				mtCOVERAGE_TEST_MARKER();
			}

			/* Is the task waiting on an event also? */
			if( listLIST_ITEM_CONTAINER( &( pxTCB->xEventListItem ) ) != NULL )
    1cb8:	80800a17 	ldw	r2,40(r16)
    1cbc:	10000226 	beq	r2,zero,1cc8 <vTaskDelete+0x3c>
			{
				( void ) uxListRemove( &( pxTCB->xEventListItem ) );
    1cc0:	81000604 	addi	r4,r16,24
    1cc4:	000037c0 	call	37c <uxListRemove>
			else
			{
				mtCOVERAGE_TEST_MARKER();
			}

			vListInsertEnd( &xTasksWaitingTermination, &( pxTCB->xGenericListItem ) );
    1cc8:	01000034 	movhi	r4,0
    1ccc:	2114f304 	addi	r4,r4,21452
    1cd0:	880b883a 	mov	r5,r17
    1cd4:	00002f80 	call	2f8 <vListInsertEnd>

			/* Increment the ucTasksDeleted variable so the idle task knows
			there is a task that has been deleted and that it should therefore
			check the xTasksWaitingTermination list. */
			++uxTasksDeleted;
    1cd8:	d0a01b17 	ldw	r2,-32660(gp)
    1cdc:	10800044 	addi	r2,r2,1
    1ce0:	d0a01b15 	stw	r2,-32660(gp)

			/* Increment the uxTaskNumberVariable also so kernel aware debuggers
			can detect that the task lists need re-generating. */
			uxTaskNumber++;
    1ce4:	d0a01317 	ldw	r2,-32692(gp)
    1ce8:	10800044 	addi	r2,r2,1
    1cec:	d0a01315 	stw	r2,-32692(gp)

			traceTASK_DELETE( pxTCB );
		}
		taskEXIT_CRITICAL();
    1cf0:	00019600 	call	1960 <vTaskExitCritical>

		/* Force a reschedule if it is the currently running task that has just
		been deleted. */
		if( xSchedulerRunning != pdFALSE )
    1cf4:	d0a01717 	ldw	r2,-32676(gp)
    1cf8:	10000b26 	beq	r2,zero,1d28 <vTaskDelete+0x9c>
		{
			if( pxTCB == pxCurrentTCB )
    1cfc:	d0a01e17 	ldw	r2,-32648(gp)
    1d00:	8080021e 	bne	r16,r2,1d0c <vTaskDelete+0x80>
				in which Windows specific clean up operations are performed,
				after which it is not possible to yield away from this task -
				hence xYieldPending is used to latch that a context switch is
				required. */
				portPRE_TASK_DELETE_HOOK( pxTCB, &xYieldPending );
				portYIELD_WITHIN_API();
    1d04:	003b683a 	trap	0
    1d08:	00000706 	br	1d28 <vTaskDelete+0x9c>
			}
			else
			{
				/* Reset the next expected unblock time in case it referred to
				the task that has just been deleted. */
				taskENTER_CRITICAL();
    1d0c:	00019300 	call	1930 <vTaskEnterCritical>
				{
					prvResetNextTaskUnblockTime();
    1d10:	00011ac0 	call	11ac <prvResetNextTaskUnblockTime>
				}
				taskEXIT_CRITICAL();
			}
		}
	}
    1d14:	dfc00217 	ldw	ra,8(sp)
    1d18:	dc400117 	ldw	r17,4(sp)
    1d1c:	dc000017 	ldw	r16,0(sp)
    1d20:	dec00304 	addi	sp,sp,12
				the task that has just been deleted. */
				taskENTER_CRITICAL();
				{
					prvResetNextTaskUnblockTime();
				}
				taskEXIT_CRITICAL();
    1d24:	00019601 	jmpi	1960 <vTaskExitCritical>
			}
		}
	}
    1d28:	dfc00217 	ldw	ra,8(sp)
    1d2c:	dc400117 	ldw	r17,4(sp)
    1d30:	dc000017 	ldw	r16,0(sp)
    1d34:	dec00304 	addi	sp,sp,12
    1d38:	f800283a 	ret

00001d3c <uxTaskPriorityGet>:
/*-----------------------------------------------------------*/

#if ( INCLUDE_uxTaskPriorityGet == 1 )

	UBaseType_t uxTaskPriorityGet( TaskHandle_t xTask )
	{
    1d3c:	defffe04 	addi	sp,sp,-8
    1d40:	dc000015 	stw	r16,0(sp)
    1d44:	2021883a 	mov	r16,r4
    1d48:	dfc00115 	stw	ra,4(sp)
	TCB_t *pxTCB;
	UBaseType_t uxReturn;

		taskENTER_CRITICAL();
    1d4c:	00019300 	call	1930 <vTaskEnterCritical>
		{
			/* If null is passed in here then it is the priority of the that
			called uxTaskPriorityGet() that is being queried. */
			pxTCB = prvGetTCBFromHandle( xTask );
    1d50:	8000011e 	bne	r16,zero,1d58 <uxTaskPriorityGet+0x1c>
    1d54:	d4201e17 	ldw	r16,-32648(gp)
			uxReturn = pxTCB->uxPriority;
    1d58:	84000b17 	ldw	r16,44(r16)
		}
		taskEXIT_CRITICAL();
    1d5c:	00019600 	call	1960 <vTaskExitCritical>

		return uxReturn;
	}
    1d60:	8005883a 	mov	r2,r16
    1d64:	dfc00117 	ldw	ra,4(sp)
    1d68:	dc000017 	ldw	r16,0(sp)
    1d6c:	dec00204 	addi	sp,sp,8
    1d70:	f800283a 	ret

00001d74 <vTaskPrioritySet>:
/*-----------------------------------------------------------*/

#if ( INCLUDE_vTaskPrioritySet == 1 )

	void vTaskPrioritySet( TaskHandle_t xTask, UBaseType_t uxNewPriority )
	{
    1d74:	defffb04 	addi	sp,sp,-20
    1d78:	dc400115 	stw	r17,4(sp)
    1d7c:	dc000015 	stw	r16,0(sp)
    1d80:	dfc00415 	stw	ra,16(sp)
    1d84:	dcc00315 	stw	r19,12(sp)
    1d88:	dc800215 	stw	r18,8(sp)
    1d8c:	00800104 	movi	r2,4
    1d90:	2021883a 	mov	r16,r4
    1d94:	2823883a 	mov	r17,r5
    1d98:	1140012e 	bgeu	r2,r5,1da0 <vTaskPrioritySet+0x2c>
    1d9c:	1023883a 	mov	r17,r2
		else
		{
			mtCOVERAGE_TEST_MARKER();
		}

		taskENTER_CRITICAL();
    1da0:	00019300 	call	1930 <vTaskEnterCritical>
		{
			/* If null is passed in here then it is the priority of the calling
			task that is being changed. */
			pxTCB = prvGetTCBFromHandle( xTask );
    1da4:	8000011e 	bne	r16,zero,1dac <vTaskPrioritySet+0x38>
    1da8:	d4201e17 	ldw	r16,-32648(gp)

			traceTASK_PRIORITY_SET( pxTCB, uxNewPriority );

			#if ( configUSE_MUTEXES == 1 )
			{
				uxCurrentBasePriority = pxTCB->uxBasePriority;
    1dac:	80801017 	ldw	r2,64(r16)
			{
				uxCurrentBasePriority = pxTCB->uxPriority;
			}
			#endif

			if( uxCurrentBasePriority != uxNewPriority )
    1db0:	14402a26 	beq	r2,r17,1e5c <vTaskPrioritySet+0xe8>
			{
				/* The priority change may have readied a task of higher
				priority than the calling task. */
				if( uxNewPriority > uxCurrentBasePriority )
    1db4:	1440062e 	bgeu	r2,r17,1dd0 <vTaskPrioritySet+0x5c>
				{
					if( pxTCB != pxCurrentTCB )
    1db8:	d0e01e17 	ldw	r3,-32648(gp)
    1dbc:	80c00726 	beq	r16,r3,1ddc <vTaskPrioritySet+0x68>
					{
						/* The priority of a task other than the currently
						running task is being raised.  Is the priority being
						raised above that of the running task? */
						if( uxNewPriority >= pxCurrentTCB->uxPriority )
    1dc0:	d0e01e17 	ldw	r3,-32648(gp)
    1dc4:	1c800b17 	ldw	r18,44(r3)
    1dc8:	8ca5403a 	cmpgeu	r18,r17,r18
    1dcc:	00000406 	br	1de0 <vTaskPrioritySet+0x6c>
						/* The priority of the running task is being raised,
						but the running task must already be the highest
						priority task able to run so no yield is required. */
					}
				}
				else if( pxTCB == pxCurrentTCB )
    1dd0:	d4a01e17 	ldw	r18,-32648(gp)
    1dd4:	84a5003a 	cmpeq	r18,r16,r18
    1dd8:	00000106 	br	1de0 <vTaskPrioritySet+0x6c>

	void vTaskPrioritySet( TaskHandle_t xTask, UBaseType_t uxNewPriority )
	{
	TCB_t *pxTCB;
	UBaseType_t uxCurrentBasePriority, uxPriorityUsedOnEntry;
	BaseType_t xYieldRequired = pdFALSE;
    1ddc:	0025883a 	mov	r18,zero
				}

				/* Remember the ready list the task might be referenced from
				before its uxPriority member is changed so the
				taskRESET_READY_PRIORITY() macro can function correctly. */
				uxPriorityUsedOnEntry = pxTCB->uxPriority;
    1de0:	81000b17 	ldw	r4,44(r16)

				#if ( configUSE_MUTEXES == 1 )
				{
					/* Only change the priority being used if the task is not
					currently using an inherited priority. */
					if( pxTCB->uxBasePriority == pxTCB->uxPriority )
    1de4:	1100011e 	bne	r2,r4,1dec <vTaskPrioritySet+0x78>
					{
						pxTCB->uxPriority = uxNewPriority;
    1de8:	84400b15 	stw	r17,44(r16)
				}
				#endif

				/* Only reset the event list item value if the value is not
				being used for anything else. */
				if( ( listGET_LIST_ITEM_VALUE( &( pxTCB->xEventListItem ) ) & taskEVENT_LIST_ITEM_VALUE_IN_USE ) == 0UL )
    1dec:	80800617 	ldw	r2,24(r16)
					{
						mtCOVERAGE_TEST_MARKER();
					}

					/* The base priority gets set whatever. */
					pxTCB->uxBasePriority = uxNewPriority;
    1df0:	84401015 	stw	r17,64(r16)
				}
				#endif

				/* Only reset the event list item value if the value is not
				being used for anything else. */
				if( ( listGET_LIST_ITEM_VALUE( &( pxTCB->xEventListItem ) ) & taskEVENT_LIST_ITEM_VALUE_IN_USE ) == 0UL )
    1df4:	10000316 	blt	r2,zero,1e04 <vTaskPrioritySet+0x90>
				{
					listSET_LIST_ITEM_VALUE( &( pxTCB->xEventListItem ), ( ( TickType_t ) configMAX_PRIORITIES - ( TickType_t ) uxNewPriority ) ); /*lint !e961 MISRA exception as the casts are only redundant for some ports. */
    1df8:	01400144 	movi	r5,5
    1dfc:	2c63c83a 	sub	r17,r5,r17
    1e00:	84400615 	stw	r17,24(r16)

				/* If the task is in the blocked or suspended list we need do
				nothing more than change it's priority variable. However, if
				the task is in a ready list it needs to be removed and placed
				in the list appropriate to its new priority. */
				if( listIS_CONTAINED_WITHIN( &( pxReadyTasksLists[ uxPriorityUsedOnEntry ] ), &( pxTCB->xGenericListItem ) ) != pdFALSE )
    1e04:	01400504 	movi	r5,20
    1e08:	00029180 	call	2918 <__mulsi3>
    1e0c:	01000034 	movhi	r4,0
    1e10:	80c00517 	ldw	r3,20(r16)
    1e14:	21150704 	addi	r4,r4,21532
    1e18:	2085883a 	add	r2,r4,r2
    1e1c:	2023883a 	mov	r17,r4
    1e20:	18800c1e 	bne	r3,r2,1e54 <vTaskPrioritySet+0xe0>
				{
					/* The task is currently in its ready list - remove before adding
					it to it's new ready list.  As we are in a critical section we
					can do this even if the scheduler is suspended. */
					if( uxListRemove( &( pxTCB->xGenericListItem ) ) == ( UBaseType_t ) 0 )
    1e24:	84c00104 	addi	r19,r16,4
    1e28:	9809883a 	mov	r4,r19
    1e2c:	000037c0 	call	37c <uxListRemove>
					}
					else
					{
						mtCOVERAGE_TEST_MARKER();
					}
					prvAddTaskToReadyList( pxTCB );
    1e30:	81000b17 	ldw	r4,44(r16)
    1e34:	d0a01817 	ldw	r2,-32672(gp)
    1e38:	1100012e 	bgeu	r2,r4,1e40 <vTaskPrioritySet+0xcc>
    1e3c:	d1201815 	stw	r4,-32672(gp)
    1e40:	01400504 	movi	r5,20
    1e44:	00029180 	call	2918 <__mulsi3>
    1e48:	8889883a 	add	r4,r17,r2
    1e4c:	980b883a 	mov	r5,r19
    1e50:	00002f80 	call	2f8 <vListInsertEnd>
				else
				{
					mtCOVERAGE_TEST_MARKER();
				}

				if( xYieldRequired == pdTRUE )
    1e54:	90000126 	beq	r18,zero,1e5c <vTaskPrioritySet+0xe8>
				{
					taskYIELD_IF_USING_PREEMPTION();
    1e58:	003b683a 	trap	0
				optimised task selection is not being used. */
				( void ) uxPriorityUsedOnEntry;
			}
		}
		taskEXIT_CRITICAL();
	}
    1e5c:	dfc00417 	ldw	ra,16(sp)
    1e60:	dcc00317 	ldw	r19,12(sp)
    1e64:	dc800217 	ldw	r18,8(sp)
    1e68:	dc400117 	ldw	r17,4(sp)
    1e6c:	dc000017 	ldw	r16,0(sp)
    1e70:	dec00504 	addi	sp,sp,20
				/* Remove compiler warning about unused variables when the port
				optimised task selection is not being used. */
				( void ) uxPriorityUsedOnEntry;
			}
		}
		taskEXIT_CRITICAL();
    1e74:	00019601 	jmpi	1960 <vTaskExitCritical>

00001e78 <vTaskSuspend>:
/*-----------------------------------------------------------*/

#if ( INCLUDE_vTaskSuspend == 1 )

	void vTaskSuspend( TaskHandle_t xTaskToSuspend )
	{
    1e78:	defffc04 	addi	sp,sp,-16
    1e7c:	dc000015 	stw	r16,0(sp)
    1e80:	2021883a 	mov	r16,r4
    1e84:	dfc00315 	stw	ra,12(sp)
    1e88:	dc800215 	stw	r18,8(sp)
    1e8c:	dc400115 	stw	r17,4(sp)
	TCB_t *pxTCB;

		taskENTER_CRITICAL();
    1e90:	00019300 	call	1930 <vTaskEnterCritical>
		{
			/* If null is passed in here then it is the running task that is
			being suspended. */
			pxTCB = prvGetTCBFromHandle( xTaskToSuspend );
    1e94:	8000011e 	bne	r16,zero,1e9c <vTaskSuspend+0x24>
    1e98:	d4201e17 	ldw	r16,-32648(gp)

			traceTASK_SUSPEND( pxTCB );

			/* Remove task from the ready/delayed list and place in the
			suspended list. */
			if( uxListRemove( &( pxTCB->xGenericListItem ) ) == ( UBaseType_t ) 0 )
    1e9c:	84800104 	addi	r18,r16,4
    1ea0:	9009883a 	mov	r4,r18
    1ea4:	000037c0 	call	37c <uxListRemove>
			{
				mtCOVERAGE_TEST_MARKER();
			}

			/* Is the task waiting on an event also? */
			if( listLIST_ITEM_CONTAINER( &( pxTCB->xEventListItem ) ) != NULL )
    1ea8:	80800a17 	ldw	r2,40(r16)
    1eac:	10000226 	beq	r2,zero,1eb8 <vTaskSuspend+0x40>
			{
				( void ) uxListRemove( &( pxTCB->xEventListItem ) );
    1eb0:	81000604 	addi	r4,r16,24
    1eb4:	000037c0 	call	37c <uxListRemove>
			else
			{
				mtCOVERAGE_TEST_MARKER();
			}

			vListInsertEnd( &xSuspendedTaskList, &( pxTCB->xGenericListItem ) );
    1eb8:	04400034 	movhi	r17,0
    1ebc:	8c54ee04 	addi	r17,r17,21432
    1ec0:	8809883a 	mov	r4,r17
    1ec4:	900b883a 	mov	r5,r18
    1ec8:	00002f80 	call	2f8 <vListInsertEnd>
		}
		taskEXIT_CRITICAL();
    1ecc:	00019600 	call	1960 <vTaskExitCritical>

		if( pxTCB == pxCurrentTCB )
    1ed0:	d0a01e17 	ldw	r2,-32648(gp)
    1ed4:	80800f1e 	bne	r16,r2,1f14 <vTaskSuspend+0x9c>
		{
			if( xSchedulerRunning != pdFALSE )
    1ed8:	d0a01717 	ldw	r2,-32676(gp)
    1edc:	10000226 	beq	r2,zero,1ee8 <vTaskSuspend+0x70>
			{
				/* The current task has just been suspended. */
				configASSERT( uxSchedulerSuspended == 0 );
				portYIELD_WITHIN_API();
    1ee0:	003b683a 	trap	0
    1ee4:	00001506 	br	1f3c <vTaskSuspend+0xc4>
			else
			{
				/* The scheduler is not running, but the task that was pointed
				to by pxCurrentTCB has just been suspended and pxCurrentTCB
				must be adjusted to point to a different task. */
				if( listCURRENT_LIST_LENGTH( &xSuspendedTaskList ) == uxCurrentNumberOfTasks )
    1ee8:	d0a01a17 	ldw	r2,-32664(gp)
    1eec:	88c00017 	ldw	r3,0(r17)
    1ef0:	1880021e 	bne	r3,r2,1efc <vTaskSuspend+0x84>
				{
					/* No other tasks are ready, so set pxCurrentTCB back to
					NULL so when the next task is created pxCurrentTCB will
					be set to point to it no matter what its relative priority
					is. */
					pxCurrentTCB = NULL;
    1ef4:	d0201e15 	stw	zero,-32648(gp)
    1ef8:	00001006 	br	1f3c <vTaskSuspend+0xc4>
			else
			{
				mtCOVERAGE_TEST_MARKER();
			}
		}
	}
    1efc:	dfc00317 	ldw	ra,12(sp)
    1f00:	dc800217 	ldw	r18,8(sp)
    1f04:	dc400117 	ldw	r17,4(sp)
    1f08:	dc000017 	ldw	r16,0(sp)
    1f0c:	dec00404 	addi	sp,sp,16
					is. */
					pxCurrentTCB = NULL;
				}
				else
				{
					vTaskSwitchContext();
    1f10:	00014881 	jmpi	1488 <vTaskSwitchContext>
				}
			}
		}
		else
		{
			if( xSchedulerRunning != pdFALSE )
    1f14:	d0a01717 	ldw	r2,-32676(gp)
    1f18:	10000826 	beq	r2,zero,1f3c <vTaskSuspend+0xc4>
			{
				/* A task other than the currently running task was suspended,
				reset the next expected unblock time in case it referred to the
				task that is now in the Suspended state. */
				taskENTER_CRITICAL();
    1f1c:	00019300 	call	1930 <vTaskEnterCritical>
				{
					prvResetNextTaskUnblockTime();
    1f20:	00011ac0 	call	11ac <prvResetNextTaskUnblockTime>
			else
			{
				mtCOVERAGE_TEST_MARKER();
			}
		}
	}
    1f24:	dfc00317 	ldw	ra,12(sp)
    1f28:	dc800217 	ldw	r18,8(sp)
    1f2c:	dc400117 	ldw	r17,4(sp)
    1f30:	dc000017 	ldw	r16,0(sp)
    1f34:	dec00404 	addi	sp,sp,16
				task that is now in the Suspended state. */
				taskENTER_CRITICAL();
				{
					prvResetNextTaskUnblockTime();
				}
				taskEXIT_CRITICAL();
    1f38:	00019601 	jmpi	1960 <vTaskExitCritical>
			else
			{
				mtCOVERAGE_TEST_MARKER();
			}
		}
	}
    1f3c:	dfc00317 	ldw	ra,12(sp)
    1f40:	dc800217 	ldw	r18,8(sp)
    1f44:	dc400117 	ldw	r17,4(sp)
    1f48:	dc000017 	ldw	r16,0(sp)
    1f4c:	dec00404 	addi	sp,sp,16
    1f50:	f800283a 	ret

00001f54 <vTaskResume>:
		/* It does not make sense to resume the calling task. */
		configASSERT( xTaskToResume );

		/* The parameter cannot be NULL as it is impossible to resume the
		currently executing task. */
		if( ( pxTCB != NULL ) && ( pxTCB != pxCurrentTCB ) )
    1f54:	20002426 	beq	r4,zero,1fe8 <vTaskResume+0x94>
    1f58:	d0a01e17 	ldw	r2,-32648(gp)
    1f5c:	20802226 	beq	r4,r2,1fe8 <vTaskResume+0x94>
/*-----------------------------------------------------------*/

#if ( INCLUDE_vTaskSuspend == 1 )

	void vTaskResume( TaskHandle_t xTaskToResume )
	{
    1f60:	defffd04 	addi	sp,sp,-12
    1f64:	dfc00215 	stw	ra,8(sp)
    1f68:	dc000015 	stw	r16,0(sp)
    1f6c:	dc400115 	stw	r17,4(sp)
    1f70:	2021883a 	mov	r16,r4

		/* The parameter cannot be NULL as it is impossible to resume the
		currently executing task. */
		if( ( pxTCB != NULL ) && ( pxTCB != pxCurrentTCB ) )
		{
			taskENTER_CRITICAL();
    1f74:	00019300 	call	1930 <vTaskEnterCritical>
			{
				if( prvTaskIsTaskSuspended( pxTCB ) == pdTRUE )
    1f78:	8009883a 	mov	r4,r16
    1f7c:	00011800 	call	1180 <prvTaskIsTaskSuspended>
    1f80:	00c00044 	movi	r3,1
    1f84:	10c0131e 	bne	r2,r3,1fd4 <vTaskResume+0x80>
				{
					traceTASK_RESUME( pxTCB );

					/* As we are in a critical section we can access the ready
					lists even if the scheduler is suspended. */
					( void ) uxListRemove(  &( pxTCB->xGenericListItem ) );
    1f88:	84400104 	addi	r17,r16,4
    1f8c:	8809883a 	mov	r4,r17
    1f90:	000037c0 	call	37c <uxListRemove>
					prvAddTaskToReadyList( pxTCB );
    1f94:	81000b17 	ldw	r4,44(r16)
    1f98:	d0a01817 	ldw	r2,-32672(gp)
    1f9c:	1100012e 	bgeu	r2,r4,1fa4 <vTaskResume+0x50>
    1fa0:	d1201815 	stw	r4,-32672(gp)
    1fa4:	01400504 	movi	r5,20
    1fa8:	00029180 	call	2918 <__mulsi3>
    1fac:	01000034 	movhi	r4,0
    1fb0:	21150704 	addi	r4,r4,21532
    1fb4:	2089883a 	add	r4,r4,r2
    1fb8:	880b883a 	mov	r5,r17
    1fbc:	00002f80 	call	2f8 <vListInsertEnd>

					/* We may have just resumed a higher priority task. */
					if( pxTCB->uxPriority >= pxCurrentTCB->uxPriority )
    1fc0:	d0a01e17 	ldw	r2,-32648(gp)
    1fc4:	80c00b17 	ldw	r3,44(r16)
    1fc8:	10800b17 	ldw	r2,44(r2)
    1fcc:	18800136 	bltu	r3,r2,1fd4 <vTaskResume+0x80>
					{
						/* This yield may not cause the task just resumed to run,
						but will leave the lists in the correct state for the
						next yield. */
						taskYIELD_IF_USING_PREEMPTION();
    1fd0:	003b683a 	trap	0
		}
		else
		{
			mtCOVERAGE_TEST_MARKER();
		}
	}
    1fd4:	dfc00217 	ldw	ra,8(sp)
    1fd8:	dc400117 	ldw	r17,4(sp)
    1fdc:	dc000017 	ldw	r16,0(sp)
    1fe0:	dec00304 	addi	sp,sp,12
				else
				{
					mtCOVERAGE_TEST_MARKER();
				}
			}
			taskEXIT_CRITICAL();
    1fe4:	00019601 	jmpi	1960 <vTaskExitCritical>
    1fe8:	f800283a 	ret

00001fec <xTaskResumeAll>:

#endif /* configUSE_TICKLESS_IDLE */
/*----------------------------------------------------------*/

BaseType_t xTaskResumeAll( void )
{
    1fec:	defffa04 	addi	sp,sp,-24
    1ff0:	dfc00515 	stw	ra,20(sp)
    1ff4:	dd000415 	stw	r20,16(sp)
    1ff8:	dcc00315 	stw	r19,12(sp)
    1ffc:	dc800215 	stw	r18,8(sp)
    2000:	dc400115 	stw	r17,4(sp)
    2004:	dc000015 	stw	r16,0(sp)
	/* It is possible that an ISR caused a task to be removed from an event
	list while the scheduler was suspended.  If this was the case then the
	removed task will have been added to the xPendingReadyList.  Once the
	scheduler has been resumed it is safe to move all the pending ready
	tasks from this list into their appropriate ready list. */
	taskENTER_CRITICAL();
    2008:	00019300 	call	1930 <vTaskEnterCritical>
	{
		--uxSchedulerSuspended;
    200c:	d0a01117 	ldw	r2,-32700(gp)
    2010:	10bfffc4 	addi	r2,r2,-1
    2014:	d0a01115 	stw	r2,-32700(gp)

		if( uxSchedulerSuspended == ( UBaseType_t ) pdFALSE )
    2018:	d0a01117 	ldw	r2,-32700(gp)
    201c:	10000226 	beq	r2,zero,2028 <xTaskResumeAll+0x3c>
/*----------------------------------------------------------*/

BaseType_t xTaskResumeAll( void )
{
TCB_t *pxTCB;
BaseType_t xAlreadyYielded = pdFALSE;
    2020:	0021883a 	mov	r16,zero
    2024:	00003006 	br	20e8 <xTaskResumeAll+0xfc>
	{
		--uxSchedulerSuspended;

		if( uxSchedulerSuspended == ( UBaseType_t ) pdFALSE )
		{
			if( uxCurrentNumberOfTasks > ( UBaseType_t ) 0U )
    2028:	d0a01a17 	ldw	r2,-32664(gp)
    202c:	103ffc26 	beq	r2,zero,2020 <xTaskResumeAll+0x34>
			{
				/* Move any readied tasks from the pending list into the
				appropriate ready list. */
				while( listLIST_IS_EMPTY( &xPendingReadyList ) == pdFALSE )
    2030:	04400034 	movhi	r17,0
				{
					pxTCB = ( TCB_t * ) listGET_OWNER_OF_HEAD_ENTRY( ( &xPendingReadyList ) );
					( void ) uxListRemove( &( pxTCB->xEventListItem ) );
					( void ) uxListRemove( &( pxTCB->xGenericListItem ) );
					prvAddTaskToReadyList( pxTCB );
    2034:	04c00034 	movhi	r19,0
		{
			if( uxCurrentNumberOfTasks > ( UBaseType_t ) 0U )
			{
				/* Move any readied tasks from the pending list into the
				appropriate ready list. */
				while( listLIST_IS_EMPTY( &xPendingReadyList ) == pdFALSE )
    2038:	8c54f804 	addi	r17,r17,21472
				{
					pxTCB = ( TCB_t * ) listGET_OWNER_OF_HEAD_ENTRY( ( &xPendingReadyList ) );
					( void ) uxListRemove( &( pxTCB->xEventListItem ) );
					( void ) uxListRemove( &( pxTCB->xGenericListItem ) );
					prvAddTaskToReadyList( pxTCB );
    203c:	9cd50704 	addi	r19,r19,21532

					/* If the moved task has a priority higher than the current
					task then a yield must be performed. */
					if( pxTCB->uxPriority >= pxCurrentTCB->uxPriority )
					{
						xYieldPending = pdTRUE;
    2040:	05000044 	movi	r20,1
		{
			if( uxCurrentNumberOfTasks > ( UBaseType_t ) 0U )
			{
				/* Move any readied tasks from the pending list into the
				appropriate ready list. */
				while( listLIST_IS_EMPTY( &xPendingReadyList ) == pdFALSE )
    2044:	88800017 	ldw	r2,0(r17)
    2048:	10001626 	beq	r2,zero,20a4 <xTaskResumeAll+0xb8>
				{
					pxTCB = ( TCB_t * ) listGET_OWNER_OF_HEAD_ENTRY( ( &xPendingReadyList ) );
    204c:	88800317 	ldw	r2,12(r17)
    2050:	14000317 	ldw	r16,12(r2)
					( void ) uxListRemove( &( pxTCB->xEventListItem ) );
    2054:	81000604 	addi	r4,r16,24
    2058:	000037c0 	call	37c <uxListRemove>
					( void ) uxListRemove( &( pxTCB->xGenericListItem ) );
    205c:	84800104 	addi	r18,r16,4
    2060:	9009883a 	mov	r4,r18
    2064:	000037c0 	call	37c <uxListRemove>
					prvAddTaskToReadyList( pxTCB );
    2068:	81000b17 	ldw	r4,44(r16)
    206c:	d0a01817 	ldw	r2,-32672(gp)
    2070:	1100012e 	bgeu	r2,r4,2078 <xTaskResumeAll+0x8c>
    2074:	d1201815 	stw	r4,-32672(gp)
    2078:	01400504 	movi	r5,20
    207c:	00029180 	call	2918 <__mulsi3>
    2080:	9889883a 	add	r4,r19,r2
    2084:	900b883a 	mov	r5,r18
    2088:	00002f80 	call	2f8 <vListInsertEnd>

					/* If the moved task has a priority higher than the current
					task then a yield must be performed. */
					if( pxTCB->uxPriority >= pxCurrentTCB->uxPriority )
    208c:	d0a01e17 	ldw	r2,-32648(gp)
    2090:	80c00b17 	ldw	r3,44(r16)
    2094:	10800b17 	ldw	r2,44(r2)
    2098:	18bfea36 	bltu	r3,r2,2044 <xTaskResumeAll+0x58>
					{
						xYieldPending = pdTRUE;
    209c:	d5201515 	stw	r20,-32684(gp)
    20a0:	003fe806 	br	2044 <xTaskResumeAll+0x58>

				/* If any ticks occurred while the scheduler was suspended then
				they should be processed now.  This ensures the tick count does
				not	slip, and that any delayed tasks are resumed at the correct
				time. */
				if( uxPendedTicks > ( UBaseType_t ) 0U )
    20a4:	d0a01617 	ldw	r2,-32680(gp)
    20a8:	1000051e 	bne	r2,zero,20c0 <xTaskResumeAll+0xd4>
				else
				{
					mtCOVERAGE_TEST_MARKER();
				}

				if( xYieldPending == pdTRUE )
    20ac:	d4201517 	ldw	r16,-32684(gp)
    20b0:	00800044 	movi	r2,1
    20b4:	80bfda1e 	bne	r16,r2,2020 <xTaskResumeAll+0x34>
					#if( configUSE_PREEMPTION != 0 )
					{
						xAlreadyYielded = pdTRUE;
					}
					#endif
					taskYIELD_IF_USING_PREEMPTION();
    20b8:	003b683a 	trap	0
    20bc:	00000a06 	br	20e8 <xTaskResumeAll+0xfc>
				{
					while( uxPendedTicks > ( UBaseType_t ) 0U )
					{
						if( xTaskIncrementTick() != pdFALSE )
						{
							xYieldPending = pdTRUE;
    20c0:	04000044 	movi	r16,1
				they should be processed now.  This ensures the tick count does
				not	slip, and that any delayed tasks are resumed at the correct
				time. */
				if( uxPendedTicks > ( UBaseType_t ) 0U )
				{
					while( uxPendedTicks > ( UBaseType_t ) 0U )
    20c4:	d0a01617 	ldw	r2,-32680(gp)
    20c8:	103ff826 	beq	r2,zero,20ac <xTaskResumeAll+0xc0>
					{
						if( xTaskIncrementTick() != pdFALSE )
    20cc:	000132c0 	call	132c <xTaskIncrementTick>
    20d0:	10000126 	beq	r2,zero,20d8 <xTaskResumeAll+0xec>
						{
							xYieldPending = pdTRUE;
    20d4:	d4201515 	stw	r16,-32684(gp)
						}
						else
						{
							mtCOVERAGE_TEST_MARKER();
						}
						--uxPendedTicks;
    20d8:	d0a01617 	ldw	r2,-32680(gp)
    20dc:	10bfffc4 	addi	r2,r2,-1
    20e0:	d0a01615 	stw	r2,-32680(gp)
    20e4:	003ff706 	br	20c4 <xTaskResumeAll+0xd8>
		else
		{
			mtCOVERAGE_TEST_MARKER();
		}
	}
	taskEXIT_CRITICAL();
    20e8:	00019600 	call	1960 <vTaskExitCritical>

	return xAlreadyYielded;
}
    20ec:	8005883a 	mov	r2,r16
    20f0:	dfc00517 	ldw	ra,20(sp)
    20f4:	dd000417 	ldw	r20,16(sp)
    20f8:	dcc00317 	ldw	r19,12(sp)
    20fc:	dc800217 	ldw	r18,8(sp)
    2100:	dc400117 	ldw	r17,4(sp)
    2104:	dc000017 	ldw	r16,0(sp)
    2108:	dec00604 	addi	sp,sp,24
    210c:	f800283a 	ret

00002110 <vTaskDelayUntil>:
/*-----------------------------------------------------------*/

#if ( INCLUDE_vTaskDelayUntil == 1 )

	void vTaskDelayUntil( TickType_t * const pxPreviousWakeTime, const TickType_t xTimeIncrement )
	{
    2110:	defffd04 	addi	sp,sp,-12
    2114:	dc400115 	stw	r17,4(sp)
    2118:	dc000015 	stw	r16,0(sp)
    211c:	2023883a 	mov	r17,r4
    2120:	2821883a 	mov	r16,r5
    2124:	dfc00215 	stw	ra,8(sp)

		configASSERT( pxPreviousWakeTime );
		configASSERT( ( xTimeIncrement > 0U ) );
		configASSERT( uxSchedulerSuspended == 0 );

		vTaskSuspendAll();
    2128:	00013040 	call	1304 <vTaskSuspendAll>
			/* Minor optimisation.  The tick count cannot change in this
			block. */
			const TickType_t xConstTickCount = xTickCount;

			/* Generate the tick time at which the task wants to wake. */
			xTimeToWake = *pxPreviousWakeTime + xTimeIncrement;
    212c:	88c00017 	ldw	r3,0(r17)

		vTaskSuspendAll();
		{
			/* Minor optimisation.  The tick count cannot change in this
			block. */
			const TickType_t xConstTickCount = xTickCount;
    2130:	d0a01917 	ldw	r2,-32668(gp)

			/* Generate the tick time at which the task wants to wake. */
			xTimeToWake = *pxPreviousWakeTime + xTimeIncrement;
    2134:	1c21883a 	add	r16,r3,r16

			if( xConstTickCount < *pxPreviousWakeTime )
    2138:	10c0022e 	bgeu	r2,r3,2144 <vTaskDelayUntil+0x34>
				/* The tick count has overflowed since this function was
				lasted called.  In this case the only time we should ever
				actually delay is if the wake time has also	overflowed,
				and the wake time is greater than the tick time.  When this
				is the case it is as if neither time had overflowed. */
				if( ( xTimeToWake < *pxPreviousWakeTime ) && ( xTimeToWake > xConstTickCount ) )
    213c:	80c0042e 	bgeu	r16,r3,2150 <vTaskDelayUntil+0x40>
    2140:	00000106 	br	2148 <vTaskDelayUntil+0x38>
			else
			{
				/* The tick time has not overflowed.  In this case we will
				delay if either the wake time has overflowed, and/or the
				tick time is less than the wake time. */
				if( ( xTimeToWake < *pxPreviousWakeTime ) || ( xTimeToWake > xConstTickCount ) )
    2144:	80c00436 	bltu	r16,r3,2158 <vTaskDelayUntil+0x48>
    2148:	1405803a 	cmpltu	r2,r2,r16
    214c:	00000306 	br	215c <vTaskDelayUntil+0x4c>
#if ( INCLUDE_vTaskDelayUntil == 1 )

	void vTaskDelayUntil( TickType_t * const pxPreviousWakeTime, const TickType_t xTimeIncrement )
	{
	TickType_t xTimeToWake;
	BaseType_t xAlreadyYielded, xShouldDelay = pdFALSE;
    2150:	0005883a 	mov	r2,zero
    2154:	00000106 	br	215c <vTaskDelayUntil+0x4c>
				/* The tick time has not overflowed.  In this case we will
				delay if either the wake time has overflowed, and/or the
				tick time is less than the wake time. */
				if( ( xTimeToWake < *pxPreviousWakeTime ) || ( xTimeToWake > xConstTickCount ) )
				{
					xShouldDelay = pdTRUE;
    2158:	00800044 	movi	r2,1
					mtCOVERAGE_TEST_MARKER();
				}
			}

			/* Update the wake time ready for the next call. */
			*pxPreviousWakeTime = xTimeToWake;
    215c:	8c000015 	stw	r16,0(r17)

			if( xShouldDelay != pdFALSE )
    2160:	10000526 	beq	r2,zero,2178 <vTaskDelayUntil+0x68>
			{
				traceTASK_DELAY_UNTIL();

				/* Remove the task from the ready list before adding it to the
				blocked list as the same list item is used for both lists. */
				if( uxListRemove( &( pxCurrentTCB->xGenericListItem ) ) == ( UBaseType_t ) 0 )
    2164:	d1201e17 	ldw	r4,-32648(gp)
    2168:	21000104 	addi	r4,r4,4
    216c:	000037c0 	call	37c <uxListRemove>
				else
				{
					mtCOVERAGE_TEST_MARKER();
				}

				prvAddCurrentTaskToDelayedList( xTimeToWake );
    2170:	8009883a 	mov	r4,r16
    2174:	00011d80 	call	11d8 <prvAddCurrentTaskToDelayedList>
			else
			{
				mtCOVERAGE_TEST_MARKER();
			}
		}
		xAlreadyYielded = xTaskResumeAll();
    2178:	0001fec0 	call	1fec <xTaskResumeAll>

		/* Force a reschedule if xTaskResumeAll has not already done so, we may
		have put ourselves to sleep. */
		if( xAlreadyYielded == pdFALSE )
    217c:	1000011e 	bne	r2,zero,2184 <vTaskDelayUntil+0x74>
		{
			portYIELD_WITHIN_API();
    2180:	003b683a 	trap	0
		}
		else
		{
			mtCOVERAGE_TEST_MARKER();
		}
	}
    2184:	dfc00217 	ldw	ra,8(sp)
    2188:	dc400117 	ldw	r17,4(sp)
    218c:	dc000017 	ldw	r16,0(sp)
    2190:	dec00304 	addi	sp,sp,12
    2194:	f800283a 	ret

00002198 <vTaskDelay>:
	TickType_t xTimeToWake;
	BaseType_t xAlreadyYielded = pdFALSE;


		/* A delay time of zero just forces a reschedule. */
		if( xTicksToDelay > ( TickType_t ) 0U )
    2198:	20001326 	beq	r4,zero,21e8 <vTaskDelay+0x50>
/*-----------------------------------------------------------*/

#if ( INCLUDE_vTaskDelay == 1 )

	void vTaskDelay( const TickType_t xTicksToDelay )
	{
    219c:	defffe04 	addi	sp,sp,-8
    21a0:	dfc00115 	stw	ra,4(sp)
    21a4:	dc000015 	stw	r16,0(sp)
    21a8:	2021883a 	mov	r16,r4

		/* A delay time of zero just forces a reschedule. */
		if( xTicksToDelay > ( TickType_t ) 0U )
		{
			configASSERT( uxSchedulerSuspended == 0 );
			vTaskSuspendAll();
    21ac:	00013040 	call	1304 <vTaskSuspendAll>
				This task cannot be in an event list as it is the currently
				executing task. */

				/* Calculate the time to wake - this may overflow but this is
				not a problem. */
				xTimeToWake = xTickCount + xTicksToDelay;
    21b0:	d1201917 	ldw	r4,-32668(gp)
    21b4:	8121883a 	add	r16,r16,r4

				/* We must remove ourselves from the ready list before adding
				ourselves to the blocked list as the same list item is used for
				both lists. */
				if( uxListRemove( &( pxCurrentTCB->xGenericListItem ) ) == ( UBaseType_t ) 0 )
    21b8:	d1201e17 	ldw	r4,-32648(gp)
    21bc:	21000104 	addi	r4,r4,4
    21c0:	000037c0 	call	37c <uxListRemove>
				}
				else
				{
					mtCOVERAGE_TEST_MARKER();
				}
				prvAddCurrentTaskToDelayedList( xTimeToWake );
    21c4:	8009883a 	mov	r4,r16
    21c8:	00011d80 	call	11d8 <prvAddCurrentTaskToDelayedList>
			}
			xAlreadyYielded = xTaskResumeAll();
    21cc:	0001fec0 	call	1fec <xTaskResumeAll>
			mtCOVERAGE_TEST_MARKER();
		}

		/* Force a reschedule if xTaskResumeAll has not already done so, we may
		have put ourselves to sleep. */
		if( xAlreadyYielded == pdFALSE )
    21d0:	1000011e 	bne	r2,zero,21d8 <vTaskDelay+0x40>
		{
			portYIELD_WITHIN_API();
    21d4:	003b683a 	trap	0
		}
		else
		{
			mtCOVERAGE_TEST_MARKER();
		}
	}
    21d8:	dfc00117 	ldw	ra,4(sp)
    21dc:	dc000017 	ldw	r16,0(sp)
    21e0:	dec00204 	addi	sp,sp,8
    21e4:	f800283a 	ret

		/* Force a reschedule if xTaskResumeAll has not already done so, we may
		have put ourselves to sleep. */
		if( xAlreadyYielded == pdFALSE )
		{
			portYIELD_WITHIN_API();
    21e8:	003b683a 	trap	0
    21ec:	f800283a 	ret

000021f0 <prvIdleTask>:
 *
 * void prvIdleTask( void *pvParameters );
 *
 */
static portTASK_FUNCTION( prvIdleTask, pvParameters )
{
    21f0:	defffd04 	addi	sp,sp,-12
    21f4:	dc400115 	stw	r17,4(sp)
		too often in the idle task. */
		while( uxTasksDeleted > ( UBaseType_t ) 0U )
		{
			vTaskSuspendAll();
			{
				xListIsEmpty = listLIST_IS_EMPTY( &xTasksWaitingTermination );
    21f8:	04400034 	movhi	r17,0
 *
 * void prvIdleTask( void *pvParameters );
 *
 */
static portTASK_FUNCTION( prvIdleTask, pvParameters )
{
    21fc:	dfc00215 	stw	ra,8(sp)
    2200:	dc000015 	stw	r16,0(sp)
		too often in the idle task. */
		while( uxTasksDeleted > ( UBaseType_t ) 0U )
		{
			vTaskSuspendAll();
			{
				xListIsEmpty = listLIST_IS_EMPTY( &xTasksWaitingTermination );
    2204:	8c54f304 	addi	r17,r17,21452
	{
		BaseType_t xListIsEmpty;

		/* ucTasksDeleted is used to prevent vTaskSuspendAll() being called
		too often in the idle task. */
		while( uxTasksDeleted > ( UBaseType_t ) 0U )
    2208:	d0a01b17 	ldw	r2,-32660(gp)
    220c:	103ffe26 	beq	r2,zero,2208 <prvIdleTask+0x18>
		{
			vTaskSuspendAll();
    2210:	00013040 	call	1304 <vTaskSuspendAll>
			{
				xListIsEmpty = listLIST_IS_EMPTY( &xTasksWaitingTermination );
    2214:	8c000017 	ldw	r16,0(r17)
			}
			( void ) xTaskResumeAll();
    2218:	0001fec0 	call	1fec <xTaskResumeAll>

			if( xListIsEmpty == pdFALSE )
    221c:	803ffa26 	beq	r16,zero,2208 <prvIdleTask+0x18>
			{
				TCB_t *pxTCB;

				taskENTER_CRITICAL();
    2220:	00019300 	call	1930 <vTaskEnterCritical>
				{
					pxTCB = ( TCB_t * ) listGET_OWNER_OF_HEAD_ENTRY( ( &xTasksWaitingTermination ) );
    2224:	00800034 	movhi	r2,0
    2228:	1094f304 	addi	r2,r2,21452
    222c:	10800317 	ldw	r2,12(r2)
    2230:	14000317 	ldw	r16,12(r2)
					( void ) uxListRemove( &( pxTCB->xGenericListItem ) );
    2234:	81000104 	addi	r4,r16,4
    2238:	000037c0 	call	37c <uxListRemove>
					--uxCurrentNumberOfTasks;
    223c:	d0a01a17 	ldw	r2,-32664(gp)
    2240:	10bfffc4 	addi	r2,r2,-1
    2244:	d0a01a15 	stw	r2,-32664(gp)
					--uxTasksDeleted;
    2248:	d0a01b17 	ldw	r2,-32660(gp)
    224c:	10bfffc4 	addi	r2,r2,-1
    2250:	d0a01b15 	stw	r2,-32660(gp)
				}
				taskEXIT_CRITICAL();
    2254:	00019600 	call	1960 <vTaskExitCritical>
				vPortFreeAligned( pxTCB->pxStack );
			}
		}
		#else
		{
			vPortFreeAligned( pxTCB->pxStack );
    2258:	81000c17 	ldw	r4,48(r16)
    225c:	000071c0 	call	71c <vPortFree>
		}
		#endif

		vPortFree( pxTCB );
    2260:	8009883a 	mov	r4,r16
    2264:	000071c0 	call	71c <vPortFree>
    2268:	003fe706 	br	2208 <prvIdleTask+0x18>

0000226c <xTaskCheckForTimeOut>:
	pxTimeOut->xTimeOnEntering = xTickCount;
}
/*-----------------------------------------------------------*/

BaseType_t xTaskCheckForTimeOut( TimeOut_t * const pxTimeOut, TickType_t * const pxTicksToWait )
{
    226c:	defffd04 	addi	sp,sp,-12
    2270:	dc000115 	stw	r16,4(sp)
BaseType_t xReturn;

	configASSERT( pxTimeOut );
	configASSERT( pxTicksToWait );

	taskENTER_CRITICAL();
    2274:	d9000015 	stw	r4,0(sp)
	pxTimeOut->xTimeOnEntering = xTickCount;
}
/*-----------------------------------------------------------*/

BaseType_t xTaskCheckForTimeOut( TimeOut_t * const pxTimeOut, TickType_t * const pxTicksToWait )
{
    2278:	2821883a 	mov	r16,r5
    227c:	dfc00215 	stw	ra,8(sp)
BaseType_t xReturn;

	configASSERT( pxTimeOut );
	configASSERT( pxTicksToWait );

	taskENTER_CRITICAL();
    2280:	00019300 	call	1930 <vTaskEnterCritical>

		#if ( INCLUDE_vTaskSuspend == 1 )
			/* If INCLUDE_vTaskSuspend is set to 1 and the block time specified is
			the maximum block time then the task should block indefinitely, and
			therefore never time out. */
			if( *pxTicksToWait == portMAX_DELAY )
    2284:	80800017 	ldw	r2,0(r16)
	configASSERT( pxTicksToWait );

	taskENTER_CRITICAL();
	{
		/* Minor optimisation.  The tick count cannot change in this block. */
		const TickType_t xConstTickCount = xTickCount;
    2288:	d1a01917 	ldw	r6,-32668(gp)

		#if ( INCLUDE_vTaskSuspend == 1 )
			/* If INCLUDE_vTaskSuspend is set to 1 and the block time specified is
			the maximum block time then the task should block indefinitely, and
			therefore never time out. */
			if( *pxTicksToWait == portMAX_DELAY )
    228c:	00ffffc4 	movi	r3,-1
    2290:	d9000017 	ldw	r4,0(sp)
    2294:	10c00c26 	beq	r2,r3,22c8 <xTaskCheckForTimeOut+0x5c>
				xReturn = pdFALSE;
			}
			else /* We are not blocking indefinitely, perform the checks below. */
		#endif

		if( ( xNumOfOverflows != pxTimeOut->xOverflowCount ) && ( xConstTickCount >= pxTimeOut->xTimeOnEntering ) ) /*lint !e525 Indentation preferred as is to make code within pre-processor directives clearer. */
    2298:	d1601417 	ldw	r5,-32688(gp)
    229c:	20c00017 	ldw	r3,0(r4)
    22a0:	28c00226 	beq	r5,r3,22ac <xTaskCheckForTimeOut+0x40>
    22a4:	20c00117 	ldw	r3,4(r4)
    22a8:	30c0092e 	bgeu	r6,r3,22d0 <xTaskCheckForTimeOut+0x64>
			was called, but has also overflowed since vTaskSetTimeOut() was called.
			It must have wrapped all the way around and gone past us again. This
			passed since vTaskSetTimeout() was called. */
			xReturn = pdTRUE;
		}
		else if( ( xConstTickCount - pxTimeOut->xTimeOnEntering ) < *pxTicksToWait )
    22ac:	20c00117 	ldw	r3,4(r4)
    22b0:	30cbc83a 	sub	r5,r6,r3
    22b4:	2880062e 	bgeu	r5,r2,22d0 <xTaskCheckForTimeOut+0x64>
		{
			/* Not a genuine timeout. Adjust parameters for time remaining. */
			*pxTicksToWait -= ( xConstTickCount -  pxTimeOut->xTimeOnEntering );
    22b8:	1987c83a 	sub	r3,r3,r6
    22bc:	1885883a 	add	r2,r3,r2
    22c0:	80800015 	stw	r2,0(r16)
			vTaskSetTimeOutState( pxTimeOut );
    22c4:	000175c0 	call	175c <vTaskSetTimeOutState>
			/* If INCLUDE_vTaskSuspend is set to 1 and the block time specified is
			the maximum block time then the task should block indefinitely, and
			therefore never time out. */
			if( *pxTicksToWait == portMAX_DELAY )
			{
				xReturn = pdFALSE;
    22c8:	0021883a 	mov	r16,zero
    22cc:	00000106 	br	22d4 <xTaskCheckForTimeOut+0x68>
		{
			/* The tick count is greater than the time at which vTaskSetTimeout()
			was called, but has also overflowed since vTaskSetTimeOut() was called.
			It must have wrapped all the way around and gone past us again. This
			passed since vTaskSetTimeout() was called. */
			xReturn = pdTRUE;
    22d0:	04000044 	movi	r16,1
		else
		{
			xReturn = pdTRUE;
		}
	}
	taskEXIT_CRITICAL();
    22d4:	00019600 	call	1960 <vTaskExitCritical>

	return xReturn;
}
    22d8:	8005883a 	mov	r2,r16
    22dc:	dfc00217 	ldw	ra,8(sp)
    22e0:	dc000117 	ldw	r16,4(sp)
    22e4:	dec00304 	addi	sp,sp,12
    22e8:	f800283a 	ret

000022ec <uxTaskResetEventItemValue>:

TickType_t uxTaskResetEventItemValue( void )
{
TickType_t uxReturn;

	uxReturn = listGET_LIST_ITEM_VALUE( &( pxCurrentTCB->xEventListItem ) );
    22ec:	d0a01e17 	ldw	r2,-32648(gp)

	/* Reset the event list item to its normal value - so it can be used with
	queues and semaphores. */
	listSET_LIST_ITEM_VALUE( &( pxCurrentTCB->xEventListItem ), ( ( TickType_t ) configMAX_PRIORITIES - ( TickType_t ) pxCurrentTCB->uxPriority ) ); /*lint !e961 MISRA exception as the casts are only redundant for some ports. */
    22f0:	d1201e17 	ldw	r4,-32648(gp)
    22f4:	d0e01e17 	ldw	r3,-32648(gp)

TickType_t uxTaskResetEventItemValue( void )
{
TickType_t uxReturn;

	uxReturn = listGET_LIST_ITEM_VALUE( &( pxCurrentTCB->xEventListItem ) );
    22f8:	10800617 	ldw	r2,24(r2)

	/* Reset the event list item to its normal value - so it can be used with
	queues and semaphores. */
	listSET_LIST_ITEM_VALUE( &( pxCurrentTCB->xEventListItem ), ( ( TickType_t ) configMAX_PRIORITIES - ( TickType_t ) pxCurrentTCB->uxPriority ) ); /*lint !e961 MISRA exception as the casts are only redundant for some ports. */
    22fc:	19400b17 	ldw	r5,44(r3)
    2300:	00c00144 	movi	r3,5
    2304:	1947c83a 	sub	r3,r3,r5
    2308:	20c00615 	stw	r3,24(r4)

	return uxReturn;
}
    230c:	f800283a 	ret

00002310 <pvTaskIncrementMutexHeldCount>:

	void *pvTaskIncrementMutexHeldCount( void )
	{
		/* If xSemaphoreCreateMutex() is called before any tasks have been created
		then pxCurrentTCB will be NULL. */
		if( pxCurrentTCB != NULL )
    2310:	d0a01e17 	ldw	r2,-32648(gp)
    2314:	10000426 	beq	r2,zero,2328 <pvTaskIncrementMutexHeldCount+0x18>
		{
			( pxCurrentTCB->uxMutexesHeld )++;
    2318:	d0e01e17 	ldw	r3,-32648(gp)
    231c:	18801117 	ldw	r2,68(r3)
    2320:	10800044 	addi	r2,r2,1
    2324:	18801115 	stw	r2,68(r3)
		}

		return pxCurrentTCB;
    2328:	d0a01e17 	ldw	r2,-32648(gp)
	}
    232c:	f800283a 	ret

00002330 <ulTaskNotifyTake>:
/*-----------------------------------------------------------*/

#if( configUSE_TASK_NOTIFICATIONS == 1 )

	uint32_t ulTaskNotifyTake( BaseType_t xClearCountOnExit, TickType_t xTicksToWait )
	{
    2330:	defffd04 	addi	sp,sp,-12
    2334:	dc400115 	stw	r17,4(sp)
    2338:	dc000015 	stw	r16,0(sp)
    233c:	dfc00215 	stw	ra,8(sp)
    2340:	2023883a 	mov	r17,r4
    2344:	2821883a 	mov	r16,r5
	TickType_t xTimeToWake;
	uint32_t ulReturn;

		taskENTER_CRITICAL();
    2348:	00019300 	call	1930 <vTaskEnterCritical>
		{
			/* Only block if the notification count is not already non-zero. */
			if( pxCurrentTCB->ulNotifiedValue == 0UL )
    234c:	d0a01e17 	ldw	r2,-32648(gp)
    2350:	10801217 	ldw	r2,72(r2)
    2354:	1000131e 	bne	r2,zero,23a4 <ulTaskNotifyTake+0x74>
			{
				/* Mark this task as waiting for a notification. */
				pxCurrentTCB->eNotifyState = eWaitingNotification;
    2358:	d0a01e17 	ldw	r2,-32648(gp)
    235c:	00c00044 	movi	r3,1
    2360:	10c01315 	stw	r3,76(r2)

				if( xTicksToWait > ( TickType_t ) 0 )
    2364:	80000f26 	beq	r16,zero,23a4 <ulTaskNotifyTake+0x74>
				{
					/* The task is going to block.  First it must be removed
					from the ready list. */
					if( uxListRemove( &( pxCurrentTCB->xGenericListItem ) ) == ( UBaseType_t ) 0 )
    2368:	d1201e17 	ldw	r4,-32648(gp)
    236c:	21000104 	addi	r4,r4,4
    2370:	000037c0 	call	37c <uxListRemove>
						mtCOVERAGE_TEST_MARKER();
					}

					#if ( INCLUDE_vTaskSuspend == 1 )
					{
						if( xTicksToWait == portMAX_DELAY )
    2374:	00bfffc4 	movi	r2,-1
    2378:	8080061e 	bne	r16,r2,2394 <ulTaskNotifyTake+0x64>
						{
							/* Add the task to the suspended task list instead
							of a delayed task list to ensure the task is not
							woken by a timing event.  It will block
							indefinitely. */
							vListInsertEnd( &xSuspendedTaskList, &( pxCurrentTCB->xGenericListItem ) );
    237c:	d1601e17 	ldw	r5,-32648(gp)
    2380:	01000034 	movhi	r4,0
    2384:	2114ee04 	addi	r4,r4,21432
    2388:	29400104 	addi	r5,r5,4
    238c:	00002f80 	call	2f8 <vListInsertEnd>
    2390:	00000306 	br	23a0 <ulTaskNotifyTake+0x70>
						{
							/* Calculate the time at which the task should be
							woken if no notification events occur.  This may
							overflow but this doesn't matter, the scheduler will
							handle it. */
							xTimeToWake = xTickCount + xTicksToWait;
    2394:	d1201917 	ldw	r4,-32668(gp)
							prvAddCurrentTaskToDelayedList( xTimeToWake );
    2398:	8109883a 	add	r4,r16,r4
    239c:	00011d80 	call	11d8 <prvAddCurrentTaskToDelayedList>

					/* All ports are written to allow a yield in a critical
					section (some will yield immediately, others wait until the
					critical section exits) - but it is not something that
					application code should ever do. */
					portYIELD_WITHIN_API();
    23a0:	003b683a 	trap	0
			else
			{
				mtCOVERAGE_TEST_MARKER();
			}
		}
		taskEXIT_CRITICAL();
    23a4:	00019600 	call	1960 <vTaskExitCritical>

		taskENTER_CRITICAL();
    23a8:	00019300 	call	1930 <vTaskEnterCritical>
		{
			traceTASK_NOTIFY_TAKE();
			ulReturn = pxCurrentTCB->ulNotifiedValue;
    23ac:	d0a01e17 	ldw	r2,-32648(gp)
    23b0:	14001217 	ldw	r16,72(r2)

			if( ulReturn != 0UL )
    23b4:	80000726 	beq	r16,zero,23d4 <ulTaskNotifyTake+0xa4>
			{
				if( xClearCountOnExit != pdFALSE )
				{
					pxCurrentTCB->ulNotifiedValue = 0UL;
    23b8:	d0a01e17 	ldw	r2,-32648(gp)
			traceTASK_NOTIFY_TAKE();
			ulReturn = pxCurrentTCB->ulNotifiedValue;

			if( ulReturn != 0UL )
			{
				if( xClearCountOnExit != pdFALSE )
    23bc:	88000226 	beq	r17,zero,23c8 <ulTaskNotifyTake+0x98>
				{
					pxCurrentTCB->ulNotifiedValue = 0UL;
    23c0:	10001215 	stw	zero,72(r2)
    23c4:	00000306 	br	23d4 <ulTaskNotifyTake+0xa4>
				}
				else
				{
					( pxCurrentTCB->ulNotifiedValue )--;
    23c8:	10c01217 	ldw	r3,72(r2)
    23cc:	18ffffc4 	addi	r3,r3,-1
    23d0:	10c01215 	stw	r3,72(r2)
			else
			{
				mtCOVERAGE_TEST_MARKER();
			}

			pxCurrentTCB->eNotifyState = eNotWaitingNotification;
    23d4:	d0a01e17 	ldw	r2,-32648(gp)
    23d8:	10001315 	stw	zero,76(r2)
		}
		taskEXIT_CRITICAL();
    23dc:	00019600 	call	1960 <vTaskExitCritical>

		return ulReturn;
	}
    23e0:	8005883a 	mov	r2,r16
    23e4:	dfc00217 	ldw	ra,8(sp)
    23e8:	dc400117 	ldw	r17,4(sp)
    23ec:	dc000017 	ldw	r16,0(sp)
    23f0:	dec00304 	addi	sp,sp,12
    23f4:	f800283a 	ret

000023f8 <xTaskNotifyWait>:
/*-----------------------------------------------------------*/

#if( configUSE_TASK_NOTIFICATIONS == 1 )

	BaseType_t xTaskNotifyWait( uint32_t ulBitsToClearOnEntry, uint32_t ulBitsToClearOnExit, uint32_t *pulNotificationValue, TickType_t xTicksToWait )
	{
    23f8:	defffb04 	addi	sp,sp,-20
    23fc:	dcc00315 	stw	r19,12(sp)
    2400:	dc800215 	stw	r18,8(sp)
    2404:	dc400115 	stw	r17,4(sp)
    2408:	dc000015 	stw	r16,0(sp)
    240c:	dfc00415 	stw	ra,16(sp)
    2410:	2025883a 	mov	r18,r4
    2414:	2823883a 	mov	r17,r5
    2418:	3027883a 	mov	r19,r6
    241c:	3821883a 	mov	r16,r7
	TickType_t xTimeToWake;
	BaseType_t xReturn;

		taskENTER_CRITICAL();
    2420:	00019300 	call	1930 <vTaskEnterCritical>
		{
			/* Only block if a notification is not already pending. */
			if( pxCurrentTCB->eNotifyState != eNotified )
    2424:	d0a01e17 	ldw	r2,-32648(gp)
    2428:	10c01317 	ldw	r3,76(r2)
    242c:	00800084 	movi	r2,2
    2430:	18801826 	beq	r3,r2,2494 <xTaskNotifyWait+0x9c>
			{
				/* Clear bits in the task's notification value as bits may get
				set	by the notifying task or interrupt.  This can be used to
				clear the value to zero. */
				pxCurrentTCB->ulNotifiedValue &= ~ulBitsToClearOnEntry;
    2434:	d0e01e17 	ldw	r3,-32648(gp)
    2438:	0488303a 	nor	r4,zero,r18
    243c:	18801217 	ldw	r2,72(r3)
    2440:	2088703a 	and	r4,r4,r2
    2444:	19001215 	stw	r4,72(r3)

				/* Mark this task as waiting for a notification. */
				pxCurrentTCB->eNotifyState = eWaitingNotification;
    2448:	d0a01e17 	ldw	r2,-32648(gp)
    244c:	00c00044 	movi	r3,1
    2450:	10c01315 	stw	r3,76(r2)

				if( xTicksToWait > ( TickType_t ) 0 )
    2454:	80000f26 	beq	r16,zero,2494 <xTaskNotifyWait+0x9c>
				{
					/* The task is going to block.  First it must be removed
					from the	ready list. */
					if( uxListRemove( &( pxCurrentTCB->xGenericListItem ) ) == ( UBaseType_t ) 0 )
    2458:	d1201e17 	ldw	r4,-32648(gp)
    245c:	21000104 	addi	r4,r4,4
    2460:	000037c0 	call	37c <uxListRemove>
						mtCOVERAGE_TEST_MARKER();
					}

					#if ( INCLUDE_vTaskSuspend == 1 )
					{
						if( xTicksToWait == portMAX_DELAY )
    2464:	00bfffc4 	movi	r2,-1
    2468:	8080061e 	bne	r16,r2,2484 <xTaskNotifyWait+0x8c>
						{
							/* Add the task to the suspended task list instead
							of a delayed task list to ensure the task is not
							woken by a timing event.  It will block
							indefinitely. */
							vListInsertEnd( &xSuspendedTaskList, &( pxCurrentTCB->xGenericListItem ) );
    246c:	d1601e17 	ldw	r5,-32648(gp)
    2470:	01000034 	movhi	r4,0
    2474:	2114ee04 	addi	r4,r4,21432
    2478:	29400104 	addi	r5,r5,4
    247c:	00002f80 	call	2f8 <vListInsertEnd>
    2480:	00000306 	br	2490 <xTaskNotifyWait+0x98>
						{
							/* Calculate the time at which the task should be
							woken if no notification events occur.  This may
							overflow but this doesn't matter, the scheduler will
							handle it. */
							xTimeToWake = xTickCount + xTicksToWait;
    2484:	d1201917 	ldw	r4,-32668(gp)
							prvAddCurrentTaskToDelayedList( xTimeToWake );
    2488:	8109883a 	add	r4,r16,r4
    248c:	00011d80 	call	11d8 <prvAddCurrentTaskToDelayedList>
					
					/* All ports are written to allow a yield in a critical
					section (some will yield immediately, others wait until the
					critical section exits) - but it is not something that
					application code should ever do. */
					portYIELD_WITHIN_API();
    2490:	003b683a 	trap	0
			else
			{
				mtCOVERAGE_TEST_MARKER();
			}
		}
		taskEXIT_CRITICAL();
    2494:	00019600 	call	1960 <vTaskExitCritical>

		taskENTER_CRITICAL();
    2498:	00019300 	call	1930 <vTaskEnterCritical>
		{
			traceTASK_NOTIFY_WAIT();
			
			if( pulNotificationValue != NULL )
    249c:	98000326 	beq	r19,zero,24ac <xTaskNotifyWait+0xb4>
			{
				/* Output the current notification value, which may or may not
				have changed. */
				*pulNotificationValue = pxCurrentTCB->ulNotifiedValue;
    24a0:	d0a01e17 	ldw	r2,-32648(gp)
    24a4:	10801217 	ldw	r2,72(r2)
    24a8:	98800015 	stw	r2,0(r19)

			/* If eNotifyValue is set then either the task never entered the
			blocked state (because a notification was already pending) or the
			task unblocked because of a notification.  Otherwise the task
			unblocked because of a timeout. */
			if( pxCurrentTCB->eNotifyState == eWaitingNotification )
    24ac:	d0a01e17 	ldw	r2,-32648(gp)
    24b0:	04000044 	movi	r16,1
    24b4:	10801317 	ldw	r2,76(r2)
    24b8:	14000626 	beq	r2,r16,24d4 <xTaskNotifyWait+0xdc>
			}
			else
			{
				/* A notification was already pending or a notification was
				received while the task was waiting. */
				pxCurrentTCB->ulNotifiedValue &= ~ulBitsToClearOnExit;
    24bc:	d0e01e17 	ldw	r3,-32648(gp)
    24c0:	044a303a 	nor	r5,zero,r17
    24c4:	18801217 	ldw	r2,72(r3)
    24c8:	288a703a 	and	r5,r5,r2
    24cc:	19401215 	stw	r5,72(r3)
    24d0:	00000106 	br	24d8 <xTaskNotifyWait+0xe0>
			task unblocked because of a notification.  Otherwise the task
			unblocked because of a timeout. */
			if( pxCurrentTCB->eNotifyState == eWaitingNotification )
			{
				/* A notification was not received. */
				xReturn = pdFALSE;
    24d4:	0021883a 	mov	r16,zero
				received while the task was waiting. */
				pxCurrentTCB->ulNotifiedValue &= ~ulBitsToClearOnExit;
				xReturn = pdTRUE;
			}

			pxCurrentTCB->eNotifyState = eNotWaitingNotification;
    24d8:	d0a01e17 	ldw	r2,-32648(gp)
    24dc:	10001315 	stw	zero,76(r2)
		}
		taskEXIT_CRITICAL();
    24e0:	00019600 	call	1960 <vTaskExitCritical>

		return xReturn;
	}
    24e4:	8005883a 	mov	r2,r16
    24e8:	dfc00417 	ldw	ra,16(sp)
    24ec:	dcc00317 	ldw	r19,12(sp)
    24f0:	dc800217 	ldw	r18,8(sp)
    24f4:	dc400117 	ldw	r17,4(sp)
    24f8:	dc000017 	ldw	r16,0(sp)
    24fc:	dec00504 	addi	sp,sp,20
    2500:	f800283a 	ret

00002504 <xTaskGenericNotify>:
/*-----------------------------------------------------------*/

#if( configUSE_TASK_NOTIFICATIONS == 1 )

	BaseType_t xTaskGenericNotify( TaskHandle_t xTaskToNotify, uint32_t ulValue, eNotifyAction eAction, uint32_t *pulPreviousNotificationValue )
	{
    2504:	defffb04 	addi	sp,sp,-20
    2508:	dcc00315 	stw	r19,12(sp)
    250c:	3827883a 	mov	r19,r7
    2510:	dc800215 	stw	r18,8(sp)
    2514:	dc400115 	stw	r17,4(sp)
    2518:	dc000015 	stw	r16,0(sp)
    251c:	dfc00415 	stw	ra,16(sp)
    2520:	2021883a 	mov	r16,r4
    2524:	2825883a 	mov	r18,r5
    2528:	3023883a 	mov	r17,r6
	BaseType_t xReturn = pdPASS;

		configASSERT( xTaskToNotify );
		pxTCB = ( TCB_t * ) xTaskToNotify;

		taskENTER_CRITICAL();
    252c:	00019300 	call	1930 <vTaskEnterCritical>
		{
			if( pulPreviousNotificationValue != NULL )
    2530:	98000226 	beq	r19,zero,253c <xTaskGenericNotify+0x38>
			{
				*pulPreviousNotificationValue = pxTCB->ulNotifiedValue;
    2534:	80801217 	ldw	r2,72(r16)
    2538:	98800015 	stw	r2,0(r19)
			}

			eOriginalNotifyState = pxTCB->eNotifyState;
    253c:	80c01317 	ldw	r3,76(r16)

			pxTCB->eNotifyState = eNotified;
    2540:	00800084 	movi	r2,2
    2544:	80801315 	stw	r2,76(r16)

			switch( eAction )
    2548:	88800b26 	beq	r17,r2,2578 <xTaskGenericNotify+0x74>
    254c:	14400536 	bltu	r2,r17,2564 <xTaskGenericNotify+0x60>
    2550:	00800044 	movi	r2,1
    2554:	88800e1e 	bne	r17,r2,2590 <xTaskGenericNotify+0x8c>
			{
				case eSetBits	:
					pxTCB->ulNotifiedValue |= ulValue;
    2558:	81401217 	ldw	r5,72(r16)
    255c:	9164b03a 	or	r18,r18,r5
    2560:	00000a06 	br	258c <xTaskGenericNotify+0x88>

			eOriginalNotifyState = pxTCB->eNotifyState;

			pxTCB->eNotifyState = eNotified;

			switch( eAction )
    2564:	010000c4 	movi	r4,3
    2568:	89000826 	beq	r17,r4,258c <xTaskGenericNotify+0x88>
    256c:	01000104 	movi	r4,4
    2570:	89000526 	beq	r17,r4,2588 <xTaskGenericNotify+0x84>
    2574:	00000606 	br	2590 <xTaskGenericNotify+0x8c>
				case eSetBits	:
					pxTCB->ulNotifiedValue |= ulValue;
					break;

				case eIncrement	:
					( pxTCB->ulNotifiedValue )++;
    2578:	80801217 	ldw	r2,72(r16)
    257c:	10800044 	addi	r2,r2,1
    2580:	80801215 	stw	r2,72(r16)
					break;
    2584:	00000206 	br	2590 <xTaskGenericNotify+0x8c>
				case eSetValueWithOverwrite	:
					pxTCB->ulNotifiedValue = ulValue;
					break;

				case eSetValueWithoutOverwrite :
					if( eOriginalNotifyState != eNotified )
    2588:	18801826 	beq	r3,r2,25ec <xTaskGenericNotify+0xe8>
					{
						pxTCB->ulNotifiedValue = ulValue;
    258c:	84801215 	stw	r18,72(r16)

			traceTASK_NOTIFY();

			/* If the task is in the blocked state specifically to wait for a
			notification then unblock it now. */
			if( eOriginalNotifyState == eWaitingNotification )
    2590:	00800044 	movi	r2,1
    2594:	1880131e 	bne	r3,r2,25e4 <xTaskGenericNotify+0xe0>
			{
				( void ) uxListRemove( &( pxTCB->xGenericListItem ) );
    2598:	84400104 	addi	r17,r16,4
    259c:	8809883a 	mov	r4,r17
    25a0:	000037c0 	call	37c <uxListRemove>
				prvAddTaskToReadyList( pxTCB );
    25a4:	81000b17 	ldw	r4,44(r16)
    25a8:	d0a01817 	ldw	r2,-32672(gp)
    25ac:	1100012e 	bgeu	r2,r4,25b4 <xTaskGenericNotify+0xb0>
    25b0:	d1201815 	stw	r4,-32672(gp)
    25b4:	01400504 	movi	r5,20
    25b8:	00029180 	call	2918 <__mulsi3>
    25bc:	01000034 	movhi	r4,0
    25c0:	21150704 	addi	r4,r4,21532
    25c4:	2089883a 	add	r4,r4,r2
    25c8:	880b883a 	mov	r5,r17
    25cc:	00002f80 	call	2f8 <vListInsertEnd>
					earliest possible time. */
					prvResetNextTaskUnblockTime();
				}
				#endif

